
./sel4/target/riscv64gc-unknown-none-elf/release/sel4:     file format elf64-littleriscv


Disassembly of section .text:

0000000080200000 <_start>:
    80200000:	0081e117          	auipc	sp,0x81e
    80200004:	00010113          	mv	sp,sp
    80200008:	00002097          	auipc	ra,0x2
    8020000c:	842080e7          	jalr	-1982(ra) # 8020184a <rust_main>

0000000080200010 <_ZN4core3ptr28drop_in_place$LT$$RF$str$GT$17h79cc5574b422a48bE>:
    80200010:	1141                	addi	sp,sp,-16
    80200012:	e406                	sd	ra,8(sp)
    80200014:	e022                	sd	s0,0(sp)
    80200016:	0800                	addi	s0,sp,16
    80200018:	60a2                	ld	ra,8(sp)
    8020001a:	6402                	ld	s0,0(sp)
    8020001c:	0141                	addi	sp,sp,16
    8020001e:	8082                	ret

0000000080200020 <_ZN4sel46kernel4boot17try_inital_kernel17hcd5a0f72a134865cE>:
    80200020:	7121                	addi	sp,sp,-448
    80200022:	ff06                	sd	ra,440(sp)
    80200024:	fb22                	sd	s0,432(sp)
    80200026:	f726                	sd	s1,424(sp)
    80200028:	f34a                	sd	s2,416(sp)
    8020002a:	ef4e                	sd	s3,408(sp)
    8020002c:	eb52                	sd	s4,400(sp)
    8020002e:	e756                	sd	s5,392(sp)
    80200030:	e35a                	sd	s6,384(sp)
    80200032:	fede                	sd	s7,376(sp)
    80200034:	fae2                	sd	s8,368(sp)
    80200036:	f6e6                	sd	s9,360(sp)
    80200038:	f2ea                	sd	s10,352(sp)
    8020003a:	eeee                	sd	s11,344(sp)
    8020003c:	0380                	addi	s0,sp,448
    8020003e:	00001097          	auipc	ra,0x1
    80200042:	c38080e7          	jalr	-968(ra) # 80200c76 <_ZN4sel46kernel6vspace17map_kernel_window17h77fa3b31719dc57eE>
    80200046:	00001097          	auipc	ra,0x1
    8020004a:	cbe080e7          	jalr	-834(ra) # 80200d04 <_ZN4sel46kernel6vspace22activate_kernel_vspace17h45e1e4c8e602d25cE>
    8020004e:	00002097          	auipc	ra,0x2
    80200052:	35a080e7          	jalr	858(ra) # 802023a8 <_ZN4sel45traps4init17h3fdfe01b44744affE>
    80200056:	22000513          	li	a0,544
    8020005a:	104525f3          	csrrs	a1,sie,a0
    8020005e:	00002097          	auipc	ra,0x2
    80200062:	366080e7          	jalr	870(ra) # 802023c4 <_ZN4sel45traps22enable_timer_interrupt17h587f2d4d79e42ea3E>

0000000080200066 <.LBB2_100>:
    80200066:	0000e517          	auipc	a0,0xe
    8020006a:	f9a50513          	addi	a0,a0,-102 # 8020e000 <_num_app>
    8020006e:	eea43823          	sd	a0,-272(s0)
    80200072:	6108                	ld	a0,0(a0)
    80200074:	eaa43423          	sd	a0,-344(s0)
    80200078:	14050fe3          	beqz	a0,802009d6 <.LBB2_108+0x56>
    8020007c:	4b81                	li	s7,0
    8020007e:	557d                	li	a0,-1
    80200080:	02751593          	slli	a1,a0,0x27
    80200084:	e4b43823          	sd	a1,-432(s0)
    80200088:	00358c13          	addi	s8,a1,3
    8020008c:	03b51d93          	slli	s11,a0,0x3b
    80200090:	f8000537          	lui	a0,0xf8000
    80200094:	8165                	srli	a0,a0,0x19
    80200096:	eca43823          	sd	a0,-304(s0)
    8020009a:	4a05                	li	s4,1
    8020009c:	026a1a93          	slli	s5,s4,0x26
    802000a0:	6505                	lui	a0,0x1
    802000a2:	ff85099b          	addiw	s3,a0,-8
    802000a6:	ef043503          	ld	a0,-272(s0)
    802000aa:	0521                	addi	a0,a0,8
    802000ac:	eaa43023          	sd	a0,-352(s0)
    802000b0:	464c4537          	lui	a0,0x464c4
    802000b4:	57f5051b          	addiw	a0,a0,1407
    802000b8:	e8a43c23          	sd	a0,-360(s0)
    802000bc:	ffdc0513          	addi	a0,s8,-3
    802000c0:	eaa43823          	sd	a0,-336(s0)
    802000c4:	0accd537          	lui	a0,0xaccd
    802000c8:	150e                	slli	a0,a0,0x23
    802000ca:	e8a43823          	sd	a0,-368(s0)
    802000ce:	40004537          	lui	a0,0x40004
    802000d2:	357d                	addiw	a0,a0,-1
    802000d4:	e8a43423          	sd	a0,-376(s0)
    802000d8:	00204537          	lui	a0,0x204
    802000dc:	357d                	addiw	a0,a0,-1
    802000de:	e8a43023          	sd	a0,-384(s0)
    802000e2:	454d                	li	a0,19
    802000e4:	155e                	slli	a0,a0,0x37
    802000e6:	e6a43c23          	sd	a0,-392(s0)
    802000ea:	fff005b7          	lui	a1,0xfff00
    802000ee:	00040537          	lui	a0,0x40
    802000f2:	0205051b          	addiw	a0,a0,32
    802000f6:	e6a43823          	sd	a0,-400(s0)
    802000fa:	450d                	li	a0,3
    802000fc:	1576                	slli	a0,a0,0x3d
    802000fe:	e4a43c23          	sd	a0,-424(s0)
    80200102:	6541                	lui	a0,0x10
    80200104:	fff5091b          	addiw	s2,a0,-1
    80200108:	0085d513          	srli	a0,a1,0x8
    8020010c:	e4a43423          	sd	a0,-440(s0)
    80200110:	e7843423          	sd	s8,-408(s0)
    80200114:	e7b43023          	sd	s11,-416(s0)
    80200118:	ed543c23          	sd	s5,-296(s0)
    8020011c:	a80d                	j	8020014e <.LBB2_100+0xe8>
    8020011e:	4531                	li	a0,12
    80200120:	1aad3423          	sd	a0,424(s10)
    80200124:	eb843583          	ld	a1,-328(s0)
    80200128:	1abd3823          	sd	a1,432(s10)
    8020012c:	1aad3c23          	sd	a0,440(s10)
    80200130:	01aab023          	sd	s10,0(s5)
    80200134:	650d                	lui	a0,0x3
    80200136:	3561                	addiw	a0,a0,-8
    80200138:	9552                	add	a0,a0,s4
    8020013a:	00ad3423          	sd	a0,8(s10)
    8020013e:	ee843583          	ld	a1,-280(s0)
    80200142:	8bae                	mv	s7,a1
    80200144:	ea843503          	ld	a0,-344(s0)
    80200148:	4a05                	li	s4,1
    8020014a:	08a586e3          	beq	a1,a0,802009d6 <.LBB2_108+0x56>
    8020014e:	ef043503          	ld	a0,-272(s0)
    80200152:	6108                	ld	a0,0(a0)
    80200154:	22abf5e3          	bgeu	s7,a0,80200b7e <.LBB2_132>
    80200158:	00150593          	addi	a1,a0,1 # 3001 <n+0x2fe1>
    8020015c:	0cbbf0e3          	bgeu	s7,a1,80200a1c <.LBB2_111>
    80200160:	001b8493          	addi	s1,s7,1
    80200164:	0cb4f6e3          	bgeu	s1,a1,80200a30 <.LBB2_112>
    80200168:	003b9513          	slli	a0,s7,0x3
    8020016c:	ea043603          	ld	a2,-352(s0)
    80200170:	00a60cb3          	add	s9,a2,a0
    80200174:	000cb583          	ld	a1,0(s9)
    80200178:	00349513          	slli	a0,s1,0x3
    8020017c:	9532                	add	a0,a0,a2
    8020017e:	eea43023          	sd	a0,-288(s0)
    80200182:	6108                	ld	a0,0(a0)
    80200184:	40b50633          	sub	a2,a0,a1
    80200188:	f6040513          	addi	a0,s0,-160
    8020018c:	00004097          	auipc	ra,0x4
    80200190:	928080e7          	jalr	-1752(ra) # 80203ab4 <_ZN8xmas_elf7ElfFile3new17h5c5a888c7f0fc68cE>
    80200194:	f7043503          	ld	a0,-144(s0)
    80200198:	4589                	li	a1,2
    8020019a:	20b501e3          	beq	a0,a1,80200b9c <.LBB2_133+0x16>
    8020019e:	ee943423          	sd	s1,-280(s0)
    802001a2:	f8043503          	ld	a0,-128(s0)
    802001a6:	f0a43c23          	sd	a0,-232(s0)
    802001aa:	f7843503          	ld	a0,-136(s0)
    802001ae:	f7043583          	ld	a1,-144(s0)
    802001b2:	f6843603          	ld	a2,-152(s0)
    802001b6:	f6043683          	ld	a3,-160(s0)
    802001ba:	f0a43823          	sd	a0,-240(s0)
    802001be:	f0b43423          	sd	a1,-248(s0)
    802001c2:	f0c43023          	sd	a2,-256(s0)
    802001c6:	eed43c23          	sd	a3,-264(s0)
    802001ca:	f0840613          	addi	a2,s0,-248
    802001ce:	6a08                	ld	a0,16(a2)
    802001d0:	660c                	ld	a1,8(a2)
    802001d2:	6210                	ld	a2,0(a2)
    802001d4:	f2a43823          	sd	a0,-208(s0)
    802001d8:	f2b43423          	sd	a1,-216(s0)
    802001dc:	f2c43023          	sd	a2,-224(s0)
    802001e0:	00154583          	lbu	a1,1(a0)
    802001e4:	00054603          	lbu	a2,0(a0)
    802001e8:	00350683          	lb	a3,3(a0)
    802001ec:	00254503          	lbu	a0,2(a0)
    802001f0:	05a2                	slli	a1,a1,0x8
    802001f2:	8dd1                	or	a1,a1,a2
    802001f4:	00869613          	slli	a2,a3,0x8
    802001f8:	8d51                	or	a0,a0,a2
    802001fa:	0542                	slli	a0,a0,0x10
    802001fc:	8d4d                	or	a0,a0,a1
    802001fe:	f2a42e23          	sw	a0,-196(s0)
    80200202:	e9843583          	ld	a1,-360(s0)
    80200206:	1cb518e3          	bne	a0,a1,80200bd6 <.LBB2_136+0x1a>
    8020020a:	f2040513          	addi	a0,s0,-224
    8020020e:	00003097          	auipc	ra,0x3
    80200212:	150080e7          	jalr	336(ra) # 8020335e <_ZN8xmas_elf6header9HeaderPt28ph_count17h7b91e667755c773dE>
    80200216:	8aaa                	mv	s5,a0
    80200218:	1542                	slli	a0,a0,0x30
    8020021a:	03055b13          	srli	s6,a0,0x30
    8020021e:	0c0b0f63          	beqz	s6,802002fc <.LBB2_100+0x296>
    80200222:	f6040513          	addi	a0,s0,-160
    80200226:	ef840593          	addi	a1,s0,-264
    8020022a:	4601                	li	a2,0
    8020022c:	00004097          	auipc	ra,0x4
    80200230:	986080e7          	jalr	-1658(ra) # 80203bb2 <_ZN8xmas_elf7ElfFile14program_header17hac0ec53fa1ea03ccE>
    80200234:	f6043503          	ld	a0,-160(s0)
    80200238:	020511e3          	bnez	a0,80200a5a <.LBB2_113+0x16>
    8020023c:	f6843503          	ld	a0,-152(s0)
    80200240:	f7043583          	ld	a1,-144(s0)
    80200244:	f4a43023          	sd	a0,-192(s0)
    80200248:	f4b43423          	sd	a1,-184(s0)
    8020024c:	f6040513          	addi	a0,s0,-160
    80200250:	f4040593          	addi	a1,s0,-192
    80200254:	ef840613          	addi	a2,s0,-264
    80200258:	00003097          	auipc	ra,0x3
    8020025c:	338080e7          	jalr	824(ra) # 80203590 <_ZN8xmas_elf7program13ProgramHeader8get_data17hd6546f58f2936d0eE>
    80200260:	f6043503          	ld	a0,-160(s0)
    80200264:	4595                	li	a1,5
    80200266:	00b50fe3          	beq	a0,a1,80200a84 <.LBB2_116+0xa>
    8020026a:	05451ae3          	bne	a0,s4,80200abe <.LBB2_120>
    8020026e:	4a05                	li	s4,1
    80200270:	f6843d03          	ld	s10,-152(s0)
    80200274:	ef043503          	ld	a0,-272(s0)
    80200278:	6108                	ld	a0,0(a0)
    8020027a:	0cabfae3          	bgeu	s7,a0,80200b4e <.LBB2_128>
    8020027e:	00150593          	addi	a1,a0,1
    80200282:	76bbf963          	bgeu	s7,a1,802009f4 <.LBB2_109>
    80200286:	ee843503          	ld	a0,-280(s0)
    8020028a:	7ab57d63          	bgeu	a0,a1,80200a44 <.LBB2_113>
    8020028e:	000cb483          	ld	s1,0(s9)
    80200292:	f5040513          	addi	a0,s0,-176
    80200296:	f4040593          	addi	a1,s0,-192
    8020029a:	00003097          	auipc	ra,0x3
    8020029e:	246080e7          	jalr	582(ra) # 802034e0 <_ZN8xmas_elf7program13ProgramHeader8get_type17h5c783a3d469e9548E>
    802002a2:	f5043503          	ld	a0,-176(s0)
    802002a6:	04051ae3          	bnez	a0,80200afa <.LBB2_122+0x16>
    802002aa:	f5842503          	lw	a0,-168(s0)
    802002ae:	05451b63          	bne	a0,s4,80200304 <.LBB2_100+0x29e>
    802002b2:	f4040513          	addi	a0,s0,-192
    802002b6:	00003097          	auipc	ra,0x3
    802002ba:	32c080e7          	jalr	812(ra) # 802035e2 <_ZN8xmas_elf7program13ProgramHeader12virtual_addr17ha3278100e42e4f02E>
    802002be:	f4040513          	addi	a0,s0,-192
    802002c2:	00003097          	auipc	ra,0x3
    802002c6:	320080e7          	jalr	800(ra) # 802035e2 <_ZN8xmas_elf7program13ProgramHeader12virtual_addr17ha3278100e42e4f02E>
    802002ca:	8c2a                	mv	s8,a0
    802002cc:	f4040513          	addi	a0,s0,-192
    802002d0:	00003097          	auipc	ra,0x3
    802002d4:	312080e7          	jalr	786(ra) # 802035e2 <_ZN8xmas_elf7program13ProgramHeader12virtual_addr17ha3278100e42e4f02E>
    802002d8:	8a2a                	mv	s4,a0
    802002da:	f4040513          	addi	a0,s0,-192
    802002de:	00003097          	auipc	ra,0x3
    802002e2:	2e0080e7          	jalr	736(ra) # 802035be <_ZN8xmas_elf7program13ProgramHeader8mem_size17hfb3634bd9d7f56d9E>
    802002e6:	414005b3          	neg	a1,s4
    802002ea:	02b51563          	bne	a0,a1,80200314 <.LBB2_100+0x2ae>
    802002ee:	4a01                	li	s4,0
    802002f0:	409d0db3          	sub	s11,s10,s1
    802002f4:	4509                	li	a0,2
    802002f6:	02ab7b63          	bgeu	s6,a0,8020032c <.LBB2_100+0x2c6>
    802002fa:	a209                	j	802003fc <.LBB2_100+0x396>
    802002fc:	4d81                	li	s11,0
    802002fe:	4a01                	li	s4,0
    80200300:	5c7d                	li	s8,-1
    80200302:	a8ed                	j	802003fc <.LBB2_100+0x396>
    80200304:	4a01                	li	s4,0
    80200306:	5c7d                	li	s8,-1
    80200308:	409d0db3          	sub	s11,s10,s1
    8020030c:	4509                	li	a0,2
    8020030e:	00ab7f63          	bgeu	s6,a0,8020032c <.LBB2_100+0x2c6>
    80200312:	a0ed                	j	802003fc <.LBB2_100+0x396>
    80200314:	f4040513          	addi	a0,s0,-192
    80200318:	00003097          	auipc	ra,0x3
    8020031c:	2ca080e7          	jalr	714(ra) # 802035e2 <_ZN8xmas_elf7program13ProgramHeader12virtual_addr17ha3278100e42e4f02E>
    80200320:	8a2a                	mv	s4,a0
    80200322:	409d0db3          	sub	s11,s10,s1
    80200326:	4509                	li	a0,2
    80200328:	0cab6a63          	bltu	s6,a0,802003fc <.LBB2_100+0x396>
    8020032c:	4485                	li	s1,1
    8020032e:	4d05                	li	s10,1
    80200330:	a801                	j	80200340 <.LBB2_100+0x2da>
    80200332:	0485                	addi	s1,s1,1
    80200334:	012af533          	and	a0,s5,s2
    80200338:	0124f5b3          	and	a1,s1,s2
    8020033c:	0ca5f063          	bgeu	a1,a0,802003fc <.LBB2_100+0x396>
    80200340:	f6040513          	addi	a0,s0,-160
    80200344:	ef840593          	addi	a1,s0,-264
    80200348:	8626                	mv	a2,s1
    8020034a:	00004097          	auipc	ra,0x4
    8020034e:	868080e7          	jalr	-1944(ra) # 80203bb2 <_ZN8xmas_elf7ElfFile14program_header17hac0ec53fa1ea03ccE>
    80200352:	f6043503          	ld	a0,-160(s0)
    80200356:	70051263          	bnez	a0,80200a5a <.LBB2_113+0x16>
    8020035a:	f6843503          	ld	a0,-152(s0)
    8020035e:	f7043583          	ld	a1,-144(s0)
    80200362:	f4a43023          	sd	a0,-192(s0)
    80200366:	f4b43423          	sd	a1,-184(s0)
    8020036a:	f6040513          	addi	a0,s0,-160
    8020036e:	f4040593          	addi	a1,s0,-192
    80200372:	ef840613          	addi	a2,s0,-264
    80200376:	00003097          	auipc	ra,0x3
    8020037a:	21a080e7          	jalr	538(ra) # 80203590 <_ZN8xmas_elf7program13ProgramHeader8get_data17hd6546f58f2936d0eE>
    8020037e:	f6043503          	ld	a0,-160(s0)
    80200382:	4595                	li	a1,5
    80200384:	70b50063          	beq	a0,a1,80200a84 <.LBB2_116+0xa>
    80200388:	73a51b63          	bne	a0,s10,80200abe <.LBB2_120>
    8020038c:	f5040513          	addi	a0,s0,-176
    80200390:	f4040593          	addi	a1,s0,-192
    80200394:	00003097          	auipc	ra,0x3
    80200398:	14c080e7          	jalr	332(ra) # 802034e0 <_ZN8xmas_elf7program13ProgramHeader8get_type17h5c783a3d469e9548E>
    8020039c:	f5043503          	ld	a0,-176(s0)
    802003a0:	74051d63          	bnez	a0,80200afa <.LBB2_122+0x16>
    802003a4:	f5842503          	lw	a0,-168(s0)
    802003a8:	4d05                	li	s10,1
    802003aa:	f9a514e3          	bne	a0,s10,80200332 <.LBB2_100+0x2cc>
    802003ae:	f4040513          	addi	a0,s0,-192
    802003b2:	00003097          	auipc	ra,0x3
    802003b6:	230080e7          	jalr	560(ra) # 802035e2 <_ZN8xmas_elf7program13ProgramHeader12virtual_addr17ha3278100e42e4f02E>
    802003ba:	00ac6963          	bltu	s8,a0,802003cc <.LBB2_100+0x366>
    802003be:	f4040513          	addi	a0,s0,-192
    802003c2:	00003097          	auipc	ra,0x3
    802003c6:	220080e7          	jalr	544(ra) # 802035e2 <_ZN8xmas_elf7program13ProgramHeader12virtual_addr17ha3278100e42e4f02E>
    802003ca:	8c2a                	mv	s8,a0
    802003cc:	f4040513          	addi	a0,s0,-192
    802003d0:	00003097          	auipc	ra,0x3
    802003d4:	212080e7          	jalr	530(ra) # 802035e2 <_ZN8xmas_elf7program13ProgramHeader12virtual_addr17ha3278100e42e4f02E>
    802003d8:	8b2a                	mv	s6,a0
    802003da:	f4040513          	addi	a0,s0,-192
    802003de:	00003097          	auipc	ra,0x3
    802003e2:	1e0080e7          	jalr	480(ra) # 802035be <_ZN8xmas_elf7program13ProgramHeader8mem_size17hfb3634bd9d7f56d9E>
    802003e6:	955a                	add	a0,a0,s6
    802003e8:	f4aa75e3          	bgeu	s4,a0,80200332 <.LBB2_100+0x2cc>
    802003ec:	f4040513          	addi	a0,s0,-192
    802003f0:	00003097          	auipc	ra,0x3
    802003f4:	1f2080e7          	jalr	498(ra) # 802035e2 <_ZN8xmas_elf7program13ProgramHeader12virtual_addr17ha3278100e42e4f02E>
    802003f8:	8a2a                	mv	s4,a0
    802003fa:	bf25                	j	80200332 <.LBB2_100+0x2cc>
    802003fc:	f0840513          	addi	a0,s0,-248
    80200400:	00003097          	auipc	ra,0x3
    80200404:	f3a080e7          	jalr	-198(ra) # 8020333a <_ZN8xmas_elf6header9HeaderPt211entry_point17hafb9c82c1210bbd5E>
    80200408:	8d2a                	mv	s10,a0
    8020040a:	6509                	lui	a0,0x2
    8020040c:	4591                	li	a1,4
    8020040e:	00003097          	auipc	ra,0x3
    80200412:	f14080e7          	jalr	-236(ra) # 80203322 <__rust_alloc>
    80200416:	84aa                	mv	s1,a0
    80200418:	4541                	li	a0,16
    8020041a:	4591                	li	a1,4
    8020041c:	00003097          	auipc	ra,0x3
    80200420:	f06080e7          	jalr	-250(ra) # 80203322 <__rust_alloc>
    80200424:	ed843603          	ld	a2,-296(s0)
    80200428:	00c4f5b3          	and	a1,s1,a2
    8020042c:	8b2a                	mv	s6,a0
    8020042e:	4501                	li	a0,0
    80200430:	ee843a83          	ld	s5,-280(s0)
    80200434:	c199                	beqz	a1,8020043a <.LBB2_100+0x3d4>
    80200436:	e5043503          	ld	a0,-432(s0)
    8020043a:	eb043583          	ld	a1,-336(s0)
    8020043e:	8de5                	and	a1,a1,s1
    80200440:	7ea59063          	bne	a1,a0,80200c20 <.LBB2_141>
    80200444:	0014d513          	srli	a0,s1,0x1
    80200448:	ffe60593          	addi	a1,a2,-2
    8020044c:	8d6d                	and	a0,a0,a1
    8020044e:	e9043583          	ld	a1,-368(s0)
    80200452:	8d4d                	or	a0,a0,a1
    80200454:	00ab3023          	sd	a0,0(s6)
    80200458:	000b3423          	sd	zero,8(s6)
    8020045c:	0364b023          	sd	s6,32(s1)
    80200460:	f6040513          	addi	a0,s0,-160
    80200464:	f488                	sd	a0,40(s1)
    80200466:	e8843503          	ld	a0,-376(s0)
    8020046a:	9552                	add	a0,a0,s4
    8020046c:	c00005b7          	lui	a1,0xc0000
    80200470:	8d6d                	and	a0,a0,a1
    80200472:	00bc75b3          	and	a1,s8,a1
    80200476:	8d0d                	sub	a0,a0,a1
    80200478:	8179                	srli	a0,a0,0x1e
    8020047a:	e8043583          	ld	a1,-384(s0)
    8020047e:	95d2                	add	a1,a1,s4
    80200480:	ffe00637          	lui	a2,0xffe00
    80200484:	8df1                	and	a1,a1,a2
    80200486:	00cc7633          	and	a2,s8,a2
    8020048a:	8d91                	sub	a1,a1,a2
    8020048c:	81d5                	srli	a1,a1,0x15
    8020048e:	952e                	add	a0,a0,a1
    80200490:	0532                	slli	a0,a0,0xc
    80200492:	4591                	li	a1,4
    80200494:	00003097          	auipc	ra,0x3
    80200498:	e8e080e7          	jalr	-370(ra) # 80203322 <__rust_alloc>
    8020049c:	ef043583          	ld	a1,-272(s0)
    802004a0:	618c                	ld	a1,0(a1)
    802004a2:	6abbf663          	bgeu	s7,a1,80200b4e <.LBB2_128>
    802004a6:	0585                	addi	a1,a1,1
    802004a8:	54bbf663          	bgeu	s7,a1,802009f4 <.LBB2_109>
    802004ac:	54bafe63          	bgeu	s5,a1,80200a08 <.LBB2_110>
    802004b0:	84aa                	mv	s1,a0
    802004b2:	eda43423          	sd	s10,-312(s0)
    802004b6:	000cb503          	ld	a0,0(s9)
    802004ba:	ee043583          	ld	a1,-288(s0)
    802004be:	0005bc83          	ld	s9,0(a1) # ffffffffc0000000 <ki_end+0xffffffff3f5dc000>
    802004c2:	6591                	lui	a1,0x4
    802004c4:	00ba0d33          	add	s10,s4,a1
    802004c8:	9daa                	add	s11,s11,a0
    802004ca:	855a                	mv	a0,s6
    802004cc:	00002097          	auipc	ra,0x2
    802004d0:	594080e7          	jalr	1428(ra) # 80202a60 <_ZN4sel46kernel6object10objecttype14cap_get_capPtr17h66df656170e7b0bcE>
    802004d4:	85da                	mv	a1,s6
    802004d6:	8662                	mv	a2,s8
    802004d8:	86ea                	mv	a3,s10
    802004da:	876e                	mv	a4,s11
    802004dc:	87e6                	mv	a5,s9
    802004de:	8826                	mv	a6,s1
    802004e0:	00001097          	auipc	ra,0x1
    802004e4:	a50080e7          	jalr	-1456(ra) # 80200f30 <_ZN4sel46kernel6vspace28create_address_space_alloced17h4b845634d43c88ffE>
    802004e8:	ef043583          	ld	a1,-272(s0)
    802004ec:	618c                	ld	a1,0(a1)
    802004ee:	66bbf063          	bgeu	s7,a1,80200b4e <.LBB2_128>
    802004f2:	0585                	addi	a1,a1,1
    802004f4:	4c05                	li	s8,1
    802004f6:	4ebbff63          	bgeu	s7,a1,802009f4 <.LBB2_109>
    802004fa:	50baf763          	bgeu	s5,a1,80200a08 <.LBB2_110>
    802004fe:	8d2a                	mv	s10,a0
    80200500:	ee043503          	ld	a0,-288(s0)
    80200504:	6108                	ld	a0,0(a0)
    80200506:	658d                	lui	a1,0x3
    80200508:	00ba04b3          	add	s1,s4,a1
    8020050c:	80050513          	addi	a0,a0,-2048 # 1800 <n+0x17e0>
    80200510:	80050a93          	addi	s5,a0,-2048
    80200514:	6605                	lui	a2,0x1
    80200516:	8556                	mv	a0,s5
    80200518:	4581                	li	a1,0
    8020051a:	00007097          	auipc	ra,0x7
    8020051e:	934080e7          	jalr	-1740(ra) # 80206e4e <memset>
    80200522:	4541                	li	a0,16
    80200524:	4591                	li	a1,4
    80200526:	00003097          	auipc	ra,0x3
    8020052a:	dfc080e7          	jalr	-516(ra) # 80203322 <__rust_alloc>
    8020052e:	8caa                	mv	s9,a0
    80200530:	ed043503          	ld	a0,-304(s0)
    80200534:	050d                	addi	a0,a0,3
    80200536:	00a4fbb3          	and	s7,s1,a0
    8020053a:	e7843503          	ld	a0,-392(s0)
    8020053e:	00abe533          	or	a0,s7,a0
    80200542:	019a9593          	slli	a1,s5,0x19
    80200546:	81c1                	srli	a1,a1,0x10
    80200548:	00acb023          	sd	a0,0(s9)
    8020054c:	00bcb423          	sd	a1,8(s9)
    80200550:	856a                	mv	a0,s10
    80200552:	00002097          	auipc	ra,0x2
    80200556:	50e080e7          	jalr	1294(ra) # 80202a60 <_ZN4sel46kernel6object10objecttype14cap_get_capPtr17h66df656170e7b0bcE>
    8020055a:	8aaa                	mv	s5,a0
    8020055c:	8566                	mv	a0,s9
    8020055e:	00002097          	auipc	ra,0x2
    80200562:	502080e7          	jalr	1282(ra) # 80202a60 <_ZN4sel46kernel6object10objecttype14cap_get_capPtr17h66df656170e7b0bcE>
    80200566:	ec943023          	sd	s1,-320(s0)
    8020056a:	01b4d593          	srli	a1,s1,0x1b
    8020056e:	0135f5b3          	and	a1,a1,s3
    80200572:	95d6                	add	a1,a1,s5
    80200574:	6194                	ld	a3,0(a1)
    80200576:	00f6f613          	andi	a2,a3,15
    8020057a:	03861b63          	bne	a2,s8,802005b0 <.LBB2_100+0x54a>
    8020057e:	4655                	li	a2,21
    80200580:	e4843483          	ld	s1,-440(s0)
    80200584:	00269593          	slli	a1,a3,0x2
    80200588:	8de5                	and	a1,a1,s1
    8020058a:	00cbd6b3          	srl	a3,s7,a2
    8020058e:	068e                	slli	a3,a3,0x3
    80200590:	0136f6b3          	and	a3,a3,s3
    80200594:	8dd5                	or	a1,a1,a3
    80200596:	6194                	ld	a3,0(a1)
    80200598:	00f6f713          	andi	a4,a3,15
    8020059c:	177d                	addi	a4,a4,-1
    8020059e:	00173713          	seqz	a4,a4
    802005a2:	ff460793          	addi	a5,a2,-12 # ff4 <n+0xfd4>
    802005a6:	00f037b3          	snez	a5,a5
    802005aa:	8f7d                	and	a4,a4,a5
    802005ac:	165d                	addi	a2,a2,-9
    802005ae:	fb79                	bnez	a4,80200584 <.LBB2_100+0x51e>
    802005b0:	efa43023          	sd	s10,-288(s0)
    802005b4:	8109                	srli	a0,a0,0x2
    802005b6:	fff00637          	lui	a2,0xfff00
    802005ba:	8229                	srli	a2,a2,0xa
    802005bc:	8d71                	and	a0,a0,a2
    802005be:	0df56513          	ori	a0,a0,223
    802005c2:	e188                	sd	a0,0(a1)
    802005c4:	12000073          	sfence.vma
    802005c8:	855a                	mv	a0,s6
    802005ca:	00002097          	auipc	ra,0x2
    802005ce:	496080e7          	jalr	1174(ra) # 80202a60 <_ZN4sel46kernel6object10objecttype14cap_get_capPtr17h66df656170e7b0bcE>
    802005d2:	0b953023          	sd	s9,160(a0)
    802005d6:	f6040593          	addi	a1,s0,-160
    802005da:	f54c                	sd	a1,168(a0)
    802005dc:	1c000513          	li	a0,448
    802005e0:	4591                	li	a1,4
    802005e2:	00003097          	auipc	ra,0x3
    802005e6:	d40080e7          	jalr	-704(ra) # 80203322 <__rust_alloc>
    802005ea:	8d2a                	mv	s10,a0
    802005ec:	4531                	li	a0,12
    802005ee:	4585                	li	a1,1
    802005f0:	00003097          	auipc	ra,0x3
    802005f4:	d32080e7          	jalr	-718(ra) # 80203322 <__rust_alloc>
    802005f8:	64050363          	beqz	a0,80200c3e <.LBB2_142+0x16>

00000000802005fc <.LBB2_101>:
    802005fc:	00009597          	auipc	a1,0x9
    80200600:	a7c58593          	addi	a1,a1,-1412 # 80209078 <.Lanon.c25a22bef176e972515b110aecca08c8.7>
    80200604:	4631                	li	a2,12
    80200606:	eaa43c23          	sd	a0,-328(s0)
    8020060a:	00007097          	auipc	ra,0x7
    8020060e:	962080e7          	jalr	-1694(ra) # 80206f6c <memcpy>
    80200612:	05000513          	li	a0,80
    80200616:	4591                	li	a1,4
    80200618:	00003097          	auipc	ra,0x3
    8020061c:	d0a080e7          	jalr	-758(ra) # 80203322 <__rust_alloc>
    80200620:	84aa                	mv	s1,a0
    80200622:	4541                	li	a0,16
    80200624:	4591                	li	a1,4
    80200626:	00003097          	auipc	ra,0x3
    8020062a:	cfc080e7          	jalr	-772(ra) # 80203322 <__rust_alloc>
    8020062e:	00053023          	sd	zero,0(a0)
    80200632:	00053423          	sd	zero,8(a0)
    80200636:	e088                	sd	a0,0(s1)
    80200638:	4541                	li	a0,16
    8020063a:	4591                	li	a1,4
    8020063c:	00003097          	auipc	ra,0x3
    80200640:	ce6080e7          	jalr	-794(ra) # 80203322 <__rust_alloc>
    80200644:	00053023          	sd	zero,0(a0)
    80200648:	00053423          	sd	zero,8(a0)
    8020064c:	e488                	sd	a0,8(s1)
    8020064e:	05048a93          	addi	s5,s1,80
    80200652:	4541                	li	a0,16
    80200654:	4591                	li	a1,4
    80200656:	00003097          	auipc	ra,0x3
    8020065a:	ccc080e7          	jalr	-820(ra) # 80203322 <__rust_alloc>
    8020065e:	00053023          	sd	zero,0(a0)
    80200662:	00053423          	sd	zero,8(a0)
    80200666:	e8a8                	sd	a0,80(s1)
    80200668:	4541                	li	a0,16
    8020066a:	4591                	li	a1,4
    8020066c:	00003097          	auipc	ra,0x3
    80200670:	cb6080e7          	jalr	-842(ra) # 80203322 <__rust_alloc>
    80200674:	00053023          	sd	zero,0(a0)
    80200678:	00053423          	sd	zero,8(a0)
    8020067c:	eca8                	sd	a0,88(s1)
    8020067e:	0a048d93          	addi	s11,s1,160
    80200682:	4541                	li	a0,16
    80200684:	4591                	li	a1,4
    80200686:	00003097          	auipc	ra,0x3
    8020068a:	c9c080e7          	jalr	-868(ra) # 80203322 <__rust_alloc>
    8020068e:	00053023          	sd	zero,0(a0)
    80200692:	00053423          	sd	zero,8(a0)
    80200696:	f0c8                	sd	a0,160(s1)
    80200698:	4541                	li	a0,16
    8020069a:	4591                	li	a1,4
    8020069c:	00003097          	auipc	ra,0x3
    802006a0:	c86080e7          	jalr	-890(ra) # 80203322 <__rust_alloc>
    802006a4:	00053023          	sd	zero,0(a0)
    802006a8:	00053423          	sd	zero,8(a0)
    802006ac:	f4c8                	sd	a0,168(s1)
    802006ae:	0f048b93          	addi	s7,s1,240
    802006b2:	4541                	li	a0,16
    802006b4:	4591                	li	a1,4
    802006b6:	00003097          	auipc	ra,0x3
    802006ba:	c6c080e7          	jalr	-916(ra) # 80203322 <__rust_alloc>
    802006be:	00053023          	sd	zero,0(a0)
    802006c2:	00053423          	sd	zero,8(a0)
    802006c6:	f8e8                	sd	a0,240(s1)
    802006c8:	4541                	li	a0,16
    802006ca:	4591                	li	a1,4
    802006cc:	00003097          	auipc	ra,0x3
    802006d0:	c56080e7          	jalr	-938(ra) # 80203322 <__rust_alloc>
    802006d4:	00053023          	sd	zero,0(a0)
    802006d8:	00053423          	sd	zero,8(a0)
    802006dc:	fce8                	sd	a0,248(s1)
    802006de:	14048c13          	addi	s8,s1,320
    802006e2:	4541                	li	a0,16
    802006e4:	4591                	li	a1,4
    802006e6:	00003097          	auipc	ra,0x3
    802006ea:	c3c080e7          	jalr	-964(ra) # 80203322 <__rust_alloc>
    802006ee:	00053023          	sd	zero,0(a0)
    802006f2:	00053423          	sd	zero,8(a0)
    802006f6:	14a4b023          	sd	a0,320(s1)
    802006fa:	4541                	li	a0,16
    802006fc:	4591                	li	a1,4
    802006fe:	00003097          	auipc	ra,0x3
    80200702:	c24080e7          	jalr	-988(ra) # 80203322 <__rust_alloc>
    80200706:	00053023          	sd	zero,0(a0)
    8020070a:	00053423          	sd	zero,8(a0)
    8020070e:	14a4b423          	sd	a0,328(s1)
    80200712:	189d3023          	sd	s1,384(s10)
    80200716:	195d3423          	sd	s5,392(s10)
    8020071a:	19bd3823          	sd	s11,400(s10)
    8020071e:	197d3c23          	sd	s7,408(s10)
    80200722:	1b8d3023          	sd	s8,416(s10)
    80200726:	4561                	li	a0,24
    80200728:	4591                	li	a1,4
    8020072a:	00003097          	auipc	ra,0x3
    8020072e:	bf8080e7          	jalr	-1032(ra) # 80203322 <__rust_alloc>
    80200732:	00053023          	sd	zero,0(a0)
    80200736:	00053423          	sd	zero,8(a0)
    8020073a:	00053823          	sd	zero,16(a0)
    8020073e:	10ad3c23          	sd	a0,280(s10)
    80200742:	100d0513          	addi	a0,s10,256
    80200746:	e7043583          	ld	a1,-400(s0)
    8020074a:	10bd3023          	sd	a1,256(s10)
    8020074e:	f4a43823          	sd	a0,-176(s0)

0000000080200752 <.LBB2_102>:
    80200752:	00006517          	auipc	a0,0x6
    80200756:	df450513          	addi	a0,a0,-524 # 80206546 <_ZN4core3fmt3num53_$LT$impl$u20$core..fmt..LowerHex$u20$for$u20$i64$GT$3fmt17hdf8f6c6faa92793eE>
    8020075a:	f4a43c23          	sd	a0,-168(s0)
    8020075e:	f9040513          	addi	a0,s0,-112
    80200762:	f4a43023          	sd	a0,-192(s0)

0000000080200766 <.LBB2_103>:
    80200766:	00009517          	auipc	a0,0x9
    8020076a:	8da50513          	addi	a0,a0,-1830 # 80209040 <.Lanon.c25a22bef176e972515b110aecca08c8.5>
    8020076e:	f6a43023          	sd	a0,-160(s0)
    80200772:	4485                	li	s1,1
    80200774:	f6943423          	sd	s1,-152(s0)

0000000080200778 <.LBB2_104>:
    80200778:	00009517          	auipc	a0,0x9
    8020077c:	8a850513          	addi	a0,a0,-1880 # 80209020 <.Lanon.c25a22bef176e972515b110aecca08c8.4>
    80200780:	f6a43823          	sd	a0,-144(s0)
    80200784:	4509                	li	a0,2
    80200786:	f6a43c23          	sd	a0,-136(s0)
    8020078a:	f5040513          	addi	a0,s0,-176
    8020078e:	f8a43023          	sd	a0,-128(s0)
    80200792:	f8943423          	sd	s1,-120(s0)

0000000080200796 <.LBB2_105>:
    80200796:	0000a597          	auipc	a1,0xa
    8020079a:	a2a58593          	addi	a1,a1,-1494 # 8020a1c0 <anon.f016384ff5f45e36efedd53711d4611b.0.llvm.493118147765580453>
    8020079e:	f4040513          	addi	a0,s0,-192
    802007a2:	f6040613          	addi	a2,s0,-160
    802007a6:	00004097          	auipc	ra,0x4
    802007aa:	56c080e7          	jalr	1388(ra) # 80204d12 <_ZN4core3fmt5write17h42fcd7b837de3f75E>
    802007ae:	48051f63          	bnez	a0,80200c4c <.LBB2_143>
    802007b2:	855a                	mv	a0,s6
    802007b4:	00002097          	auipc	ra,0x2
    802007b8:	2ac080e7          	jalr	684(ra) # 80202a60 <_ZN4sel46kernel6object10objecttype14cap_get_capPtr17h66df656170e7b0bcE>
    802007bc:	0a050513          	addi	a0,a0,160
    802007c0:	85e6                	mv	a1,s9
    802007c2:	00002097          	auipc	ra,0x2
    802007c6:	5e2080e7          	jalr	1506(ra) # 80202da4 <_ZN4sel46kernel6object10objecttype9deriveCap17hb126702027e5e8b7E>
    802007ca:	8caa                	mv	s9,a0
    802007cc:	855a                	mv	a0,s6
    802007ce:	00002097          	auipc	ra,0x2
    802007d2:	292080e7          	jalr	658(ra) # 80202a60 <_ZN4sel46kernel6object10objecttype14cap_get_capPtr17h66df656170e7b0bcE>
    802007d6:	000b3603          	ld	a2,0(s6)
    802007da:	180d3583          	ld	a1,384(s10)
    802007de:	e6043d83          	ld	s11,-416(s0)
    802007e2:	01b67633          	and	a2,a2,s11
    802007e6:	14f6                	slli	s1,s1,0x3d
    802007e8:	e6843c03          	ld	s8,-408(s0)
    802007ec:	ed843a83          	ld	s5,-296(s0)
    802007f0:	00961863          	bne	a2,s1,80200800 <.LBB2_105+0x6a>
    802007f4:	7110                	ld	a2,32(a0)
    802007f6:	6210                	ld	a2,0(a2)
    802007f8:	01b67633          	and	a2,a2,s11
    802007fc:	36961263          	bne	a2,s1,80200b60 <.LBB2_130>
    80200800:	4601                	li	a2,0
    80200802:	0165b023          	sd	s6,0(a1)
    80200806:	0155f6b3          	and	a3,a1,s5
    8020080a:	f6040713          	addi	a4,s0,-160
    8020080e:	e598                	sd	a4,8(a1)
    80200810:	ed043b83          	ld	s7,-304(s0)
    80200814:	c299                	beqz	a3,8020081a <.LBB2_105+0x84>
    80200816:	567d                	li	a2,-1
    80200818:	161e                	slli	a2,a2,0x27
    8020081a:	0185f6b3          	and	a3,a1,s8
    8020081e:	30c69963          	bne	a3,a2,80200b30 <.LBB2_126>
    80200822:	7508                	ld	a0,40(a0)
    80200824:	0185e633          	or	a2,a1,s8
    80200828:	e510                	sd	a2,8(a0)
    8020082a:	f6843603          	ld	a2,-152(s0)
    8020082e:	01767533          	and	a0,a2,s7
    80200832:	c909                	beqz	a0,80200844 <.LBB2_105+0xae>
    80200834:	01567633          	and	a2,a2,s5
    80200838:	c601                	beqz	a2,80200840 <.LBB2_105+0xaa>
    8020083a:	eb043603          	ld	a2,-336(s0)
    8020083e:	8d51                	or	a0,a0,a2
    80200840:	6508                	ld	a0,8(a0)
    80200842:	e10c                	sd	a1,0(a0)
    80200844:	855a                	mv	a0,s6
    80200846:	00002097          	auipc	ra,0x2
    8020084a:	21a080e7          	jalr	538(ra) # 80202a60 <_ZN4sel46kernel6object10objecttype14cap_get_capPtr17h66df656170e7b0bcE>
    8020084e:	ee043583          	ld	a1,-288(s0)
    80200852:	6190                	ld	a2,0(a1)
    80200854:	188d3583          	ld	a1,392(s10)
    80200858:	01b67633          	and	a2,a2,s11
    8020085c:	00961863          	bne	a2,s1,8020086c <.LBB2_105+0xd6>
    80200860:	7910                	ld	a2,48(a0)
    80200862:	6210                	ld	a2,0(a2)
    80200864:	01b67633          	and	a2,a2,s11
    80200868:	2e961c63          	bne	a2,s1,80200b60 <.LBB2_130>
    8020086c:	4601                	li	a2,0
    8020086e:	ee043683          	ld	a3,-288(s0)
    80200872:	e194                	sd	a3,0(a1)
    80200874:	0155f6b3          	and	a3,a1,s5
    80200878:	f6040713          	addi	a4,s0,-160
    8020087c:	e598                	sd	a4,8(a1)
    8020087e:	c299                	beqz	a3,80200884 <.LBB2_105+0xee>
    80200880:	567d                	li	a2,-1
    80200882:	161e                	slli	a2,a2,0x27
    80200884:	0185f6b3          	and	a3,a1,s8
    80200888:	2ac69463          	bne	a3,a2,80200b30 <.LBB2_126>
    8020088c:	7d08                	ld	a0,56(a0)
    8020088e:	0185e633          	or	a2,a1,s8
    80200892:	e510                	sd	a2,8(a0)
    80200894:	f6843603          	ld	a2,-152(s0)
    80200898:	01767533          	and	a0,a2,s7
    8020089c:	c909                	beqz	a0,802008ae <.LBB2_105+0x118>
    8020089e:	01567633          	and	a2,a2,s5
    802008a2:	c601                	beqz	a2,802008aa <.LBB2_105+0x114>
    802008a4:	eb043603          	ld	a2,-336(s0)
    802008a8:	8d51                	or	a0,a0,a2
    802008aa:	6508                	ld	a0,8(a0)
    802008ac:	e10c                	sd	a1,0(a0)
    802008ae:	855a                	mv	a0,s6
    802008b0:	00002097          	auipc	ra,0x2
    802008b4:	1b0080e7          	jalr	432(ra) # 80202a60 <_ZN4sel46kernel6object10objecttype14cap_get_capPtr17h66df656170e7b0bcE>
    802008b8:	000cb603          	ld	a2,0(s9)
    802008bc:	1a0d3583          	ld	a1,416(s10)
    802008c0:	01b67633          	and	a2,a2,s11
    802008c4:	00961863          	bne	a2,s1,802008d4 <.LBB2_105+0x13e>
    802008c8:	7150                	ld	a2,160(a0)
    802008ca:	6210                	ld	a2,0(a2)
    802008cc:	01b67633          	and	a2,a2,s11
    802008d0:	28961863          	bne	a2,s1,80200b60 <.LBB2_130>
    802008d4:	4601                	li	a2,0
    802008d6:	0195b023          	sd	s9,0(a1)
    802008da:	0155f6b3          	and	a3,a1,s5
    802008de:	f6040713          	addi	a4,s0,-160
    802008e2:	e598                	sd	a4,8(a1)
    802008e4:	c299                	beqz	a3,802008ea <.LBB2_105+0x154>
    802008e6:	567d                	li	a2,-1
    802008e8:	161e                	slli	a2,a2,0x27
    802008ea:	0185f6b3          	and	a3,a1,s8
    802008ee:	24c69163          	bne	a3,a2,80200b30 <.LBB2_126>
    802008f2:	7548                	ld	a0,168(a0)
    802008f4:	0185e633          	or	a2,a1,s8
    802008f8:	e510                	sd	a2,8(a0)
    802008fa:	f6843603          	ld	a2,-152(s0)
    802008fe:	01767533          	and	a0,a2,s7
    80200902:	c909                	beqz	a0,80200914 <.LBB2_105+0x17e>
    80200904:	01567633          	and	a2,a2,s5
    80200908:	c601                	beqz	a2,80200910 <.LBB2_105+0x17a>
    8020090a:	eb043603          	ld	a2,-336(s0)
    8020090e:	8d51                	or	a0,a0,a2
    80200910:	6508                	ld	a0,8(a0)
    80200912:	e10c                	sd	a1,0(a0)
    80200914:	ec043503          	ld	a0,-320(s0)
    80200918:	14ad3c23          	sd	a0,344(s10)
    8020091c:	0ff00593          	li	a1,255
    80200920:	14bd3023          	sd	a1,320(s10)
    80200924:	118d3503          	ld	a0,280(s10)
    80200928:	12bd3c23          	sd	a1,312(s10)
    8020092c:	120d3823          	sd	zero,304(s10)
    80200930:	ec843583          	ld	a1,-312(s0)
    80200934:	10bd3823          	sd	a1,272(s10)
    80200938:	610c                	ld	a1,0(a0)
    8020093a:	99c1                	andi	a1,a1,-16
    8020093c:	0015e593          	ori	a1,a1,1
    80200940:	e10c                	sd	a1,0(a0)

0000000080200942 <.LBB2_106>:
    80200942:	00007a97          	auipc	s5,0x7
    80200946:	a86a8a93          	addi	s5,s5,-1402 # 802073c8 <_ZN4sel46kernel6thread11ksCurThread17h5a674989a535a6f6E>
    8020094a:	000ab583          	ld	a1,0(s5)

000000008020094e <.LBB2_107>:
    8020094e:	00007517          	auipc	a0,0x7
    80200952:	a8250513          	addi	a0,a0,-1406 # 802073d0 <_ZN4sel46kernel6thread17ksSchedulerAction17h664402f21141ba94E.0.llvm.3040598260654478667>
    80200956:	00050603          	lb	a2,0(a0)
    8020095a:	01a5c5b3          	xor	a1,a1,s10
    8020095e:	0015b593          	seqz	a1,a1
    80200962:	00164613          	xori	a2,a2,1
    80200966:	8df1                	and	a1,a1,a2
    80200968:	cd81                	beqz	a1,80200980 <.LBB2_108>
    8020096a:	118d3583          	ld	a1,280(s10)
    8020096e:	618c                	ld	a1,0(a1)
    80200970:	89bd                	andi	a1,a1,15
    80200972:	15f5                	addi	a1,a1,-3
    80200974:	5675                	li	a2,-3
    80200976:	00b66563          	bltu	a2,a1,80200980 <.LBB2_108>
    8020097a:	4585                	li	a1,1
    8020097c:	00b50023          	sb	a1,0(a0)

0000000080200980 <.LBB2_108>:
    80200980:	00007517          	auipc	a0,0x7
    80200984:	a4050513          	addi	a0,a0,-1472 # 802073c0 <_ZN4sel46kernel6thread11ksCurDomain17hefcee3b518ffe650E>
    80200988:	00053023          	sd	zero,0(a0)
    8020098c:	4541                	li	a0,16
    8020098e:	4591                	li	a1,4
    80200990:	00003097          	auipc	ra,0x3
    80200994:	992080e7          	jalr	-1646(ra) # 80203322 <__rust_alloc>
    80200998:	84aa                	mv	s1,a0
    8020099a:	017d7533          	and	a0,s10,s7
    8020099e:	e5843583          	ld	a1,-424(s0)
    802009a2:	8d4d                	or	a0,a0,a1
    802009a4:	e088                	sd	a0,0(s1)
    802009a6:	0004b423          	sd	zero,8(s1)
    802009aa:	855a                	mv	a0,s6
    802009ac:	00002097          	auipc	ra,0x2
    802009b0:	0b4080e7          	jalr	180(ra) # 80202a60 <_ZN4sel46kernel6object10objecttype14cap_get_capPtr17h66df656170e7b0bcE>
    802009b4:	e904                	sd	s1,16(a0)
    802009b6:	f6040593          	addi	a1,s0,-160
    802009ba:	ed0c                	sd	a1,24(a0)
    802009bc:	1a8d3583          	ld	a1,424(s10)
    802009c0:	f4058f63          	beqz	a1,8020011e <.LBB2_100+0xb8>
    802009c4:	1b0d3503          	ld	a0,432(s10)
    802009c8:	4605                	li	a2,1
    802009ca:	00003097          	auipc	ra,0x3
    802009ce:	960080e7          	jalr	-1696(ra) # 8020332a <__rust_dealloc>
    802009d2:	f4cff06f          	j	8020011e <.LBB2_100+0xb8>
    802009d6:	70fa                	ld	ra,440(sp)
    802009d8:	745a                	ld	s0,432(sp)
    802009da:	74ba                	ld	s1,424(sp)
    802009dc:	791a                	ld	s2,416(sp)
    802009de:	69fa                	ld	s3,408(sp)
    802009e0:	6a5a                	ld	s4,400(sp)
    802009e2:	6aba                	ld	s5,392(sp)
    802009e4:	6b1a                	ld	s6,384(sp)
    802009e6:	7bf6                	ld	s7,376(sp)
    802009e8:	7c56                	ld	s8,368(sp)
    802009ea:	7cb6                	ld	s9,360(sp)
    802009ec:	7d16                	ld	s10,352(sp)
    802009ee:	6df6                	ld	s11,344(sp)
    802009f0:	6139                	addi	sp,sp,448
    802009f2:	8082                	ret

00000000802009f4 <.LBB2_109>:
    802009f4:	00009617          	auipc	a2,0x9
    802009f8:	69c60613          	addi	a2,a2,1692 # 8020a090 <anon.74195d8e98de57e0ff4db1d6372c83b3.7.llvm.13570960477992927082>
    802009fc:	855e                	mv	a0,s7
    802009fe:	00004097          	auipc	ra,0x4
    80200a02:	a44080e7          	jalr	-1468(ra) # 80204442 <_ZN4core9panicking18panic_bounds_check17h03ed6527cd415bf9E>
	...

0000000080200a08 <.LBB2_110>:
    80200a08:	00009617          	auipc	a2,0x9
    80200a0c:	6a060613          	addi	a2,a2,1696 # 8020a0a8 <anon.74195d8e98de57e0ff4db1d6372c83b3.8.llvm.13570960477992927082>
    80200a10:	8556                	mv	a0,s5
    80200a12:	00004097          	auipc	ra,0x4
    80200a16:	a30080e7          	jalr	-1488(ra) # 80204442 <_ZN4core9panicking18panic_bounds_check17h03ed6527cd415bf9E>
	...

0000000080200a1c <.LBB2_111>:
    80200a1c:	00009617          	auipc	a2,0x9
    80200a20:	62c60613          	addi	a2,a2,1580 # 8020a048 <anon.74195d8e98de57e0ff4db1d6372c83b3.4.llvm.13570960477992927082>
    80200a24:	855e                	mv	a0,s7
    80200a26:	00004097          	auipc	ra,0x4
    80200a2a:	a1c080e7          	jalr	-1508(ra) # 80204442 <_ZN4core9panicking18panic_bounds_check17h03ed6527cd415bf9E>
	...

0000000080200a30 <.LBB2_112>:
    80200a30:	00009617          	auipc	a2,0x9
    80200a34:	63060613          	addi	a2,a2,1584 # 8020a060 <anon.74195d8e98de57e0ff4db1d6372c83b3.5.llvm.13570960477992927082>
    80200a38:	8526                	mv	a0,s1
    80200a3a:	00004097          	auipc	ra,0x4
    80200a3e:	a08080e7          	jalr	-1528(ra) # 80204442 <_ZN4core9panicking18panic_bounds_check17h03ed6527cd415bf9E>
	...

0000000080200a44 <.LBB2_113>:
    80200a44:	00009617          	auipc	a2,0x9
    80200a48:	66460613          	addi	a2,a2,1636 # 8020a0a8 <anon.74195d8e98de57e0ff4db1d6372c83b3.8.llvm.13570960477992927082>
    80200a4c:	ee843503          	ld	a0,-280(s0)
    80200a50:	00004097          	auipc	ra,0x4
    80200a54:	9f2080e7          	jalr	-1550(ra) # 80204442 <_ZN4core9panicking18panic_bounds_check17h03ed6527cd415bf9E>
    80200a58:	0000                	unimp
    80200a5a:	f6843503          	ld	a0,-152(s0)
    80200a5e:	f7043583          	ld	a1,-144(s0)
    80200a62:	f4a43823          	sd	a0,-176(s0)
    80200a66:	f4b43c23          	sd	a1,-168(s0)

0000000080200a6a <.LBB2_114>:
    80200a6a:	00008517          	auipc	a0,0x8
    80200a6e:	61a50513          	addi	a0,a0,1562 # 80209084 <.Lanon.c25a22bef176e972515b110aecca08c8.9>

0000000080200a72 <.LBB2_115>:
    80200a72:	00008697          	auipc	a3,0x8
    80200a76:	63e68693          	addi	a3,a3,1598 # 802090b0 <.Lanon.c25a22bef176e972515b110aecca08c8.10>

0000000080200a7a <.LBB2_116>:
    80200a7a:	00008717          	auipc	a4,0x8
    80200a7e:	6c670713          	addi	a4,a4,1734 # 80209140 <.Lanon.c25a22bef176e972515b110aecca08c8.16>
    80200a82:	a02d                	j	80200aac <.LBB2_119+0x8>
    80200a84:	f6843503          	ld	a0,-152(s0)
    80200a88:	f7043583          	ld	a1,-144(s0)
    80200a8c:	f4a43823          	sd	a0,-176(s0)
    80200a90:	f4b43c23          	sd	a1,-168(s0)

0000000080200a94 <.LBB2_117>:
    80200a94:	00008517          	auipc	a0,0x8
    80200a98:	5f050513          	addi	a0,a0,1520 # 80209084 <.Lanon.c25a22bef176e972515b110aecca08c8.9>

0000000080200a9c <.LBB2_118>:
    80200a9c:	00008697          	auipc	a3,0x8
    80200aa0:	61468693          	addi	a3,a3,1556 # 802090b0 <.Lanon.c25a22bef176e972515b110aecca08c8.10>

0000000080200aa4 <.LBB2_119>:
    80200aa4:	00008717          	auipc	a4,0x8
    80200aa8:	6b470713          	addi	a4,a4,1716 # 80209158 <.Lanon.c25a22bef176e972515b110aecca08c8.17>
    80200aac:	02b00593          	li	a1,43
    80200ab0:	f5040613          	addi	a2,s0,-176
    80200ab4:	00004097          	auipc	ra,0x4
    80200ab8:	aba080e7          	jalr	-1350(ra) # 8020456e <_ZN4core6result13unwrap_failed17h93c501911315d321E>
	...

0000000080200abe <.LBB2_120>:
    80200abe:	00008517          	auipc	a0,0x8
    80200ac2:	6ca50513          	addi	a0,a0,1738 # 80209188 <.Lanon.c25a22bef176e972515b110aecca08c8.19>
    80200ac6:	f6a43823          	sd	a0,-144(s0)
    80200aca:	4505                	li	a0,1
    80200acc:	f6a43c23          	sd	a0,-136(s0)
    80200ad0:	f6043023          	sd	zero,-160(s0)

0000000080200ad4 <.LBB2_121>:
    80200ad4:	00008517          	auipc	a0,0x8
    80200ad8:	52c50513          	addi	a0,a0,1324 # 80209000 <.Lanon.c25a22bef176e972515b110aecca08c8.1>
    80200adc:	f8a43023          	sd	a0,-128(s0)
    80200ae0:	f8043423          	sd	zero,-120(s0)

0000000080200ae4 <.LBB2_122>:
    80200ae4:	00008597          	auipc	a1,0x8
    80200ae8:	6b458593          	addi	a1,a1,1716 # 80209198 <.Lanon.c25a22bef176e972515b110aecca08c8.20>
    80200aec:	f6040513          	addi	a0,s0,-160
    80200af0:	00004097          	auipc	ra,0x4
    80200af4:	8b0080e7          	jalr	-1872(ra) # 802043a0 <_ZN4core9panicking9panic_fmt17h09608ae52bd0d3adE>
    80200af8:	0000                	unimp
    80200afa:	f5843583          	ld	a1,-168(s0)
    80200afe:	f6a43023          	sd	a0,-160(s0)
    80200b02:	f6b43423          	sd	a1,-152(s0)

0000000080200b06 <.LBB2_123>:
    80200b06:	00008517          	auipc	a0,0x8
    80200b0a:	57e50513          	addi	a0,a0,1406 # 80209084 <.Lanon.c25a22bef176e972515b110aecca08c8.9>

0000000080200b0e <.LBB2_124>:
    80200b0e:	00008697          	auipc	a3,0x8
    80200b12:	5a268693          	addi	a3,a3,1442 # 802090b0 <.Lanon.c25a22bef176e972515b110aecca08c8.10>

0000000080200b16 <.LBB2_125>:
    80200b16:	00008717          	auipc	a4,0x8
    80200b1a:	69a70713          	addi	a4,a4,1690 # 802091b0 <.Lanon.c25a22bef176e972515b110aecca08c8.21>
    80200b1e:	02b00593          	li	a1,43
    80200b22:	f6040613          	addi	a2,s0,-160
    80200b26:	00004097          	auipc	ra,0x4
    80200b2a:	a48080e7          	jalr	-1464(ra) # 8020456e <_ZN4core6result13unwrap_failed17h93c501911315d321E>
	...

0000000080200b30 <.LBB2_126>:
    80200b30:	00009517          	auipc	a0,0x9
    80200b34:	12850513          	addi	a0,a0,296 # 80209c58 <anon.5f56f778d7ecc1cad02f62e2432e947c.0.llvm.16542580803174535731>

0000000080200b38 <.LBB2_127>:
    80200b38:	00009617          	auipc	a2,0x9
    80200b3c:	1e060613          	addi	a2,a2,480 # 80209d18 <anon.5f56f778d7ecc1cad02f62e2432e947c.2.llvm.16542580803174535731>
    80200b40:	09d00593          	li	a1,157
    80200b44:	00004097          	auipc	ra,0x4
    80200b48:	88a080e7          	jalr	-1910(ra) # 802043ce <_ZN4core9panicking5panic17h968d2b6b541ffadfE>
	...

0000000080200b4e <.LBB2_128>:
    80200b4e:	00009517          	auipc	a0,0x9
    80200b52:	4ba50513          	addi	a0,a0,1210 # 8020a008 <anon.74195d8e98de57e0ff4db1d6372c83b3.1.llvm.13570960477992927082>

0000000080200b56 <.LBB2_129>:
    80200b56:	00009617          	auipc	a2,0x9
    80200b5a:	52260613          	addi	a2,a2,1314 # 8020a078 <anon.74195d8e98de57e0ff4db1d6372c83b3.6.llvm.13570960477992927082>
    80200b5e:	a805                	j	80200b8e <.LBB2_133+0x8>

0000000080200b60 <.LBB2_130>:
    80200b60:	00009517          	auipc	a0,0x9
    80200b64:	39850513          	addi	a0,a0,920 # 80209ef8 <anon.218a0abc0ebddb333064923e077d4264.4.llvm.4306433433188476395>

0000000080200b68 <.LBB2_131>:
    80200b68:	00009617          	auipc	a2,0x9
    80200b6c:	3e860613          	addi	a2,a2,1000 # 80209f50 <anon.218a0abc0ebddb333064923e077d4264.5.llvm.4306433433188476395>
    80200b70:	05700593          	li	a1,87
    80200b74:	00004097          	auipc	ra,0x4
    80200b78:	85a080e7          	jalr	-1958(ra) # 802043ce <_ZN4core9panicking5panic17h968d2b6b541ffadfE>
	...

0000000080200b7e <.LBB2_132>:
    80200b7e:	00009517          	auipc	a0,0x9
    80200b82:	48a50513          	addi	a0,a0,1162 # 8020a008 <anon.74195d8e98de57e0ff4db1d6372c83b3.1.llvm.13570960477992927082>

0000000080200b86 <.LBB2_133>:
    80200b86:	00009617          	auipc	a2,0x9
    80200b8a:	4aa60613          	addi	a2,a2,1194 # 8020a030 <anon.74195d8e98de57e0ff4db1d6372c83b3.3.llvm.13570960477992927082>
    80200b8e:	02200593          	li	a1,34
    80200b92:	00004097          	auipc	ra,0x4
    80200b96:	83c080e7          	jalr	-1988(ra) # 802043ce <_ZN4core9panicking5panic17h968d2b6b541ffadfE>
    80200b9a:	0000                	unimp
    80200b9c:	f6043503          	ld	a0,-160(s0)
    80200ba0:	f6843583          	ld	a1,-152(s0)
    80200ba4:	f2a43023          	sd	a0,-224(s0)
    80200ba8:	f2b43423          	sd	a1,-216(s0)

0000000080200bac <.LBB2_134>:
    80200bac:	00008517          	auipc	a0,0x8
    80200bb0:	4d850513          	addi	a0,a0,1240 # 80209084 <.Lanon.c25a22bef176e972515b110aecca08c8.9>

0000000080200bb4 <.LBB2_135>:
    80200bb4:	00008697          	auipc	a3,0x8
    80200bb8:	4fc68693          	addi	a3,a3,1276 # 802090b0 <.Lanon.c25a22bef176e972515b110aecca08c8.10>

0000000080200bbc <.LBB2_136>:
    80200bbc:	00008717          	auipc	a4,0x8
    80200bc0:	51470713          	addi	a4,a4,1300 # 802090d0 <.Lanon.c25a22bef176e972515b110aecca08c8.11>
    80200bc4:	02b00593          	li	a1,43
    80200bc8:	f2040613          	addi	a2,s0,-224
    80200bcc:	00004097          	auipc	ra,0x4
    80200bd0:	9a2080e7          	jalr	-1630(ra) # 8020456e <_ZN4core6result13unwrap_failed17h93c501911315d321E>
    80200bd4:	0000                	unimp
    80200bd6:	f6043023          	sd	zero,-160(s0)

0000000080200bda <.LBB2_137>:
    80200bda:	00008517          	auipc	a0,0x8
    80200bde:	53e50513          	addi	a0,a0,1342 # 80209118 <.Lanon.c25a22bef176e972515b110aecca08c8.14>
    80200be2:	f6a43823          	sd	a0,-144(s0)
    80200be6:	4505                	li	a0,1
    80200be8:	f6a43c23          	sd	a0,-136(s0)

0000000080200bec <.LBB2_138>:
    80200bec:	00008517          	auipc	a0,0x8
    80200bf0:	41450513          	addi	a0,a0,1044 # 80209000 <.Lanon.c25a22bef176e972515b110aecca08c8.1>
    80200bf4:	f8a43023          	sd	a0,-128(s0)
    80200bf8:	f8043423          	sd	zero,-120(s0)

0000000080200bfc <.LBB2_139>:
    80200bfc:	00008617          	auipc	a2,0x8
    80200c00:	4f860613          	addi	a2,a2,1272 # 802090f4 <.Lanon.c25a22bef176e972515b110aecca08c8.11+0x24>

0000000080200c04 <.LBB2_140>:
    80200c04:	00008717          	auipc	a4,0x8
    80200c08:	52470713          	addi	a4,a4,1316 # 80209128 <.Lanon.c25a22bef176e972515b110aecca08c8.15>
    80200c0c:	f3c40593          	addi	a1,s0,-196
    80200c10:	f6040693          	addi	a3,s0,-160
    80200c14:	4501                	li	a0,0
    80200c16:	00001097          	auipc	ra,0x1
    80200c1a:	e68080e7          	jalr	-408(ra) # 80201a7e <_ZN4core9panicking13assert_failed17h363cf3a0a9f46c14E>
	...

0000000080200c20 <.LBB2_141>:
    80200c20:	00008517          	auipc	a0,0x8
    80200c24:	5c750513          	addi	a0,a0,1479 # 802091e7 <.Lanon.c25a22bef176e972515b110aecca08c8.23>

0000000080200c28 <.LBB2_142>:
    80200c28:	00008617          	auipc	a2,0x8
    80200c2c:	67060613          	addi	a2,a2,1648 # 80209298 <.Lanon.c25a22bef176e972515b110aecca08c8.24>
    80200c30:	0ad00593          	li	a1,173
    80200c34:	00003097          	auipc	ra,0x3
    80200c38:	79a080e7          	jalr	1946(ra) # 802043ce <_ZN4core9panicking5panic17h968d2b6b541ffadfE>
    80200c3c:	0000                	unimp
    80200c3e:	4531                	li	a0,12
    80200c40:	4585                	li	a1,1
    80200c42:	00003097          	auipc	ra,0x3
    80200c46:	584080e7          	jalr	1412(ra) # 802041c6 <_ZN5alloc5alloc18handle_alloc_error17h88ccbda11633eef3E>
	...

0000000080200c4c <.LBB2_143>:
    80200c4c:	00009517          	auipc	a0,0x9
    80200c50:	5a450513          	addi	a0,a0,1444 # 8020a1f0 <anon.f016384ff5f45e36efedd53711d4611b.1.llvm.493118147765580453>

0000000080200c54 <.LBB2_144>:
    80200c54:	00009697          	auipc	a3,0x9
    80200c58:	5cc68693          	addi	a3,a3,1484 # 8020a220 <anon.f016384ff5f45e36efedd53711d4611b.2.llvm.493118147765580453>

0000000080200c5c <.LBB2_145>:
    80200c5c:	00009717          	auipc	a4,0x9
    80200c60:	5f470713          	addi	a4,a4,1524 # 8020a250 <anon.f016384ff5f45e36efedd53711d4611b.4.llvm.493118147765580453>
    80200c64:	02b00593          	li	a1,43
    80200c68:	f9040613          	addi	a2,s0,-112
    80200c6c:	00004097          	auipc	ra,0x4
    80200c70:	902080e7          	jalr	-1790(ra) # 8020456e <_ZN4core6result13unwrap_failed17h93c501911315d321E>
	...

0000000080200c76 <_ZN4sel46kernel6vspace17map_kernel_window17h77fa3b31719dc57eE>:
    80200c76:	1141                	addi	sp,sp,-16
    80200c78:	e406                	sd	ra,8(sp)
    80200c7a:	e022                	sd	s0,0(sp)
    80200c7c:	0800                	addi	s0,sp,16

0000000080200c7e <.LBB2_5>:
    80200c7e:	00821817          	auipc	a6,0x821
    80200c82:	38280813          	addi	a6,a6,898 # 80a22000 <_ZN4sel46kernel6vspace21kernel_root_pageTable17h8e057a943ee21d1aE>
    80200c86:	7ff80893          	addi	a7,a6,2047
    80200c8a:	00188613          	addi	a2,a7,1
    80200c8e:	0ef00693          	li	a3,239
    80200c92:	eff00513          	li	a0,-257
    80200c96:	01e51713          	slli	a4,a0,0x1e
    80200c9a:	400007b7          	lui	a5,0x40000
    80200c9e:	10000537          	lui	a0,0x10000
    80200ca2:	55f5                	li	a1,-3
    80200ca4:	05fa                	slli	a1,a1,0x1e
    80200ca6:	e214                	sd	a3,0(a2)
    80200ca8:	973e                	add	a4,a4,a5
    80200caa:	0621                	addi	a2,a2,8
    80200cac:	96aa                	add	a3,a3,a0
    80200cae:	feb76ce3          	bltu	a4,a1,80200ca6 <.LBB2_5+0x28>

0000000080200cb2 <.LBB2_6>:
    80200cb2:	00822617          	auipc	a2,0x822
    80200cb6:	34e60613          	addi	a2,a2,846 # 80a23000 <_ZN4sel46kernel6vspace22kernel_image_level2_pt17h2d523b27565c3bc8E>
    80200cba:	00265513          	srli	a0,a2,0x2
    80200cbe:	fff005b7          	lui	a1,0xfff00
    80200cc2:	81a9                	srli	a1,a1,0xa
    80200cc4:	8d6d                	and	a0,a0,a1
    80200cc6:	02156513          	ori	a0,a0,33
    80200cca:	00a8b8a3          	sd	a0,17(a7)
    80200cce:	7ea8b8a3          	sd	a0,2033(a7)
    80200cd2:	00a83823          	sd	a0,16(a6)
    80200cd6:	bff00513          	li	a0,-1025
    80200cda:	0556                	slli	a0,a0,0x15
    80200cdc:	200005b7          	lui	a1,0x20000
    80200ce0:	0ef5859b          	addiw	a1,a1,239
    80200ce4:	002006b7          	lui	a3,0x200
    80200ce8:	00080737          	lui	a4,0x80
    80200cec:	bfe007b7          	lui	a5,0xbfe00
    80200cf0:	e20c                	sd	a1,0(a2)
    80200cf2:	9536                	add	a0,a0,a3
    80200cf4:	0621                	addi	a2,a2,8
    80200cf6:	95ba                	add	a1,a1,a4
    80200cf8:	fef56ce3          	bltu	a0,a5,80200cf0 <.LBB2_6+0x3e>
    80200cfc:	60a2                	ld	ra,8(sp)
    80200cfe:	6402                	ld	s0,0(sp)
    80200d00:	0141                	addi	sp,sp,16
    80200d02:	8082                	ret

0000000080200d04 <_ZN4sel46kernel6vspace22activate_kernel_vspace17h45e1e4c8e602d25cE>:
    80200d04:	7159                	addi	sp,sp,-112
    80200d06:	f486                	sd	ra,104(sp)
    80200d08:	f0a2                	sd	s0,96(sp)
    80200d0a:	eca6                	sd	s1,88(sp)
    80200d0c:	1880                	addi	s0,sp,112

0000000080200d0e <.LBB3_3>:
    80200d0e:	00821497          	auipc	s1,0x821
    80200d12:	2f248493          	addi	s1,s1,754 # 80a22000 <_ZN4sel46kernel6vspace21kernel_root_pageTable17h8e057a943ee21d1aE>
    80200d16:	f8943823          	sd	s1,-112(s0)
    80200d1a:	f9040513          	addi	a0,s0,-112
    80200d1e:	f8a43c23          	sd	a0,-104(s0)

0000000080200d22 <.LBB3_4>:
    80200d22:	00006517          	auipc	a0,0x6
    80200d26:	82450513          	addi	a0,a0,-2012 # 80206546 <_ZN4core3fmt3num53_$LT$impl$u20$core..fmt..LowerHex$u20$for$u20$i64$GT$3fmt17hdf8f6c6faa92793eE>
    80200d2a:	faa43023          	sd	a0,-96(s0)
    80200d2e:	fe040513          	addi	a0,s0,-32
    80200d32:	faa43423          	sd	a0,-88(s0)

0000000080200d36 <.LBB3_5>:
    80200d36:	00008517          	auipc	a0,0x8
    80200d3a:	5a250513          	addi	a0,a0,1442 # 802092d8 <.Lanon.443d6eca6e157e500f570593420615d3.3>
    80200d3e:	faa43823          	sd	a0,-80(s0)
    80200d42:	4505                	li	a0,1
    80200d44:	faa43c23          	sd	a0,-72(s0)

0000000080200d48 <.LBB3_6>:
    80200d48:	00008597          	auipc	a1,0x8
    80200d4c:	57058593          	addi	a1,a1,1392 # 802092b8 <.Lanon.443d6eca6e157e500f570593420615d3.2>
    80200d50:	fcb43023          	sd	a1,-64(s0)
    80200d54:	4589                	li	a1,2
    80200d56:	fcb43423          	sd	a1,-56(s0)
    80200d5a:	f9840593          	addi	a1,s0,-104
    80200d5e:	fcb43823          	sd	a1,-48(s0)
    80200d62:	fca43c23          	sd	a0,-40(s0)

0000000080200d66 <.LBB3_7>:
    80200d66:	00009597          	auipc	a1,0x9
    80200d6a:	45a58593          	addi	a1,a1,1114 # 8020a1c0 <anon.f016384ff5f45e36efedd53711d4611b.0.llvm.493118147765580453>
    80200d6e:	fa840513          	addi	a0,s0,-88
    80200d72:	fb040613          	addi	a2,s0,-80
    80200d76:	00004097          	auipc	ra,0x4
    80200d7a:	f9c080e7          	jalr	-100(ra) # 80204d12 <_ZN4core3fmt5write17h42fcd7b837de3f75E>
    80200d7e:	e105                	bnez	a0,80200d9e <.LBB3_8>
    80200d80:	00849513          	slli	a0,s1,0x8
    80200d84:	8151                	srli	a0,a0,0x14
    80200d86:	55fd                	li	a1,-1
    80200d88:	15fe                	slli	a1,a1,0x3f
    80200d8a:	8d4d                	or	a0,a0,a1
    80200d8c:	18051073          	csrw	satp,a0
    80200d90:	12000073          	sfence.vma
    80200d94:	70a6                	ld	ra,104(sp)
    80200d96:	7406                	ld	s0,96(sp)
    80200d98:	64e6                	ld	s1,88(sp)
    80200d9a:	6165                	addi	sp,sp,112
    80200d9c:	8082                	ret

0000000080200d9e <.LBB3_8>:
    80200d9e:	00009517          	auipc	a0,0x9
    80200da2:	45250513          	addi	a0,a0,1106 # 8020a1f0 <anon.f016384ff5f45e36efedd53711d4611b.1.llvm.493118147765580453>

0000000080200da6 <.LBB3_9>:
    80200da6:	00009697          	auipc	a3,0x9
    80200daa:	47a68693          	addi	a3,a3,1146 # 8020a220 <anon.f016384ff5f45e36efedd53711d4611b.2.llvm.493118147765580453>

0000000080200dae <.LBB3_10>:
    80200dae:	00009717          	auipc	a4,0x9
    80200db2:	4a270713          	addi	a4,a4,1186 # 8020a250 <anon.f016384ff5f45e36efedd53711d4611b.4.llvm.493118147765580453>
    80200db6:	02b00593          	li	a1,43
    80200dba:	fe040613          	addi	a2,s0,-32
    80200dbe:	00003097          	auipc	ra,0x3
    80200dc2:	7b0080e7          	jalr	1968(ra) # 8020456e <_ZN4core6result13unwrap_failed17h93c501911315d321E>
	...

0000000080200dc8 <_ZN4sel46kernel6vspace9setVMRoot17hf133a983aeb6f57eE>:
    80200dc8:	7119                	addi	sp,sp,-128
    80200dca:	fc86                	sd	ra,120(sp)
    80200dcc:	f8a2                	sd	s0,112(sp)
    80200dce:	f4a6                	sd	s1,104(sp)
    80200dd0:	f0ca                	sd	s2,96(sp)
    80200dd2:	0100                	addi	s0,sp,128
    80200dd4:	18853503          	ld	a0,392(a0)
    80200dd8:	6108                	ld	a0,0(a0)
    80200dda:	610c                	ld	a1,0(a0)
    80200ddc:	91ed                	srli	a1,a1,0x3b
    80200dde:	460d                	li	a2,3
    80200de0:	08c59a63          	bne	a1,a2,80200e74 <.LBB5_11>
    80200de4:	6504                	ld	s1,8(a0)
    80200de6:	01049513          	slli	a0,s1,0x10
    80200dea:	01955913          	srli	s2,a0,0x19
    80200dee:	f9243423          	sd	s2,-120(s0)
    80200df2:	f8840513          	addi	a0,s0,-120
    80200df6:	f8a43823          	sd	a0,-112(s0)

0000000080200dfa <.LBB5_7>:
    80200dfa:	00005517          	auipc	a0,0x5
    80200dfe:	74c50513          	addi	a0,a0,1868 # 80206546 <_ZN4core3fmt3num53_$LT$impl$u20$core..fmt..LowerHex$u20$for$u20$i64$GT$3fmt17hdf8f6c6faa92793eE>
    80200e02:	f8a43c23          	sd	a0,-104(s0)
    80200e06:	fd840513          	addi	a0,s0,-40
    80200e0a:	faa43023          	sd	a0,-96(s0)

0000000080200e0e <.LBB5_8>:
    80200e0e:	00008517          	auipc	a0,0x8
    80200e12:	4ca50513          	addi	a0,a0,1226 # 802092d8 <.Lanon.443d6eca6e157e500f570593420615d3.3>
    80200e16:	faa43423          	sd	a0,-88(s0)
    80200e1a:	4505                	li	a0,1
    80200e1c:	faa43823          	sd	a0,-80(s0)

0000000080200e20 <.LBB5_9>:
    80200e20:	00008597          	auipc	a1,0x8
    80200e24:	49858593          	addi	a1,a1,1176 # 802092b8 <.Lanon.443d6eca6e157e500f570593420615d3.2>
    80200e28:	fab43c23          	sd	a1,-72(s0)
    80200e2c:	4589                	li	a1,2
    80200e2e:	fcb43023          	sd	a1,-64(s0)
    80200e32:	f9040593          	addi	a1,s0,-112
    80200e36:	fcb43423          	sd	a1,-56(s0)
    80200e3a:	fca43823          	sd	a0,-48(s0)

0000000080200e3e <.LBB5_10>:
    80200e3e:	00009597          	auipc	a1,0x9
    80200e42:	38258593          	addi	a1,a1,898 # 8020a1c0 <anon.f016384ff5f45e36efedd53711d4611b.0.llvm.493118147765580453>
    80200e46:	fa040513          	addi	a0,s0,-96
    80200e4a:	fa840613          	addi	a2,s0,-88
    80200e4e:	00004097          	auipc	ra,0x4
    80200e52:	ec4080e7          	jalr	-316(ra) # 80204d12 <_ZN4core3fmt5write17h42fcd7b837de3f75E>
    80200e56:	e945                	bnez	a0,80200f06 <.LBB5_16>
    80200e58:	0304d513          	srli	a0,s1,0x30
    80200e5c:	1532                	slli	a0,a0,0x2c
    80200e5e:	00c95593          	srli	a1,s2,0xc
    80200e62:	8d4d                	or	a0,a0,a1
    80200e64:	55fd                	li	a1,-1
    80200e66:	15fe                	slli	a1,a1,0x3f
    80200e68:	8d4d                	or	a0,a0,a1
    80200e6a:	18051073          	csrw	satp,a0
    80200e6e:	12000073          	sfence.vma
    80200e72:	a061                	j	80200efa <.LBB5_15+0x2e>

0000000080200e74 <.LBB5_11>:
    80200e74:	00821497          	auipc	s1,0x821
    80200e78:	18c48493          	addi	s1,s1,396 # 80a22000 <_ZN4sel46kernel6vspace21kernel_root_pageTable17h8e057a943ee21d1aE>
    80200e7c:	f8943423          	sd	s1,-120(s0)
    80200e80:	f8840513          	addi	a0,s0,-120
    80200e84:	f8a43823          	sd	a0,-112(s0)

0000000080200e88 <.LBB5_12>:
    80200e88:	00005517          	auipc	a0,0x5
    80200e8c:	6be50513          	addi	a0,a0,1726 # 80206546 <_ZN4core3fmt3num53_$LT$impl$u20$core..fmt..LowerHex$u20$for$u20$i64$GT$3fmt17hdf8f6c6faa92793eE>
    80200e90:	f8a43c23          	sd	a0,-104(s0)
    80200e94:	fd840513          	addi	a0,s0,-40
    80200e98:	faa43023          	sd	a0,-96(s0)

0000000080200e9c <.LBB5_13>:
    80200e9c:	00008517          	auipc	a0,0x8
    80200ea0:	43c50513          	addi	a0,a0,1084 # 802092d8 <.Lanon.443d6eca6e157e500f570593420615d3.3>
    80200ea4:	faa43423          	sd	a0,-88(s0)
    80200ea8:	4505                	li	a0,1
    80200eaa:	faa43823          	sd	a0,-80(s0)

0000000080200eae <.LBB5_14>:
    80200eae:	00008597          	auipc	a1,0x8
    80200eb2:	40a58593          	addi	a1,a1,1034 # 802092b8 <.Lanon.443d6eca6e157e500f570593420615d3.2>
    80200eb6:	fab43c23          	sd	a1,-72(s0)
    80200eba:	4589                	li	a1,2
    80200ebc:	fcb43023          	sd	a1,-64(s0)
    80200ec0:	f9040593          	addi	a1,s0,-112
    80200ec4:	fcb43423          	sd	a1,-56(s0)
    80200ec8:	fca43823          	sd	a0,-48(s0)

0000000080200ecc <.LBB5_15>:
    80200ecc:	00009597          	auipc	a1,0x9
    80200ed0:	2f458593          	addi	a1,a1,756 # 8020a1c0 <anon.f016384ff5f45e36efedd53711d4611b.0.llvm.493118147765580453>
    80200ed4:	fa040513          	addi	a0,s0,-96
    80200ed8:	fa840613          	addi	a2,s0,-88
    80200edc:	00004097          	auipc	ra,0x4
    80200ee0:	e36080e7          	jalr	-458(ra) # 80204d12 <_ZN4core3fmt5write17h42fcd7b837de3f75E>
    80200ee4:	e10d                	bnez	a0,80200f06 <.LBB5_16>
    80200ee6:	00849513          	slli	a0,s1,0x8
    80200eea:	8151                	srli	a0,a0,0x14
    80200eec:	55fd                	li	a1,-1
    80200eee:	15fe                	slli	a1,a1,0x3f
    80200ef0:	8d4d                	or	a0,a0,a1
    80200ef2:	18051073          	csrw	satp,a0
    80200ef6:	12000073          	sfence.vma
    80200efa:	70e6                	ld	ra,120(sp)
    80200efc:	7446                	ld	s0,112(sp)
    80200efe:	74a6                	ld	s1,104(sp)
    80200f00:	7906                	ld	s2,96(sp)
    80200f02:	6109                	addi	sp,sp,128
    80200f04:	8082                	ret

0000000080200f06 <.LBB5_16>:
    80200f06:	00009517          	auipc	a0,0x9
    80200f0a:	2ea50513          	addi	a0,a0,746 # 8020a1f0 <anon.f016384ff5f45e36efedd53711d4611b.1.llvm.493118147765580453>

0000000080200f0e <.LBB5_17>:
    80200f0e:	00009697          	auipc	a3,0x9
    80200f12:	31268693          	addi	a3,a3,786 # 8020a220 <anon.f016384ff5f45e36efedd53711d4611b.2.llvm.493118147765580453>

0000000080200f16 <.LBB5_18>:
    80200f16:	00009717          	auipc	a4,0x9
    80200f1a:	33a70713          	addi	a4,a4,826 # 8020a250 <anon.f016384ff5f45e36efedd53711d4611b.4.llvm.493118147765580453>
    80200f1e:	02b00593          	li	a1,43
    80200f22:	fd840613          	addi	a2,s0,-40
    80200f26:	00003097          	auipc	ra,0x3
    80200f2a:	648080e7          	jalr	1608(ra) # 8020456e <_ZN4core6result13unwrap_failed17h93c501911315d321E>
	...

0000000080200f30 <_ZN4sel46kernel6vspace28create_address_space_alloced17h4b845634d43c88ffE>:
    80200f30:	7155                	addi	sp,sp,-208
    80200f32:	e586                	sd	ra,200(sp)
    80200f34:	e1a2                	sd	s0,192(sp)
    80200f36:	fd26                	sd	s1,184(sp)
    80200f38:	f94a                	sd	s2,176(sp)
    80200f3a:	f54e                	sd	s3,168(sp)
    80200f3c:	f152                	sd	s4,160(sp)
    80200f3e:	ed56                	sd	s5,152(sp)
    80200f40:	e95a                	sd	s6,144(sp)
    80200f42:	e55e                	sd	s7,136(sp)
    80200f44:	e162                	sd	s8,128(sp)
    80200f46:	fce6                	sd	s9,120(sp)
    80200f48:	f8ea                	sd	s10,112(sp)
    80200f4a:	f4ee                	sd	s11,104(sp)
    80200f4c:	0980                	addi	s0,sp,208
    80200f4e:	8942                	mv	s2,a6
    80200f50:	f4f43823          	sd	a5,-176(s0)
    80200f54:	f4e43423          	sd	a4,-184(s0)
    80200f58:	f8d43023          	sd	a3,-128(s0)
    80200f5c:	f6c43023          	sd	a2,-160(s0)
    80200f60:	f6b43823          	sd	a1,-144(s0)
    80200f64:	8caa                	mv	s9,a0

0000000080200f66 <.LBB7_21>:
    80200f66:	00821517          	auipc	a0,0x821
    80200f6a:	09a50513          	addi	a0,a0,154 # 80a22000 <_ZN4sel46kernel6vspace21kernel_root_pageTable17h8e057a943ee21d1aE>
    80200f6e:	0541                	addi	a0,a0,16
    80200f70:	01080593          	addi	a1,a6,16
    80200f74:	1fe00613          	li	a2,510
    80200f78:	6114                	ld	a3,0(a0)
    80200f7a:	e194                	sd	a3,0(a1)
    80200f7c:	05a1                	addi	a1,a1,8
    80200f7e:	167d                	addi	a2,a2,-1
    80200f80:	0521                	addi	a0,a0,8
    80200f82:	fa7d                	bnez	a2,80200f78 <.LBB7_21+0x12>
    80200f84:	00300537          	lui	a0,0x300
    80200f88:	2505                	addiw	a0,a0,1
    80200f8a:	02751993          	slli	s3,a0,0x27
    80200f8e:	fff00537          	lui	a0,0xfff00
    80200f92:	00855b13          	srli	s6,a0,0x8
    80200f96:	00a55a93          	srli	s5,a0,0xa
    80200f9a:	fe000537          	lui	a0,0xfe000
    80200f9e:	01055493          	srli	s1,a0,0x10
    80200fa2:	6505                	lui	a0,0x1
    80200fa4:	ff850a1b          	addiw	s4,a0,-8
    80200fa8:	4541                	li	a0,16
    80200faa:	4591                	li	a1,4
    80200fac:	00002097          	auipc	ra,0x2
    80200fb0:	376080e7          	jalr	886(ra) # 80203322 <__rust_alloc>
    80200fb4:	01991593          	slli	a1,s2,0x19
    80200fb8:	81e5                	srli	a1,a1,0x19
    80200fba:	f7343423          	sd	s3,-152(s0)
    80200fbe:	0135e633          	or	a2,a1,s3
    80200fc2:	f5243c23          	sd	s2,-168(s0)
    80200fc6:	00991593          	slli	a1,s2,0x9
    80200fca:	f4943023          	sd	s1,-192(s0)
    80200fce:	f2b43c23          	sd	a1,-200(s0)
    80200fd2:	8de5                	and	a1,a1,s1
    80200fd4:	e110                	sd	a2,0(a0)
    80200fd6:	e50c                	sd	a1,8(a0)
    80200fd8:	f6a43c23          	sd	a0,-136(s0)
    80200fdc:	02acb823          	sd	a0,48(s9)
    80200fe0:	f8840513          	addi	a0,s0,-120
    80200fe4:	02acbc23          	sd	a0,56(s9)
    80200fe8:	c0000537          	lui	a0,0xc0000
    80200fec:	f6043583          	ld	a1,-160(s0)
    80200ff0:	00a5fbb3          	and	s7,a1,a0
    80200ff4:	02200993          	li	s3,34
    80200ff8:	f8043503          	ld	a0,-128(s0)
    80200ffc:	0eabf163          	bgeu	s7,a0,802010de <.LBB7_21+0x178>
    80201000:	00200537          	lui	a0,0x200
    80201004:	f3843583          	ld	a1,-200(s0)
    80201008:	952e                	add	a0,a0,a1
    8020100a:	f4043583          	ld	a1,-192(s0)
    8020100e:	00b57933          	and	s2,a0,a1
    80201012:	02200993          	li	s3,34
    80201016:	1ff00513          	li	a0,511
    8020101a:	01e51c13          	slli	s8,a0,0x1e
    8020101e:	a80d                	j	80201050 <.LBB7_21+0xea>
    80201020:	00499613          	slli	a2,s3,0x4
    80201024:	9666                	add	a2,a2,s9
    80201026:	8109                	srli	a0,a0,0x2
    80201028:	01557533          	and	a0,a0,s5
    8020102c:	00156513          	ori	a0,a0,1
    80201030:	e188                	sd	a0,0(a1)
    80201032:	12000073          	sfence.vma
    80201036:	01a63023          	sd	s10,0(a2)
    8020103a:	f8840513          	addi	a0,s0,-120
    8020103e:	e608                	sd	a0,8(a2)
    80201040:	40000537          	lui	a0,0x40000
    80201044:	9baa                	add	s7,s7,a0
    80201046:	0985                	addi	s3,s3,1
    80201048:	f8043503          	ld	a0,-128(s0)
    8020104c:	08abf963          	bgeu	s7,a0,802010de <.LBB7_21+0x178>
    80201050:	f7043503          	ld	a0,-144(s0)
    80201054:	00002097          	auipc	ra,0x2
    80201058:	a0c080e7          	jalr	-1524(ra) # 80202a60 <_ZN4sel46kernel6object10objecttype14cap_get_capPtr17h66df656170e7b0bcE>
    8020105c:	8caa                	mv	s9,a0
    8020105e:	4541                	li	a0,16
    80201060:	4591                	li	a1,4
    80201062:	00002097          	auipc	ra,0x2
    80201066:	2c0080e7          	jalr	704(ra) # 80203322 <__rust_alloc>
    8020106a:	8d2a                	mv	s10,a0
    8020106c:	018bf4b3          	and	s1,s7,s8
    80201070:	f6843503          	ld	a0,-152(s0)
    80201074:	8d45                	or	a0,a0,s1
    80201076:	00ad3023          	sd	a0,0(s10)
    8020107a:	012d3423          	sd	s2,8(s10)
    8020107e:	f7843503          	ld	a0,-136(s0)
    80201082:	00002097          	auipc	ra,0x2
    80201086:	9de080e7          	jalr	-1570(ra) # 80202a60 <_ZN4sel46kernel6object10objecttype14cap_get_capPtr17h66df656170e7b0bcE>
    8020108a:	8daa                	mv	s11,a0
    8020108c:	856a                	mv	a0,s10
    8020108e:	00002097          	auipc	ra,0x2
    80201092:	9d2080e7          	jalr	-1582(ra) # 80202a60 <_ZN4sel46kernel6object10objecttype14cap_get_capPtr17h66df656170e7b0bcE>
    80201096:	01bbd593          	srli	a1,s7,0x1b
    8020109a:	0145f5b3          	and	a1,a1,s4
    8020109e:	95ee                	add	a1,a1,s11
    802010a0:	6194                	ld	a3,0(a1)
    802010a2:	00f6f613          	andi	a2,a3,15
    802010a6:	4705                	li	a4,1
    802010a8:	f6e61ce3          	bne	a2,a4,80201020 <.LBB7_21+0xba>
    802010ac:	4655                	li	a2,21
    802010ae:	00269593          	slli	a1,a3,0x2
    802010b2:	0165f5b3          	and	a1,a1,s6
    802010b6:	00c4d6b3          	srl	a3,s1,a2
    802010ba:	068e                	slli	a3,a3,0x3
    802010bc:	0146f6b3          	and	a3,a3,s4
    802010c0:	8dd5                	or	a1,a1,a3
    802010c2:	6194                	ld	a3,0(a1)
    802010c4:	00f6f713          	andi	a4,a3,15
    802010c8:	177d                	addi	a4,a4,-1
    802010ca:	00173713          	seqz	a4,a4
    802010ce:	ff460793          	addi	a5,a2,-12
    802010d2:	00f037b3          	snez	a5,a5
    802010d6:	8f7d                	and	a4,a4,a5
    802010d8:	165d                	addi	a2,a2,-9
    802010da:	fb71                	bnez	a4,802010ae <.LBB7_21+0x148>
    802010dc:	b791                	j	80201020 <.LBB7_21+0xba>
    802010de:	ffe00537          	lui	a0,0xffe00
    802010e2:	f6043583          	ld	a1,-160(s0)
    802010e6:	00a5fbb3          	and	s7,a1,a0
    802010ea:	f8043503          	ld	a0,-128(s0)
    802010ee:	0eabf063          	bgeu	s7,a0,802011ce <.LBB7_21+0x268>
    802010f2:	00400537          	lui	a0,0x400
    802010f6:	f3843583          	ld	a1,-200(s0)
    802010fa:	952e                	add	a0,a0,a1
    802010fc:	f4043583          	ld	a1,-192(s0)
    80201100:	00b574b3          	and	s1,a0,a1
    80201104:	3ffff537          	lui	a0,0x3ffff
    80201108:	00951c13          	slli	s8,a0,0x9
    8020110c:	a80d                	j	8020113e <.LBB7_21+0x1d8>
    8020110e:	00499613          	slli	a2,s3,0x4
    80201112:	9666                	add	a2,a2,s9
    80201114:	8109                	srli	a0,a0,0x2
    80201116:	01557533          	and	a0,a0,s5
    8020111a:	00156513          	ori	a0,a0,1
    8020111e:	e188                	sd	a0,0(a1)
    80201120:	12000073          	sfence.vma
    80201124:	01a63023          	sd	s10,0(a2)
    80201128:	f8840513          	addi	a0,s0,-120
    8020112c:	e608                	sd	a0,8(a2)
    8020112e:	00200537          	lui	a0,0x200
    80201132:	9baa                	add	s7,s7,a0
    80201134:	0985                	addi	s3,s3,1
    80201136:	f8043503          	ld	a0,-128(s0)
    8020113a:	08abfa63          	bgeu	s7,a0,802011ce <.LBB7_21+0x268>
    8020113e:	f7043503          	ld	a0,-144(s0)
    80201142:	00002097          	auipc	ra,0x2
    80201146:	91e080e7          	jalr	-1762(ra) # 80202a60 <_ZN4sel46kernel6object10objecttype14cap_get_capPtr17h66df656170e7b0bcE>
    8020114a:	8caa                	mv	s9,a0
    8020114c:	4541                	li	a0,16
    8020114e:	4591                	li	a1,4
    80201150:	00002097          	auipc	ra,0x2
    80201154:	1d2080e7          	jalr	466(ra) # 80203322 <__rust_alloc>
    80201158:	8d2a                	mv	s10,a0
    8020115a:	018bf933          	and	s2,s7,s8
    8020115e:	f6843503          	ld	a0,-152(s0)
    80201162:	00a96533          	or	a0,s2,a0
    80201166:	00ad3023          	sd	a0,0(s10)
    8020116a:	009d3423          	sd	s1,8(s10)
    8020116e:	f7843503          	ld	a0,-136(s0)
    80201172:	00002097          	auipc	ra,0x2
    80201176:	8ee080e7          	jalr	-1810(ra) # 80202a60 <_ZN4sel46kernel6object10objecttype14cap_get_capPtr17h66df656170e7b0bcE>
    8020117a:	8daa                	mv	s11,a0
    8020117c:	856a                	mv	a0,s10
    8020117e:	00002097          	auipc	ra,0x2
    80201182:	8e2080e7          	jalr	-1822(ra) # 80202a60 <_ZN4sel46kernel6object10objecttype14cap_get_capPtr17h66df656170e7b0bcE>
    80201186:	01bbd593          	srli	a1,s7,0x1b
    8020118a:	0145f5b3          	and	a1,a1,s4
    8020118e:	95ee                	add	a1,a1,s11
    80201190:	6194                	ld	a3,0(a1)
    80201192:	00f6f613          	andi	a2,a3,15
    80201196:	4705                	li	a4,1
    80201198:	f6e61be3          	bne	a2,a4,8020110e <.LBB7_21+0x1a8>
    8020119c:	4655                	li	a2,21
    8020119e:	00269593          	slli	a1,a3,0x2
    802011a2:	0165f5b3          	and	a1,a1,s6
    802011a6:	00c956b3          	srl	a3,s2,a2
    802011aa:	068e                	slli	a3,a3,0x3
    802011ac:	0146f6b3          	and	a3,a3,s4
    802011b0:	8dd5                	or	a1,a1,a3
    802011b2:	6194                	ld	a3,0(a1)
    802011b4:	00f6f713          	andi	a4,a3,15
    802011b8:	177d                	addi	a4,a4,-1
    802011ba:	00173713          	seqz	a4,a4
    802011be:	ff460793          	addi	a5,a2,-12
    802011c2:	00f037b3          	snez	a5,a5
    802011c6:	8f7d                	and	a4,a4,a5
    802011c8:	165d                	addi	a2,a2,-9
    802011ca:	fb71                	bnez	a4,8020119e <.LBB7_21+0x238>
    802011cc:	b789                	j	8020110e <.LBB7_21+0x1a8>
    802011ce:	75fd                	lui	a1,0xfffff
    802011d0:	f4843503          	ld	a0,-184(s0)
    802011d4:	8d6d                	and	a0,a0,a1
    802011d6:	f5843283          	ld	t0,-168(s0)
    802011da:	f5043303          	ld	t1,-176(s0)
    802011de:	06657663          	bgeu	a0,t1,8020124a <.LBB7_21+0x2e4>
    802011e2:	f6043603          	ld	a2,-160(s0)
    802011e6:	8df1                	and	a1,a1,a2
    802011e8:	4805                	li	a6,1
    802011ea:	6885                	lui	a7,0x1
    802011ec:	a821                	j	80201204 <.LBB7_21+0x29e>
    802011ee:	00255613          	srli	a2,a0,0x2
    802011f2:	01567633          	and	a2,a2,s5
    802011f6:	0ff66613          	ori	a2,a2,255
    802011fa:	e310                	sd	a2,0(a4)
    802011fc:	9546                	add	a0,a0,a7
    802011fe:	95c6                	add	a1,a1,a7
    80201200:	04657563          	bgeu	a0,t1,8020124a <.LBB7_21+0x2e4>
    80201204:	01b5d713          	srli	a4,a1,0x1b
    80201208:	01477733          	and	a4,a4,s4
    8020120c:	9716                	add	a4,a4,t0
    8020120e:	6304                	ld	s1,0(a4)
    80201210:	00f4f793          	andi	a5,s1,15
    80201214:	fd079de3          	bne	a5,a6,802011ee <.LBB7_21+0x288>
    80201218:	47d5                	li	a5,21
    8020121a:	00249713          	slli	a4,s1,0x2
    8020121e:	01677733          	and	a4,a4,s6
    80201222:	00f5d4b3          	srl	s1,a1,a5
    80201226:	048e                	slli	s1,s1,0x3
    80201228:	0144f4b3          	and	s1,s1,s4
    8020122c:	8f45                	or	a4,a4,s1
    8020122e:	6304                	ld	s1,0(a4)
    80201230:	00f4f613          	andi	a2,s1,15
    80201234:	167d                	addi	a2,a2,-1
    80201236:	00163613          	seqz	a2,a2
    8020123a:	ff478693          	addi	a3,a5,-12 # ffffffffbfdffff4 <ki_end+0xffffffff3f3dbff4>
    8020123e:	00d036b3          	snez	a3,a3
    80201242:	8e75                	and	a2,a2,a3
    80201244:	17dd                	addi	a5,a5,-9
    80201246:	fa71                	bnez	a2,8020121a <.LBB7_21+0x2b4>
    80201248:	b75d                	j	802011ee <.LBB7_21+0x288>
    8020124a:	f7843503          	ld	a0,-136(s0)
    8020124e:	60ae                	ld	ra,200(sp)
    80201250:	640e                	ld	s0,192(sp)
    80201252:	74ea                	ld	s1,184(sp)
    80201254:	794a                	ld	s2,176(sp)
    80201256:	79aa                	ld	s3,168(sp)
    80201258:	7a0a                	ld	s4,160(sp)
    8020125a:	6aea                	ld	s5,152(sp)
    8020125c:	6b4a                	ld	s6,144(sp)
    8020125e:	6baa                	ld	s7,136(sp)
    80201260:	6c0a                	ld	s8,128(sp)
    80201262:	7ce6                	ld	s9,120(sp)
    80201264:	7d46                	ld	s10,112(sp)
    80201266:	7da6                	ld	s11,104(sp)
    80201268:	6169                	addi	sp,sp,208
    8020126a:	8082                	ret

000000008020126c <_ZN4core3ptr48drop_in_place$LT$core..str..error..Utf8Error$GT$17h9e31f42c699c2e38E.llvm.1762781943071341498>:
    8020126c:	1141                	addi	sp,sp,-16
    8020126e:	e406                	sd	ra,8(sp)
    80201270:	e022                	sd	s0,0(sp)
    80201272:	0800                	addi	s0,sp,16
    80201274:	60a2                	ld	ra,8(sp)
    80201276:	6402                	ld	s0,0(sp)
    80201278:	0141                	addi	sp,sp,16
    8020127a:	8082                	ret

000000008020127c <_ZN4sel47syscall2fs9sys_write17hdd3ca81d921860cdE>:
    8020127c:	7119                	addi	sp,sp,-128
    8020127e:	fc86                	sd	ra,120(sp)
    80201280:	f8a2                	sd	s0,112(sp)
    80201282:	f4a6                	sd	s1,104(sp)
    80201284:	0100                	addi	s0,sp,128
    80201286:	4685                	li	a3,1
    80201288:	08d51663          	bne	a0,a3,80201314 <.LBB4_10>
    8020128c:	84b2                	mv	s1,a2
    8020128e:	fb040513          	addi	a0,s0,-80
    80201292:	00005097          	auipc	ra,0x5
    80201296:	8ea080e7          	jalr	-1814(ra) # 80205b7c <_ZN4core3str8converts9from_utf817h41c2ca4493b63f8bE>
    8020129a:	fb043503          	ld	a0,-80(s0)
    8020129e:	e945                	bnez	a0,8020134e <.LBB4_12+0x16>
    802012a0:	fb843503          	ld	a0,-72(s0)
    802012a4:	fc043583          	ld	a1,-64(s0)
    802012a8:	f8a43423          	sd	a0,-120(s0)
    802012ac:	f8b43823          	sd	a1,-112(s0)
    802012b0:	f8840513          	addi	a0,s0,-120
    802012b4:	f8a43c23          	sd	a0,-104(s0)

00000000802012b8 <.LBB4_7>:
    802012b8:	00000517          	auipc	a0,0x0
    802012bc:	75e50513          	addi	a0,a0,1886 # 80201a16 <_ZN44_$LT$$RF$T$u20$as$u20$core..fmt..Display$GT$3fmt17he9e9b4aa0ef791bdE>
    802012c0:	faa43023          	sd	a0,-96(s0)
    802012c4:	fe040513          	addi	a0,s0,-32
    802012c8:	faa43423          	sd	a0,-88(s0)
    802012cc:	fa043823          	sd	zero,-80(s0)

00000000802012d0 <.LBB4_8>:
    802012d0:	00008517          	auipc	a0,0x8
    802012d4:	10850513          	addi	a0,a0,264 # 802093d8 <anon.f083911e98d0ac78dac8204ae5a4d029.8.llvm.1762781943071341498>
    802012d8:	fca43023          	sd	a0,-64(s0)
    802012dc:	4505                	li	a0,1
    802012de:	fca43423          	sd	a0,-56(s0)
    802012e2:	f9840593          	addi	a1,s0,-104
    802012e6:	fcb43823          	sd	a1,-48(s0)
    802012ea:	fca43c23          	sd	a0,-40(s0)

00000000802012ee <.LBB4_9>:
    802012ee:	00009597          	auipc	a1,0x9
    802012f2:	ed258593          	addi	a1,a1,-302 # 8020a1c0 <anon.f016384ff5f45e36efedd53711d4611b.0.llvm.493118147765580453>
    802012f6:	fa840513          	addi	a0,s0,-88
    802012fa:	fb040613          	addi	a2,s0,-80
    802012fe:	00004097          	auipc	ra,0x4
    80201302:	a14080e7          	jalr	-1516(ra) # 80204d12 <_ZN4core3fmt5write17h42fcd7b837de3f75E>
    80201306:	e149                	bnez	a0,80201388 <.LBB4_16>
    80201308:	8526                	mv	a0,s1
    8020130a:	70e6                	ld	ra,120(sp)
    8020130c:	7446                	ld	s0,112(sp)
    8020130e:	74a6                	ld	s1,104(sp)
    80201310:	6109                	addi	sp,sp,128
    80201312:	8082                	ret

0000000080201314 <.LBB4_10>:
    80201314:	00008517          	auipc	a0,0x8
    80201318:	01c50513          	addi	a0,a0,28 # 80209330 <anon.f083911e98d0ac78dac8204ae5a4d029.2.llvm.1762781943071341498>
    8020131c:	fca43023          	sd	a0,-64(s0)
    80201320:	fcd43423          	sd	a3,-56(s0)
    80201324:	fa043823          	sd	zero,-80(s0)

0000000080201328 <.LBB4_11>:
    80201328:	00008517          	auipc	a0,0x8
    8020132c:	fe850513          	addi	a0,a0,-24 # 80209310 <anon.f083911e98d0ac78dac8204ae5a4d029.1.llvm.1762781943071341498>
    80201330:	fca43823          	sd	a0,-48(s0)
    80201334:	fc043c23          	sd	zero,-40(s0)

0000000080201338 <.LBB4_12>:
    80201338:	00008597          	auipc	a1,0x8
    8020133c:	02058593          	addi	a1,a1,32 # 80209358 <anon.f083911e98d0ac78dac8204ae5a4d029.4.llvm.1762781943071341498>
    80201340:	fb040513          	addi	a0,s0,-80
    80201344:	00003097          	auipc	ra,0x3
    80201348:	05c080e7          	jalr	92(ra) # 802043a0 <_ZN4core9panicking9panic_fmt17h09608ae52bd0d3adE>
    8020134c:	0000                	unimp
    8020134e:	fc043503          	ld	a0,-64(s0)
    80201352:	fb843583          	ld	a1,-72(s0)
    80201356:	faa43023          	sd	a0,-96(s0)
    8020135a:	f8b43c23          	sd	a1,-104(s0)

000000008020135e <.LBB4_13>:
    8020135e:	00008517          	auipc	a0,0x8
    80201362:	01250513          	addi	a0,a0,18 # 80209370 <anon.f083911e98d0ac78dac8204ae5a4d029.5.llvm.1762781943071341498>

0000000080201366 <.LBB4_14>:
    80201366:	00008697          	auipc	a3,0x8
    8020136a:	03a68693          	addi	a3,a3,58 # 802093a0 <anon.f083911e98d0ac78dac8204ae5a4d029.6.llvm.1762781943071341498>

000000008020136e <.LBB4_15>:
    8020136e:	00008717          	auipc	a4,0x8
    80201372:	05270713          	addi	a4,a4,82 # 802093c0 <anon.f083911e98d0ac78dac8204ae5a4d029.7.llvm.1762781943071341498>
    80201376:	02b00593          	li	a1,43
    8020137a:	f9840613          	addi	a2,s0,-104
    8020137e:	00003097          	auipc	ra,0x3
    80201382:	1f0080e7          	jalr	496(ra) # 8020456e <_ZN4core6result13unwrap_failed17h93c501911315d321E>
	...

0000000080201388 <.LBB4_16>:
    80201388:	00009517          	auipc	a0,0x9
    8020138c:	e6850513          	addi	a0,a0,-408 # 8020a1f0 <anon.f016384ff5f45e36efedd53711d4611b.1.llvm.493118147765580453>

0000000080201390 <.LBB4_17>:
    80201390:	00009697          	auipc	a3,0x9
    80201394:	e9068693          	addi	a3,a3,-368 # 8020a220 <anon.f016384ff5f45e36efedd53711d4611b.2.llvm.493118147765580453>

0000000080201398 <.LBB4_18>:
    80201398:	00009717          	auipc	a4,0x9
    8020139c:	eb870713          	addi	a4,a4,-328 # 8020a250 <anon.f016384ff5f45e36efedd53711d4611b.4.llvm.493118147765580453>
    802013a0:	02b00593          	li	a1,43
    802013a4:	fe040613          	addi	a2,s0,-32
    802013a8:	00003097          	auipc	ra,0x3
    802013ac:	1c6080e7          	jalr	454(ra) # 8020456e <_ZN4core6result13unwrap_failed17h93c501911315d321E>
	...

00000000802013b2 <rust_begin_unwind>:
    802013b2:	716d                	addi	sp,sp,-272
    802013b4:	e606                	sd	ra,264(sp)
    802013b6:	e222                	sd	s0,256(sp)
    802013b8:	fda6                	sd	s1,248(sp)
    802013ba:	0a00                	addi	s0,sp,272
    802013bc:	84aa                	mv	s1,a0
    802013be:	00003097          	auipc	ra,0x3
    802013c2:	fde080e7          	jalr	-34(ra) # 8020439c <_ZN4core5panic10panic_info9PanicInfo8location17h43d8a14288f989fbE>
    802013c6:	e515                	bnez	a0,802013f2 <.LBB0_10+0x16>
    802013c8:	8526                	mv	a0,s1
    802013ca:	00003097          	auipc	ra,0x3
    802013ce:	fce080e7          	jalr	-50(ra) # 80204398 <_ZN4core5panic10panic_info9PanicInfo7message17hcb7a5a3e466be904E>
    802013d2:	ed31                	bnez	a0,8020142e <.LBB0_12+0x16>

00000000802013d4 <.LBB0_9>:
    802013d4:	00008517          	auipc	a0,0x8
    802013d8:	04c50513          	addi	a0,a0,76 # 80209420 <.Lanon.86a3613c128665d32fc75176e6ae67c2.8>

00000000802013dc <.LBB0_10>:
    802013dc:	00008617          	auipc	a2,0x8
    802013e0:	08460613          	addi	a2,a2,132 # 80209460 <.Lanon.86a3613c128665d32fc75176e6ae67c2.10>
    802013e4:	02b00593          	li	a1,43
    802013e8:	00003097          	auipc	ra,0x3
    802013ec:	fe6080e7          	jalr	-26(ra) # 802043ce <_ZN4core9panicking5panic17h968d2b6b541ffadfE>
    802013f0:	0000                	unimp
    802013f2:	610c                	ld	a1,0(a0)
    802013f4:	6510                	ld	a2,8(a0)
    802013f6:	f2b43023          	sd	a1,-224(s0)
    802013fa:	f2c43423          	sd	a2,-216(s0)
    802013fe:	4908                	lw	a0,16(a0)
    80201400:	f2a42a23          	sw	a0,-204(s0)
    80201404:	8526                	mv	a0,s1
    80201406:	00003097          	auipc	ra,0x3
    8020140a:	f92080e7          	jalr	-110(ra) # 80204398 <_ZN4core5panic10panic_info9PanicInfo7message17hcb7a5a3e466be904E>
    8020140e:	e57d                	bnez	a0,802014fc <.LBB0_18+0x24>

0000000080201410 <.LBB0_11>:
    80201410:	00008517          	auipc	a0,0x8
    80201414:	01050513          	addi	a0,a0,16 # 80209420 <.Lanon.86a3613c128665d32fc75176e6ae67c2.8>

0000000080201418 <.LBB0_12>:
    80201418:	00008617          	auipc	a2,0x8
    8020141c:	0b860613          	addi	a2,a2,184 # 802094d0 <.Lanon.86a3613c128665d32fc75176e6ae67c2.15>
    80201420:	02b00593          	li	a1,43
    80201424:	00003097          	auipc	ra,0x3
    80201428:	faa080e7          	jalr	-86(ra) # 802043ce <_ZN4core9panicking5panic17h968d2b6b541ffadfE>
    8020142c:	0000                	unimp
    8020142e:	faa43423          	sd	a0,-88(s0)
    80201432:	fa840513          	addi	a0,s0,-88
    80201436:	eea43823          	sd	a0,-272(s0)

000000008020143a <.LBB0_13>:
    8020143a:	00000517          	auipc	a0,0x0
    8020143e:	5c450513          	addi	a0,a0,1476 # 802019fe <_ZN44_$LT$$RF$T$u20$as$u20$core..fmt..Display$GT$3fmt17hc83fb63968e07dbeE>
    80201442:	eea43c23          	sd	a0,-264(s0)

0000000080201446 <.LBB0_14>:
    80201446:	00008517          	auipc	a0,0x8
    8020144a:	fba50513          	addi	a0,a0,-70 # 80209400 <.Lanon.86a3613c128665d32fc75176e6ae67c2.7>
    8020144e:	f4a43823          	sd	a0,-176(s0)
    80201452:	4509                	li	a0,2
    80201454:	f4a43c23          	sd	a0,-168(s0)
    80201458:	f4043023          	sd	zero,-192(s0)
    8020145c:	ef040513          	addi	a0,s0,-272
    80201460:	f6a43023          	sd	a0,-160(s0)
    80201464:	4505                	li	a0,1
    80201466:	f6a43423          	sd	a0,-152(s0)
    8020146a:	457d                	li	a0,31
    8020146c:	f2a40a23          	sb	a0,-204(s0)
    80201470:	03100513          	li	a0,49
    80201474:	f2a40c23          	sb	a0,-200(s0)
    80201478:	f3440513          	addi	a0,s0,-204
    8020147c:	f6a43823          	sd	a0,-144(s0)

0000000080201480 <.LBB0_15>:
    80201480:	00005517          	auipc	a0,0x5
    80201484:	55050513          	addi	a0,a0,1360 # 802069d0 <_ZN4core3fmt3num3imp51_$LT$impl$u20$core..fmt..Display$u20$for$u20$u8$GT$3fmt17h93332490606bba67E>
    80201488:	f6a43c23          	sd	a0,-136(s0)
    8020148c:	f3840593          	addi	a1,s0,-200
    80201490:	f8b43023          	sd	a1,-128(s0)
    80201494:	f8a43423          	sd	a0,-120(s0)
    80201498:	f4040513          	addi	a0,s0,-192
    8020149c:	f8a43823          	sd	a0,-112(s0)

00000000802014a0 <.LBB0_16>:
    802014a0:	00004517          	auipc	a0,0x4
    802014a4:	84050513          	addi	a0,a0,-1984 # 80204ce0 <_ZN59_$LT$core..fmt..Arguments$u20$as$u20$core..fmt..Display$GT$3fmt17h14b26a2a8d914ef0E>
    802014a8:	f8a43c23          	sd	a0,-104(s0)
    802014ac:	fe040513          	addi	a0,s0,-32
    802014b0:	f2a43023          	sd	a0,-224(s0)
    802014b4:	fa043823          	sd	zero,-80(s0)

00000000802014b8 <.LBB0_17>:
    802014b8:	00009517          	auipc	a0,0x9
    802014bc:	db850513          	addi	a0,a0,-584 # 8020a270 <anon.f016384ff5f45e36efedd53711d4611b.9.llvm.493118147765580453>
    802014c0:	fca43023          	sd	a0,-64(s0)
    802014c4:	4511                	li	a0,4
    802014c6:	fca43423          	sd	a0,-56(s0)
    802014ca:	f7040513          	addi	a0,s0,-144
    802014ce:	fca43823          	sd	a0,-48(s0)
    802014d2:	450d                	li	a0,3
    802014d4:	fca43c23          	sd	a0,-40(s0)

00000000802014d8 <.LBB0_18>:
    802014d8:	00009597          	auipc	a1,0x9
    802014dc:	ce858593          	addi	a1,a1,-792 # 8020a1c0 <anon.f016384ff5f45e36efedd53711d4611b.0.llvm.493118147765580453>
    802014e0:	f2040513          	addi	a0,s0,-224
    802014e4:	fb040613          	addi	a2,s0,-80
    802014e8:	00004097          	auipc	ra,0x4
    802014ec:	82a080e7          	jalr	-2006(ra) # 80204d12 <_ZN4core3fmt5write17h42fcd7b837de3f75E>
    802014f0:	e975                	bnez	a0,802015e4 <.LBB0_27>
    802014f2:	00000097          	auipc	ra,0x0
    802014f6:	5e2080e7          	jalr	1506(ra) # 80201ad4 <_ZN4sel43sbi8shutdown17h66331878ed4ddfbbE>
    802014fa:	0000                	unimp
    802014fc:	f2a43c23          	sd	a0,-200(s0)
    80201500:	f2040513          	addi	a0,s0,-224
    80201504:	f4a43023          	sd	a0,-192(s0)

0000000080201508 <.LBB0_19>:
    80201508:	00000517          	auipc	a0,0x0
    8020150c:	50e50513          	addi	a0,a0,1294 # 80201a16 <_ZN44_$LT$$RF$T$u20$as$u20$core..fmt..Display$GT$3fmt17he9e9b4aa0ef791bdE>
    80201510:	f4a43423          	sd	a0,-184(s0)
    80201514:	f3440513          	addi	a0,s0,-204
    80201518:	f4a43823          	sd	a0,-176(s0)

000000008020151c <.LBB0_20>:
    8020151c:	00005517          	auipc	a0,0x5
    80201520:	4e650513          	addi	a0,a0,1254 # 80206a02 <_ZN4core3fmt3num3imp52_$LT$impl$u20$core..fmt..Display$u20$for$u20$u32$GT$3fmt17h518678af98a1949fE>
    80201524:	f4a43c23          	sd	a0,-168(s0)
    80201528:	f3840513          	addi	a0,s0,-200
    8020152c:	f6a43023          	sd	a0,-160(s0)

0000000080201530 <.LBB0_21>:
    80201530:	00000517          	auipc	a0,0x0
    80201534:	4ce50513          	addi	a0,a0,1230 # 802019fe <_ZN44_$LT$$RF$T$u20$as$u20$core..fmt..Display$GT$3fmt17hc83fb63968e07dbeE>
    80201538:	f6a43423          	sd	a0,-152(s0)

000000008020153c <.LBB0_22>:
    8020153c:	00008517          	auipc	a0,0x8
    80201540:	f5450513          	addi	a0,a0,-172 # 80209490 <.Lanon.86a3613c128665d32fc75176e6ae67c2.14>
    80201544:	f0a43023          	sd	a0,-256(s0)
    80201548:	4511                	li	a0,4
    8020154a:	f0a43423          	sd	a0,-248(s0)
    8020154e:	ee043823          	sd	zero,-272(s0)
    80201552:	f4040593          	addi	a1,s0,-192
    80201556:	f0b43823          	sd	a1,-240(s0)
    8020155a:	458d                	li	a1,3
    8020155c:	f0b43c23          	sd	a1,-232(s0)
    80201560:	467d                	li	a2,31
    80201562:	fac40323          	sb	a2,-90(s0)
    80201566:	03100613          	li	a2,49
    8020156a:	fac403a3          	sb	a2,-89(s0)
    8020156e:	fa640613          	addi	a2,s0,-90
    80201572:	f6c43823          	sd	a2,-144(s0)

0000000080201576 <.LBB0_23>:
    80201576:	00005617          	auipc	a2,0x5
    8020157a:	45a60613          	addi	a2,a2,1114 # 802069d0 <_ZN4core3fmt3num3imp51_$LT$impl$u20$core..fmt..Display$u20$for$u20$u8$GT$3fmt17h93332490606bba67E>
    8020157e:	f6c43c23          	sd	a2,-136(s0)
    80201582:	fa740693          	addi	a3,s0,-89
    80201586:	f8d43023          	sd	a3,-128(s0)
    8020158a:	f8c43423          	sd	a2,-120(s0)
    8020158e:	ef040613          	addi	a2,s0,-272
    80201592:	f8c43823          	sd	a2,-112(s0)

0000000080201596 <.LBB0_24>:
    80201596:	00003617          	auipc	a2,0x3
    8020159a:	74a60613          	addi	a2,a2,1866 # 80204ce0 <_ZN59_$LT$core..fmt..Arguments$u20$as$u20$core..fmt..Display$GT$3fmt17h14b26a2a8d914ef0E>
    8020159e:	f8c43c23          	sd	a2,-104(s0)
    802015a2:	fe040613          	addi	a2,s0,-32
    802015a6:	fac43423          	sd	a2,-88(s0)
    802015aa:	fa043823          	sd	zero,-80(s0)

00000000802015ae <.LBB0_25>:
    802015ae:	00009617          	auipc	a2,0x9
    802015b2:	cc260613          	addi	a2,a2,-830 # 8020a270 <anon.f016384ff5f45e36efedd53711d4611b.9.llvm.493118147765580453>
    802015b6:	fcc43023          	sd	a2,-64(s0)
    802015ba:	fca43423          	sd	a0,-56(s0)
    802015be:	f7040513          	addi	a0,s0,-144
    802015c2:	fca43823          	sd	a0,-48(s0)
    802015c6:	fcb43c23          	sd	a1,-40(s0)

00000000802015ca <.LBB0_26>:
    802015ca:	00009597          	auipc	a1,0x9
    802015ce:	bf658593          	addi	a1,a1,-1034 # 8020a1c0 <anon.f016384ff5f45e36efedd53711d4611b.0.llvm.493118147765580453>
    802015d2:	fa840513          	addi	a0,s0,-88
    802015d6:	fb040613          	addi	a2,s0,-80
    802015da:	00003097          	auipc	ra,0x3
    802015de:	738080e7          	jalr	1848(ra) # 80204d12 <_ZN4core3fmt5write17h42fcd7b837de3f75E>
    802015e2:	d901                	beqz	a0,802014f2 <.LBB0_18+0x1a>

00000000802015e4 <.LBB0_27>:
    802015e4:	00009517          	auipc	a0,0x9
    802015e8:	c0c50513          	addi	a0,a0,-1012 # 8020a1f0 <anon.f016384ff5f45e36efedd53711d4611b.1.llvm.493118147765580453>

00000000802015ec <.LBB0_28>:
    802015ec:	00009697          	auipc	a3,0x9
    802015f0:	c3468693          	addi	a3,a3,-972 # 8020a220 <anon.f016384ff5f45e36efedd53711d4611b.2.llvm.493118147765580453>

00000000802015f4 <.LBB0_29>:
    802015f4:	00009717          	auipc	a4,0x9
    802015f8:	cbc70713          	addi	a4,a4,-836 # 8020a2b0 <anon.f016384ff5f45e36efedd53711d4611b.10.llvm.493118147765580453>
    802015fc:	02b00593          	li	a1,43
    80201600:	fe040613          	addi	a2,s0,-32
    80201604:	00003097          	auipc	ra,0x3
    80201608:	f6a080e7          	jalr	-150(ra) # 8020456e <_ZN4core6result13unwrap_failed17h93c501911315d321E>
	...

000000008020160e <_ZN4sel47syscall7process8sys_exit17hfad03a5e0ed4186aE>:
    8020160e:	711d                	addi	sp,sp,-96
    80201610:	ec86                	sd	ra,88(sp)
    80201612:	e8a2                	sd	s0,80(sp)
    80201614:	1080                	addi	s0,sp,96
    80201616:	faa42623          	sw	a0,-84(s0)

000000008020161a <.LBB0_3>:
    8020161a:	00006517          	auipc	a0,0x6
    8020161e:	dce50513          	addi	a0,a0,-562 # 802073e8 <_ZN3log20MAX_LOG_LEVEL_FILTER17hc6c0d544e89e4b49E>
    80201622:	6108                	ld	a0,0(a0)
    80201624:	4589                	li	a1,2
    80201626:	04a5f963          	bgeu	a1,a0,80201678 <.LBB0_6+0x18>
    8020162a:	fac40513          	addi	a0,s0,-84
    8020162e:	faa43823          	sd	a0,-80(s0)

0000000080201632 <.LBB0_4>:
    80201632:	00005517          	auipc	a0,0x5
    80201636:	3ae50513          	addi	a0,a0,942 # 802069e0 <_ZN4core3fmt3num3imp52_$LT$impl$u20$core..fmt..Display$u20$for$u20$i32$GT$3fmt17hf957be9b21bfb453E>
    8020163a:	faa43c23          	sd	a0,-72(s0)

000000008020163e <.LBB0_5>:
    8020163e:	00008517          	auipc	a0,0x8
    80201642:	ed250513          	addi	a0,a0,-302 # 80209510 <anon.0f98314600a7d771ab313cf5202be391.2.llvm.10753663115795015230>
    80201646:	fca43823          	sd	a0,-48(s0)
    8020164a:	4505                	li	a0,1
    8020164c:	fca43c23          	sd	a0,-40(s0)
    80201650:	fc043023          	sd	zero,-64(s0)
    80201654:	fb040593          	addi	a1,s0,-80
    80201658:	feb43023          	sd	a1,-32(s0)
    8020165c:	fea43423          	sd	a0,-24(s0)

0000000080201660 <.LBB0_6>:
    80201660:	00008617          	auipc	a2,0x8
    80201664:	ef060613          	addi	a2,a2,-272 # 80209550 <anon.0f98314600a7d771ab313cf5202be391.5.llvm.10753663115795015230>
    80201668:	fc040513          	addi	a0,s0,-64
    8020166c:	458d                	li	a1,3
    8020166e:	4681                	li	a3,0
    80201670:	00003097          	auipc	ra,0x3
    80201674:	bb4080e7          	jalr	-1100(ra) # 80204224 <_ZN3log17__private_api_log17he4dfcaf7e9ba9ed4E>
    80201678:	00002097          	auipc	ra,0x2
    8020167c:	814080e7          	jalr	-2028(ra) # 80202e8c <_ZN4sel49elfloader19mark_current_exited17h637cd8517df9f259E>
    80201680:	00002097          	auipc	ra,0x2
    80201684:	834080e7          	jalr	-1996(ra) # 80202eb4 <_ZN4sel49elfloader13run_next_task17h1a06d899a2d5b66eE>

0000000080201688 <.LBB0_7>:
    80201688:	00008517          	auipc	a0,0x8
    8020168c:	f1850513          	addi	a0,a0,-232 # 802095a0 <anon.0f98314600a7d771ab313cf5202be391.7.llvm.10753663115795015230>
    80201690:	fca43823          	sd	a0,-48(s0)
    80201694:	4505                	li	a0,1
    80201696:	fca43c23          	sd	a0,-40(s0)
    8020169a:	fc043023          	sd	zero,-64(s0)

000000008020169e <.LBB0_8>:
    8020169e:	00008517          	auipc	a0,0x8
    802016a2:	e4a50513          	addi	a0,a0,-438 # 802094e8 <anon.0f98314600a7d771ab313cf5202be391.1.llvm.10753663115795015230>
    802016a6:	fea43023          	sd	a0,-32(s0)
    802016aa:	fe043423          	sd	zero,-24(s0)

00000000802016ae <.LBB0_9>:
    802016ae:	00008597          	auipc	a1,0x8
    802016b2:	f0258593          	addi	a1,a1,-254 # 802095b0 <anon.0f98314600a7d771ab313cf5202be391.8.llvm.10753663115795015230>
    802016b6:	fc040513          	addi	a0,s0,-64
    802016ba:	00003097          	auipc	ra,0x3
    802016be:	ce6080e7          	jalr	-794(ra) # 802043a0 <_ZN4core9panicking9panic_fmt17h09608ae52bd0d3adE>
	...

00000000802016c4 <_ZN4sel47syscall7syscall17hc24d219189e4a5a1E>:
    802016c4:	711d                	addi	sp,sp,-96
    802016c6:	ec86                	sd	ra,88(sp)
    802016c8:	e8a2                	sd	s0,80(sp)
    802016ca:	e4a6                	sd	s1,72(sp)
    802016cc:	1080                	addi	s0,sp,96
    802016ce:	07b00613          	li	a2,123
    802016d2:	faa43023          	sd	a0,-96(s0)
    802016d6:	06a65163          	bge	a2,a0,80201738 <.LBB4_19+0x2e>
    802016da:	07c00613          	li	a2,124
    802016de:	06c50b63          	beq	a0,a2,80201754 <.LBB4_20>
    802016e2:	0a900613          	li	a2,169
    802016e6:	10c51163          	bne	a0,a2,802017e8 <.LBB4_24+0xa>
    802016ea:	6188                	ld	a0,0(a1)
    802016ec:	c01025f3          	rdtime	a1

00000000802016f0 <.LBB4_17>:
    802016f0:	00006617          	auipc	a2,0x6
    802016f4:	91060613          	addi	a2,a2,-1776 # 80207000 <_sdata>
    802016f8:	6210                	ld	a2,0(a2)
    802016fa:	4481                	li	s1,0
    802016fc:	02c5b633          	mulhu	a2,a1,a2

0000000080201700 <.LBB4_18>:
    80201700:	00006697          	auipc	a3,0x6
    80201704:	90868693          	addi	a3,a3,-1784 # 80207008 <.LCPI4_1>
    80201708:	6294                	ld	a3,0(a3)

000000008020170a <.LBB4_19>:
    8020170a:	00006717          	auipc	a4,0x6
    8020170e:	90670713          	addi	a4,a4,-1786 # 80207010 <.LCPI4_2>
    80201712:	6318                	ld	a4,0(a4)
    80201714:	820d                	srli	a2,a2,0x3
    80201716:	81a1                	srli	a1,a1,0x8
    80201718:	02d5b5b3          	mulhu	a1,a1,a3
    8020171c:	02e636b3          	mulhu	a3,a2,a4
    80201720:	82c9                	srli	a3,a3,0x12
    80201722:	000f4737          	lui	a4,0xf4
    80201726:	2407071b          	addiw	a4,a4,576
    8020172a:	02e686b3          	mul	a3,a3,a4
    8020172e:	819d                	srli	a1,a1,0x7
    80201730:	8e15                	sub	a2,a2,a3
    80201732:	e10c                	sd	a1,0(a0)
    80201734:	e510                	sd	a2,8(a0)
    80201736:	a8a1                	j	8020178e <.LBB4_21+0x26>
    80201738:	04000613          	li	a2,64
    8020173c:	04c51f63          	bne	a0,a2,8020179a <.LBB4_21+0x32>
    80201740:	6188                	ld	a0,0(a1)
    80201742:	6590                	ld	a2,8(a1)
    80201744:	6984                	ld	s1,16(a1)
    80201746:	85b2                	mv	a1,a2
    80201748:	8626                	mv	a2,s1
    8020174a:	00000097          	auipc	ra,0x0
    8020174e:	b32080e7          	jalr	-1230(ra) # 8020127c <_ZN4sel47syscall2fs9sys_write17hdd3ca81d921860cdE>
    80201752:	a835                	j	8020178e <.LBB4_21+0x26>

0000000080201754 <.LBB4_20>:
    80201754:	00006517          	auipc	a0,0x6
    80201758:	c7450513          	addi	a0,a0,-908 # 802073c8 <_ZN4sel46kernel6thread11ksCurThread17h5a674989a535a6f6E>
    8020175c:	610c                	ld	a1,0(a0)
    8020175e:	1185b583          	ld	a1,280(a1)
    80201762:	6190                	ld	a2,0(a1)
    80201764:	9a41                	andi	a2,a2,-16
    80201766:	e190                	sd	a2,0(a1)

0000000080201768 <.LBB4_21>:
    80201768:	0000d597          	auipc	a1,0xd
    8020176c:	89858593          	addi	a1,a1,-1896 # 8020e000 <_num_app>
    80201770:	6194                	ld	a3,0(a1)
    80201772:	c2b9                	beqz	a3,802017b8 <.LBB4_22>
    80201774:	11803583          	ld	a1,280(zero) # 118 <n+0xf8>
    80201778:	6190                	ld	a2,0(a1)
    8020177a:	00f67713          	andi	a4,a2,15
    8020177e:	eb05                	bnez	a4,802017ae <.LBB4_21+0x46>
    80201780:	4481                	li	s1,0
    80201782:	9a41                	andi	a2,a2,-16
    80201784:	00166613          	ori	a2,a2,1
    80201788:	e190                	sd	a2,0(a1)
    8020178a:	00053023          	sd	zero,0(a0)
    8020178e:	8526                	mv	a0,s1
    80201790:	60e6                	ld	ra,88(sp)
    80201792:	6446                	ld	s0,80(sp)
    80201794:	64a6                	ld	s1,72(sp)
    80201796:	6125                	addi	sp,sp,96
    80201798:	8082                	ret
    8020179a:	05d00613          	li	a2,93
    8020179e:	04c51563          	bne	a0,a2,802017e8 <.LBB4_24+0xa>
    802017a2:	6188                	ld	a0,0(a1)
    802017a4:	00000097          	auipc	ra,0x0
    802017a8:	e6a080e7          	jalr	-406(ra) # 8020160e <_ZN4sel47syscall7process8sys_exit17hfad03a5e0ed4186aE>
    802017ac:	0000                	unimp
    802017ae:	fef68513          	addi	a0,a3,-17
    802017b2:	55bd                	li	a1,-17
    802017b4:	08a5f063          	bgeu	a1,a0,80201834 <.LBB4_28>

00000000802017b8 <.LBB4_22>:
    802017b8:	00009517          	auipc	a0,0x9
    802017bc:	92850513          	addi	a0,a0,-1752 # 8020a0e0 <anon.74195d8e98de57e0ff4db1d6372c83b3.10.llvm.13570960477992927082>
    802017c0:	fca43423          	sd	a0,-56(s0)
    802017c4:	4505                	li	a0,1
    802017c6:	fca43823          	sd	a0,-48(s0)
    802017ca:	fa043c23          	sd	zero,-72(s0)

00000000802017ce <.LBB4_23>:
    802017ce:	00009517          	auipc	a0,0x9
    802017d2:	83a50513          	addi	a0,a0,-1990 # 8020a008 <anon.74195d8e98de57e0ff4db1d6372c83b3.1.llvm.13570960477992927082>
    802017d6:	fca43c23          	sd	a0,-40(s0)
    802017da:	fe043023          	sd	zero,-32(s0)

00000000802017de <.LBB4_24>:
    802017de:	00009597          	auipc	a1,0x9
    802017e2:	91258593          	addi	a1,a1,-1774 # 8020a0f0 <anon.74195d8e98de57e0ff4db1d6372c83b3.11.llvm.13570960477992927082>
    802017e6:	a081                	j	80201826 <.LBB4_27+0x8>
    802017e8:	fa040513          	addi	a0,s0,-96
    802017ec:	faa43423          	sd	a0,-88(s0)

00000000802017f0 <.LBB4_25>:
    802017f0:	00005517          	auipc	a0,0x5
    802017f4:	22250513          	addi	a0,a0,546 # 80206a12 <_ZN4core3fmt3num3imp52_$LT$impl$u20$core..fmt..Display$u20$for$u20$u64$GT$3fmt17h77ff5d762b7f8e58E>
    802017f8:	faa43823          	sd	a0,-80(s0)

00000000802017fc <.LBB4_26>:
    802017fc:	00008517          	auipc	a0,0x8
    80201800:	de450513          	addi	a0,a0,-540 # 802095e0 <anon.2dd473fedc94d67fc05cb29475086972.2.llvm.1317457308673901188>
    80201804:	fca43423          	sd	a0,-56(s0)
    80201808:	4505                	li	a0,1
    8020180a:	fca43823          	sd	a0,-48(s0)
    8020180e:	fa043c23          	sd	zero,-72(s0)
    80201812:	fa840593          	addi	a1,s0,-88
    80201816:	fcb43c23          	sd	a1,-40(s0)
    8020181a:	fea43023          	sd	a0,-32(s0)

000000008020181e <.LBB4_27>:
    8020181e:	00008597          	auipc	a1,0x8
    80201822:	dea58593          	addi	a1,a1,-534 # 80209608 <anon.2dd473fedc94d67fc05cb29475086972.4.llvm.1317457308673901188>
    80201826:	fb840513          	addi	a0,s0,-72
    8020182a:	00003097          	auipc	ra,0x3
    8020182e:	b76080e7          	jalr	-1162(ra) # 802043a0 <_ZN4core9panicking9panic_fmt17h09608ae52bd0d3adE>
	...

0000000080201834 <.LBB4_28>:
    80201834:	00009617          	auipc	a2,0x9
    80201838:	8d460613          	addi	a2,a2,-1836 # 8020a108 <anon.74195d8e98de57e0ff4db1d6372c83b3.12.llvm.13570960477992927082>
    8020183c:	4541                	li	a0,16
    8020183e:	45c1                	li	a1,16
    80201840:	00003097          	auipc	ra,0x3
    80201844:	c02080e7          	jalr	-1022(ra) # 80204442 <_ZN4core9panicking18panic_bounds_check17h03ed6527cd415bf9E>
	...

000000008020184a <rust_main>:
    8020184a:	7139                	addi	sp,sp,-64
    8020184c:	fc06                	sd	ra,56(sp)
    8020184e:	f822                	sd	s0,48(sp)
    80201850:	0080                	addi	s0,sp,64

0000000080201852 <.LBB5_1>:
    80201852:	00008517          	auipc	a0,0x8
    80201856:	de650513          	addi	a0,a0,-538 # 80209638 <.Lanon.2dd473fedc94d67fc05cb29475086972.6>
    8020185a:	fca43823          	sd	a0,-48(s0)
    8020185e:	4505                	li	a0,1
    80201860:	fca43c23          	sd	a0,-40(s0)
    80201864:	fc043023          	sd	zero,-64(s0)

0000000080201868 <.LBB5_2>:
    80201868:	00008517          	auipc	a0,0x8
    8020186c:	d6050513          	addi	a0,a0,-672 # 802095c8 <anon.2dd473fedc94d67fc05cb29475086972.1.llvm.1317457308673901188>
    80201870:	fea43023          	sd	a0,-32(s0)
    80201874:	fe043423          	sd	zero,-24(s0)
    80201878:	fc040513          	addi	a0,s0,-64
    8020187c:	00002097          	auipc	ra,0x2
    80201880:	a26080e7          	jalr	-1498(ra) # 802032a2 <_ZN4sel47console5print17hac8e0d72989ef035E>
    80201884:	00001097          	auipc	ra,0x1
    80201888:	6c8080e7          	jalr	1736(ra) # 80202f4c <_ZN4sel410heap_alloc9init_heap17h3294eb883f2849c6E>
    8020188c:	ffffe097          	auipc	ra,0xffffe
    80201890:	794080e7          	jalr	1940(ra) # 80200020 <_ZN4sel46kernel4boot17try_inital_kernel17hcd5a0f72a134865cE>
    80201894:	00000097          	auipc	ra,0x0
    80201898:	1b4080e7          	jalr	436(ra) # 80201a48 <_ZN4sel45timer16set_next_trigger17h513b968853dec90cE>
    8020189c:	00000097          	auipc	ra,0x0
    802018a0:	6ba080e7          	jalr	1722(ra) # 80201f56 <_ZN4sel46kernel6thread8schedule17h98afa0e0bd73f0aaE>
    802018a4:	00000097          	auipc	ra,0x0
    802018a8:	376080e7          	jalr	886(ra) # 80201c1a <_ZN4sel46kernel6thread14activateThread17h81e85e1ada5055fcE>

00000000802018ac <.LBB5_3>:
    802018ac:	00006517          	auipc	a0,0x6
    802018b0:	b1c50513          	addi	a0,a0,-1252 # 802073c8 <_ZN4sel46kernel6thread11ksCurThread17h5a674989a535a6f6E>
    802018b4:	6108                	ld	a0,0(a0)
    802018b6:	fffff097          	auipc	ra,0xfffff
    802018ba:	512080e7          	jalr	1298(ra) # 80200dc8 <_ZN4sel46kernel6vspace9setVMRoot17hf133a983aeb6f57eE>
    802018be:	00001097          	auipc	ra,0x1
    802018c2:	b1e080e7          	jalr	-1250(ra) # 802023dc <_ZN4sel45traps20restore_user_context17he67396054724b40fE>
    802018c6:	00000097          	auipc	ra,0x0
    802018ca:	20e080e7          	jalr	526(ra) # 80201ad4 <_ZN4sel43sbi8shutdown17h66331878ed4ddfbbE>
	...

00000000802018d0 <_ZN42_$LT$$RF$T$u20$as$u20$core..fmt..Debug$GT$3fmt17h656395a318b968daE>:
    802018d0:	1141                	addi	sp,sp,-16
    802018d2:	e406                	sd	ra,8(sp)
    802018d4:	e022                	sd	s0,0(sp)
    802018d6:	0800                	addi	s0,sp,16
    802018d8:	6110                	ld	a2,0(a0)
    802018da:	6514                	ld	a3,8(a0)
    802018dc:	872e                	mv	a4,a1
    802018de:	8532                	mv	a0,a2
    802018e0:	85b6                	mv	a1,a3
    802018e2:	863a                	mv	a2,a4
    802018e4:	60a2                	ld	ra,8(sp)
    802018e6:	6402                	ld	s0,0(sp)
    802018e8:	0141                	addi	sp,sp,16
    802018ea:	00004317          	auipc	t1,0x4
    802018ee:	af030067          	jr	-1296(t1) # 802053da <_ZN40_$LT$str$u20$as$u20$core..fmt..Debug$GT$3fmt17hc9f165820743b80bE>

00000000802018f2 <_ZN42_$LT$$RF$T$u20$as$u20$core..fmt..Debug$GT$3fmt17h82a796108b48aad4E>:
    802018f2:	7139                	addi	sp,sp,-64
    802018f4:	fc06                	sd	ra,56(sp)
    802018f6:	f822                	sd	s0,48(sp)
    802018f8:	f426                	sd	s1,40(sp)
    802018fa:	f04a                	sd	s2,32(sp)
    802018fc:	0080                	addi	s0,sp,64
    802018fe:	00053903          	ld	s2,0(a0)
    80201902:	fc840513          	addi	a0,s0,-56
    80201906:	00004097          	auipc	ra,0x4
    8020190a:	a74080e7          	jalr	-1420(ra) # 8020537a <_ZN4core3fmt9Formatter10debug_list17h4014e2d68e0d92f8E>
    8020190e:	fd243c23          	sd	s2,-40(s0)

0000000080201912 <.LBB2_1>:
    80201912:	00008497          	auipc	s1,0x8
    80201916:	d3648493          	addi	s1,s1,-714 # 80209648 <anon.72b47eae5ff11fdac265000f37750218.0.llvm.16990163026837873783>
    8020191a:	fc840513          	addi	a0,s0,-56
    8020191e:	fd840593          	addi	a1,s0,-40
    80201922:	8626                	mv	a2,s1
    80201924:	00003097          	auipc	ra,0x3
    80201928:	18e080e7          	jalr	398(ra) # 80204ab2 <_ZN4core3fmt8builders8DebugSet5entry17hc5f0804df0ae9f4cE>
    8020192c:	00190513          	addi	a0,s2,1
    80201930:	fca43c23          	sd	a0,-40(s0)
    80201934:	fc840513          	addi	a0,s0,-56
    80201938:	fd840593          	addi	a1,s0,-40
    8020193c:	8626                	mv	a2,s1
    8020193e:	00003097          	auipc	ra,0x3
    80201942:	174080e7          	jalr	372(ra) # 80204ab2 <_ZN4core3fmt8builders8DebugSet5entry17hc5f0804df0ae9f4cE>
    80201946:	00290513          	addi	a0,s2,2
    8020194a:	fca43c23          	sd	a0,-40(s0)
    8020194e:	fc840513          	addi	a0,s0,-56
    80201952:	fd840593          	addi	a1,s0,-40
    80201956:	8626                	mv	a2,s1
    80201958:	00003097          	auipc	ra,0x3
    8020195c:	15a080e7          	jalr	346(ra) # 80204ab2 <_ZN4core3fmt8builders8DebugSet5entry17hc5f0804df0ae9f4cE>
    80201960:	00390513          	addi	a0,s2,3
    80201964:	fca43c23          	sd	a0,-40(s0)
    80201968:	fc840513          	addi	a0,s0,-56
    8020196c:	fd840593          	addi	a1,s0,-40
    80201970:	8626                	mv	a2,s1
    80201972:	00003097          	auipc	ra,0x3
    80201976:	140080e7          	jalr	320(ra) # 80204ab2 <_ZN4core3fmt8builders8DebugSet5entry17hc5f0804df0ae9f4cE>
    8020197a:	fc840513          	addi	a0,s0,-56
    8020197e:	00003097          	auipc	ra,0x3
    80201982:	14e080e7          	jalr	334(ra) # 80204acc <_ZN4core3fmt8builders9DebugList6finish17hcc956528ee4f94aaE>
    80201986:	70e2                	ld	ra,56(sp)
    80201988:	7442                	ld	s0,48(sp)
    8020198a:	74a2                	ld	s1,40(sp)
    8020198c:	7902                	ld	s2,32(sp)
    8020198e:	6121                	addi	sp,sp,64
    80201990:	8082                	ret

0000000080201992 <_ZN42_$LT$$RF$T$u20$as$u20$core..fmt..Debug$GT$3fmt17h9dfb4629ba098819E.llvm.16990163026837873783>:
    80201992:	1101                	addi	sp,sp,-32
    80201994:	ec06                	sd	ra,24(sp)
    80201996:	e822                	sd	s0,16(sp)
    80201998:	e426                	sd	s1,8(sp)
    8020199a:	e04a                	sd	s2,0(sp)
    8020199c:	1000                	addi	s0,sp,32
    8020199e:	00053903          	ld	s2,0(a0)
    802019a2:	84ae                	mv	s1,a1
    802019a4:	852e                	mv	a0,a1
    802019a6:	00004097          	auipc	ra,0x4
    802019aa:	9c0080e7          	jalr	-1600(ra) # 80205366 <_ZN4core3fmt9Formatter15debug_lower_hex17hd83a264955057277E>
    802019ae:	cd01                	beqz	a0,802019c6 <_ZN42_$LT$$RF$T$u20$as$u20$core..fmt..Debug$GT$3fmt17h9dfb4629ba098819E.llvm.16990163026837873783+0x34>
    802019b0:	854a                	mv	a0,s2
    802019b2:	85a6                	mv	a1,s1
    802019b4:	60e2                	ld	ra,24(sp)
    802019b6:	6442                	ld	s0,16(sp)
    802019b8:	64a2                	ld	s1,8(sp)
    802019ba:	6902                	ld	s2,0(sp)
    802019bc:	6105                	addi	sp,sp,32
    802019be:	00005317          	auipc	t1,0x5
    802019c2:	a7430067          	jr	-1420(t1) # 80206432 <_ZN4core3fmt3num52_$LT$impl$u20$core..fmt..LowerHex$u20$for$u20$i8$GT$3fmt17heb4f7e0cc7fa1ee6E>
    802019c6:	8526                	mv	a0,s1
    802019c8:	00004097          	auipc	ra,0x4
    802019cc:	9a8080e7          	jalr	-1624(ra) # 80205370 <_ZN4core3fmt9Formatter15debug_upper_hex17h0837e66bcb51e2eeE>
    802019d0:	cd01                	beqz	a0,802019e8 <_ZN42_$LT$$RF$T$u20$as$u20$core..fmt..Debug$GT$3fmt17h9dfb4629ba098819E.llvm.16990163026837873783+0x56>
    802019d2:	854a                	mv	a0,s2
    802019d4:	85a6                	mv	a1,s1
    802019d6:	60e2                	ld	ra,24(sp)
    802019d8:	6442                	ld	s0,16(sp)
    802019da:	64a2                	ld	s1,8(sp)
    802019dc:	6902                	ld	s2,0(sp)
    802019de:	6105                	addi	sp,sp,32
    802019e0:	00005317          	auipc	t1,0x5
    802019e4:	adc30067          	jr	-1316(t1) # 802064bc <_ZN4core3fmt3num52_$LT$impl$u20$core..fmt..UpperHex$u20$for$u20$i8$GT$3fmt17hc7d7fcd2d26679e9E>
    802019e8:	854a                	mv	a0,s2
    802019ea:	85a6                	mv	a1,s1
    802019ec:	60e2                	ld	ra,24(sp)
    802019ee:	6442                	ld	s0,16(sp)
    802019f0:	64a2                	ld	s1,8(sp)
    802019f2:	6902                	ld	s2,0(sp)
    802019f4:	6105                	addi	sp,sp,32
    802019f6:	00005317          	auipc	t1,0x5
    802019fa:	fda30067          	jr	-38(t1) # 802069d0 <_ZN4core3fmt3num3imp51_$LT$impl$u20$core..fmt..Display$u20$for$u20$u8$GT$3fmt17h93332490606bba67E>

00000000802019fe <_ZN44_$LT$$RF$T$u20$as$u20$core..fmt..Display$GT$3fmt17hc83fb63968e07dbeE>:
    802019fe:	1141                	addi	sp,sp,-16
    80201a00:	e406                	sd	ra,8(sp)
    80201a02:	e022                	sd	s0,0(sp)
    80201a04:	0800                	addi	s0,sp,16
    80201a06:	6108                	ld	a0,0(a0)
    80201a08:	60a2                	ld	ra,8(sp)
    80201a0a:	6402                	ld	s0,0(sp)
    80201a0c:	0141                	addi	sp,sp,16
    80201a0e:	00003317          	auipc	t1,0x3
    80201a12:	2d230067          	jr	722(t1) # 80204ce0 <_ZN59_$LT$core..fmt..Arguments$u20$as$u20$core..fmt..Display$GT$3fmt17h14b26a2a8d914ef0E>

0000000080201a16 <_ZN44_$LT$$RF$T$u20$as$u20$core..fmt..Display$GT$3fmt17he9e9b4aa0ef791bdE>:
    80201a16:	1141                	addi	sp,sp,-16
    80201a18:	e406                	sd	ra,8(sp)
    80201a1a:	e022                	sd	s0,0(sp)
    80201a1c:	0800                	addi	s0,sp,16
    80201a1e:	6110                	ld	a2,0(a0)
    80201a20:	6514                	ld	a3,8(a0)
    80201a22:	872e                	mv	a4,a1
    80201a24:	8532                	mv	a0,a2
    80201a26:	85b6                	mv	a1,a3
    80201a28:	863a                	mv	a2,a4
    80201a2a:	60a2                	ld	ra,8(sp)
    80201a2c:	6402                	ld	s0,0(sp)
    80201a2e:	0141                	addi	sp,sp,16
    80201a30:	00004317          	auipc	t1,0x4
    80201a34:	d5e30067          	jr	-674(t1) # 8020578e <_ZN42_$LT$str$u20$as$u20$core..fmt..Display$GT$3fmt17h8884fddb1f24a834E>

0000000080201a38 <_ZN4core3ptr27drop_in_place$LT$$RF$u8$GT$17hfee7b4b95032946fE.llvm.16990163026837873783>:
    80201a38:	1141                	addi	sp,sp,-16
    80201a3a:	e406                	sd	ra,8(sp)
    80201a3c:	e022                	sd	s0,0(sp)
    80201a3e:	0800                	addi	s0,sp,16
    80201a40:	60a2                	ld	ra,8(sp)
    80201a42:	6402                	ld	s0,0(sp)
    80201a44:	0141                	addi	sp,sp,16
    80201a46:	8082                	ret

0000000080201a48 <_ZN4sel45timer16set_next_trigger17h513b968853dec90cE>:
    80201a48:	1141                	addi	sp,sp,-16
    80201a4a:	e406                	sd	ra,8(sp)
    80201a4c:	e022                	sd	s0,0(sp)
    80201a4e:	0800                	addi	s0,sp,16
    80201a50:	c0102573          	rdtime	a0
    80201a54:	65fd                	lui	a1,0x1f
    80201a56:	8485859b          	addiw	a1,a1,-1976
    80201a5a:	952e                	add	a0,a0,a1
    80201a5c:	4581                	li	a1,0
    80201a5e:	4601                	li	a2,0
    80201a60:	4881                	li	a7,0
    80201a62:	00000073          	ecall
    80201a66:	60a2                	ld	ra,8(sp)
    80201a68:	6402                	ld	s0,0(sp)
    80201a6a:	0141                	addi	sp,sp,16
    80201a6c:	8082                	ret

0000000080201a6e <_ZN4core3ptr48drop_in_place$LT$$RF$$u5b$u8$u3b$$u20$4$u5d$$GT$17he5e9f47f7831fce2E>:
    80201a6e:	1141                	addi	sp,sp,-16
    80201a70:	e406                	sd	ra,8(sp)
    80201a72:	e022                	sd	s0,0(sp)
    80201a74:	0800                	addi	s0,sp,16
    80201a76:	60a2                	ld	ra,8(sp)
    80201a78:	6402                	ld	s0,0(sp)
    80201a7a:	0141                	addi	sp,sp,16
    80201a7c:	8082                	ret

0000000080201a7e <_ZN4core9panicking13assert_failed17h363cf3a0a9f46c14E>:
    80201a7e:	715d                	addi	sp,sp,-80
    80201a80:	e486                	sd	ra,72(sp)
    80201a82:	e0a2                	sd	s0,64(sp)
    80201a84:	0880                	addi	s0,sp,80
    80201a86:	883a                	mv	a6,a4
    80201a88:	7698                	ld	a4,40(a3)
    80201a8a:	729c                	ld	a5,32(a3)
    80201a8c:	fab43823          	sd	a1,-80(s0)
    80201a90:	fac43c23          	sd	a2,-72(s0)
    80201a94:	fee43423          	sd	a4,-24(s0)
    80201a98:	fef43023          	sd	a5,-32(s0)
    80201a9c:	6e8c                	ld	a1,24(a3)
    80201a9e:	6a90                	ld	a2,16(a3)
    80201aa0:	6698                	ld	a4,8(a3)
    80201aa2:	6294                	ld	a3,0(a3)
    80201aa4:	fcb43c23          	sd	a1,-40(s0)
    80201aa8:	fcc43823          	sd	a2,-48(s0)
    80201aac:	fce43423          	sd	a4,-56(s0)
    80201ab0:	fcd43023          	sd	a3,-64(s0)

0000000080201ab4 <.LBB3_1>:
    80201ab4:	00008617          	auipc	a2,0x8
    80201ab8:	bb460613          	addi	a2,a2,-1100 # 80209668 <.Lanon.8597677b07c8412f5840735ba1d565f9.1>
    80201abc:	fb040593          	addi	a1,s0,-80
    80201ac0:	fb840693          	addi	a3,s0,-72
    80201ac4:	fc040793          	addi	a5,s0,-64
    80201ac8:	8732                	mv	a4,a2
    80201aca:	00003097          	auipc	ra,0x3
    80201ace:	9b8080e7          	jalr	-1608(ra) # 80204482 <_ZN4core9panicking19assert_failed_inner17h5d69d533fd27ec6dE>
	...

0000000080201ad4 <_ZN4sel43sbi8shutdown17h66331878ed4ddfbbE>:
    80201ad4:	7139                	addi	sp,sp,-64
    80201ad6:	fc06                	sd	ra,56(sp)
    80201ad8:	f822                	sd	s0,48(sp)
    80201ada:	0080                	addi	s0,sp,64
    80201adc:	48a1                	li	a7,8
    80201ade:	4501                	li	a0,0
    80201ae0:	4581                	li	a1,0
    80201ae2:	4601                	li	a2,0
    80201ae4:	00000073          	ecall

0000000080201ae8 <.LBB9_1>:
    80201ae8:	00008517          	auipc	a0,0x8
    80201aec:	bb850513          	addi	a0,a0,-1096 # 802096a0 <anon.8597677b07c8412f5840735ba1d565f9.3.llvm.17670979022865808846>
    80201af0:	fca43823          	sd	a0,-48(s0)
    80201af4:	4505                	li	a0,1
    80201af6:	fca43c23          	sd	a0,-40(s0)
    80201afa:	fc043023          	sd	zero,-64(s0)

0000000080201afe <.LBB9_2>:
    80201afe:	00008517          	auipc	a0,0x8
    80201b02:	b6a50513          	addi	a0,a0,-1174 # 80209668 <.Lanon.8597677b07c8412f5840735ba1d565f9.1>
    80201b06:	fea43023          	sd	a0,-32(s0)
    80201b0a:	fe043423          	sd	zero,-24(s0)

0000000080201b0e <.LBB9_3>:
    80201b0e:	00008597          	auipc	a1,0x8
    80201b12:	bb258593          	addi	a1,a1,-1102 # 802096c0 <anon.8597677b07c8412f5840735ba1d565f9.5.llvm.17670979022865808846>
    80201b16:	fc040513          	addi	a0,s0,-64
    80201b1a:	00003097          	auipc	ra,0x3
    80201b1e:	886080e7          	jalr	-1914(ra) # 802043a0 <_ZN4core9panicking9panic_fmt17h09608ae52bd0d3adE>
	...

0000000080201b24 <_ZN4sel46kernel6thread15tcbSchedEnqueue17h1d72ada17556cc33E>:
    80201b24:	1141                	addi	sp,sp,-16
    80201b26:	e406                	sd	ra,8(sp)
    80201b28:	e022                	sd	s0,0(sp)
    80201b2a:	0800                	addi	s0,sp,16
    80201b2c:	11853583          	ld	a1,280(a0)
    80201b30:	0085c603          	lbu	a2,8(a1)
    80201b34:	8a09                	andi	a2,a2,2
    80201b36:	ce41                	beqz	a2,80201bce <.LBB1_14+0x32>
    80201b38:	13053703          	ld	a4,304(a0)
    80201b3c:	14053803          	ld	a6,320(a0)
    80201b40:	00871613          	slli	a2,a4,0x8
    80201b44:	010606b3          	add	a3,a2,a6
    80201b48:	0ff00613          	li	a2,255
    80201b4c:	08d66563          	bltu	a2,a3,80201bd6 <.LBB1_15>
    80201b50:	00469613          	slli	a2,a3,0x4

0000000080201b54 <.LBB1_12>:
    80201b54:	00019697          	auipc	a3,0x19
    80201b58:	4ac68693          	addi	a3,a3,1196 # 8021b000 <_ZN4sel46kernel6thread13ksReadyQueues17h0c5e6ed1bfe301baE>
    80201b5c:	9636                	add	a2,a2,a3
    80201b5e:	661c                	ld	a5,8(a2)
    80201b60:	c799                	beqz	a5,80201b6e <.LBB1_12+0x1a>
    80201b62:	6214                	ld	a3,0(a2)
    80201b64:	16a7b023          	sd	a0,352(a5)
    80201b68:	11853583          	ld	a1,280(a0)
    80201b6c:	a0a9                	j	80201bb6 <.LBB1_14+0x1a>
    80201b6e:	e341                	bnez	a4,80201bee <.LBB1_16>
    80201b70:	00685713          	srli	a4,a6,0x6
    80201b74:	488d                	li	a7,3

0000000080201b76 <.LBB1_13>:
    80201b76:	00006697          	auipc	a3,0x6
    80201b7a:	86268693          	addi	a3,a3,-1950 # 802073d8 <_ZN4sel46kernel6thread21ksReadyQueuesL1Bitmap17hc4a588b6b77ec4b2E.0>
    80201b7e:	0006b303          	ld	t1,0(a3)
    80201b82:	40e882b3          	sub	t0,a7,a4
    80201b86:	4885                	li	a7,1
    80201b88:	00e89733          	sll	a4,a7,a4
    80201b8c:	00e36733          	or	a4,t1,a4
    80201b90:	4311                	li	t1,4
    80201b92:	e298                	sd	a4,0(a3)
    80201b94:	0662f863          	bgeu	t0,t1,80201c04 <.LBB1_17>
    80201b98:	00329693          	slli	a3,t0,0x3

0000000080201b9c <.LBB1_14>:
    80201b9c:	0001a717          	auipc	a4,0x1a
    80201ba0:	46470713          	addi	a4,a4,1124 # 8021c000 <_ZN4sel46kernel6thread21ksReadyQueuesL2Bitmap17h92fc9d67dbfd9d7fE>
    80201ba4:	96ba                	add	a3,a3,a4
    80201ba6:	0006b283          	ld	t0,0(a3)
    80201baa:	01089733          	sll	a4,a7,a6
    80201bae:	00e2e733          	or	a4,t0,a4
    80201bb2:	e298                	sd	a4,0(a3)
    80201bb4:	86aa                	mv	a3,a0
    80201bb6:	00860713          	addi	a4,a2,8
    80201bba:	16f53423          	sd	a5,360(a0)
    80201bbe:	16053023          	sd	zero,352(a0)
    80201bc2:	e214                	sd	a3,0(a2)
    80201bc4:	e31c                	sd	a5,0(a4)
    80201bc6:	6588                	ld	a0,8(a1)
    80201bc8:	00156513          	ori	a0,a0,1
    80201bcc:	e588                	sd	a0,8(a1)
    80201bce:	60a2                	ld	ra,8(sp)
    80201bd0:	6402                	ld	s0,0(sp)
    80201bd2:	0141                	addi	sp,sp,16
    80201bd4:	8082                	ret

0000000080201bd6 <.LBB1_15>:
    80201bd6:	00008617          	auipc	a2,0x8
    80201bda:	b9260613          	addi	a2,a2,-1134 # 80209768 <.Lanon.8fe7d2866e2fb9162858da6cfc053a79.7>
    80201bde:	10000593          	li	a1,256
    80201be2:	8536                	mv	a0,a3
    80201be4:	00003097          	auipc	ra,0x3
    80201be8:	85e080e7          	jalr	-1954(ra) # 80204442 <_ZN4core9panicking18panic_bounds_check17h03ed6527cd415bf9E>
	...

0000000080201bee <.LBB1_16>:
    80201bee:	00008617          	auipc	a2,0x8
    80201bf2:	b3260613          	addi	a2,a2,-1230 # 80209720 <.Lanon.8fe7d2866e2fb9162858da6cfc053a79.4>
    80201bf6:	4585                	li	a1,1
    80201bf8:	853a                	mv	a0,a4
    80201bfa:	00003097          	auipc	ra,0x3
    80201bfe:	848080e7          	jalr	-1976(ra) # 80204442 <_ZN4core9panicking18panic_bounds_check17h03ed6527cd415bf9E>
	...

0000000080201c04 <.LBB1_17>:
    80201c04:	00008617          	auipc	a2,0x8
    80201c08:	b3460613          	addi	a2,a2,-1228 # 80209738 <.Lanon.8fe7d2866e2fb9162858da6cfc053a79.5>
    80201c0c:	4591                	li	a1,4
    80201c0e:	8516                	mv	a0,t0
    80201c10:	00003097          	auipc	ra,0x3
    80201c14:	832080e7          	jalr	-1998(ra) # 80204442 <_ZN4core9panicking18panic_bounds_check17h03ed6527cd415bf9E>
	...

0000000080201c1a <_ZN4sel46kernel6thread14activateThread17h81e85e1ada5055fcE>:
    80201c1a:	7139                	addi	sp,sp,-64
    80201c1c:	fc06                	sd	ra,56(sp)
    80201c1e:	f822                	sd	s0,48(sp)
    80201c20:	0080                	addi	s0,sp,64

0000000080201c22 <.LBB4_10>:
    80201c22:	00005597          	auipc	a1,0x5
    80201c26:	7a658593          	addi	a1,a1,1958 # 802073c8 <_ZN4sel46kernel6thread11ksCurThread17h5a674989a535a6f6E>
    80201c2a:	6188                	ld	a0,0(a1)
    80201c2c:	4609                	li	a2,2
    80201c2e:	06c56963          	bltu	a0,a2,80201ca0 <.LBB4_12>
    80201c32:	11853603          	ld	a2,280(a0)
    80201c36:	6214                	ld	a3,0(a2)
    80201c38:	8abd                	andi	a3,a3,15
    80201c3a:	4705                	li	a4,1
    80201c3c:	00e68863          	beq	a3,a4,80201c4c <.LBB4_10+0x2a>
    80201c40:	4709                	li	a4,2
    80201c42:	00e68963          	beq	a3,a4,80201c54 <.LBB4_10+0x32>
    80201c46:	451d                	li	a0,7
    80201c48:	06a69b63          	bne	a3,a0,80201cbe <.LBB4_14>
    80201c4c:	70e2                	ld	ra,56(sp)
    80201c4e:	7442                	ld	s0,48(sp)
    80201c50:	6121                	addi	sp,sp,64
    80201c52:	8082                	ret
    80201c54:	10853683          	ld	a3,264(a0)
    80201c58:	10d53823          	sd	a3,272(a0)
    80201c5c:	6214                	ld	a3,0(a2)
    80201c5e:	9ac1                	andi	a3,a3,-16
    80201c60:	0016e693          	ori	a3,a3,1
    80201c64:	e214                	sd	a3,0(a2)
    80201c66:	6190                	ld	a2,0(a1)

0000000080201c68 <.LBB4_11>:
    80201c68:	00005597          	auipc	a1,0x5
    80201c6c:	76858593          	addi	a1,a1,1896 # 802073d0 <_ZN4sel46kernel6thread17ksSchedulerAction17h664402f21141ba94E.0.llvm.3040598260654478667>
    80201c70:	00058683          	lb	a3,0(a1)
    80201c74:	8e29                	xor	a2,a2,a0
    80201c76:	00163613          	seqz	a2,a2
    80201c7a:	0016c693          	xori	a3,a3,1
    80201c7e:	8e75                	and	a2,a2,a3
    80201c80:	d671                	beqz	a2,80201c4c <.LBB4_10+0x2a>
    80201c82:	11853503          	ld	a0,280(a0)
    80201c86:	6108                	ld	a0,0(a0)
    80201c88:	893d                	andi	a0,a0,15
    80201c8a:	1575                	addi	a0,a0,-3
    80201c8c:	5675                	li	a2,-3
    80201c8e:	faa66fe3          	bltu	a2,a0,80201c4c <.LBB4_10+0x2a>
    80201c92:	4505                	li	a0,1
    80201c94:	00a58023          	sb	a0,0(a1)
    80201c98:	70e2                	ld	ra,56(sp)
    80201c9a:	7442                	ld	s0,48(sp)
    80201c9c:	6121                	addi	sp,sp,64
    80201c9e:	8082                	ret

0000000080201ca0 <.LBB4_12>:
    80201ca0:	00008517          	auipc	a0,0x8
    80201ca4:	b1050513          	addi	a0,a0,-1264 # 802097b0 <anon.8fe7d2866e2fb9162858da6cfc053a79.10.llvm.3040598260654478667>

0000000080201ca8 <.LBB4_13>:
    80201ca8:	00008617          	auipc	a2,0x8
    80201cac:	b4060613          	addi	a2,a2,-1216 # 802097e8 <anon.8fe7d2866e2fb9162858da6cfc053a79.11.llvm.3040598260654478667>
    80201cb0:	03600593          	li	a1,54
    80201cb4:	00002097          	auipc	ra,0x2
    80201cb8:	71a080e7          	jalr	1818(ra) # 802043ce <_ZN4core9panicking5panic17h968d2b6b541ffadfE>
	...

0000000080201cbe <.LBB4_14>:
    80201cbe:	00008517          	auipc	a0,0x8
    80201cc2:	b6250513          	addi	a0,a0,-1182 # 80209820 <anon.8fe7d2866e2fb9162858da6cfc053a79.13.llvm.3040598260654478667>
    80201cc6:	fca43823          	sd	a0,-48(s0)
    80201cca:	4505                	li	a0,1
    80201ccc:	fca43c23          	sd	a0,-40(s0)
    80201cd0:	fc043023          	sd	zero,-64(s0)

0000000080201cd4 <.LBB4_15>:
    80201cd4:	00008517          	auipc	a0,0x8
    80201cd8:	a0450513          	addi	a0,a0,-1532 # 802096d8 <anon.8fe7d2866e2fb9162858da6cfc053a79.1.llvm.3040598260654478667>
    80201cdc:	fea43023          	sd	a0,-32(s0)
    80201ce0:	fe043423          	sd	zero,-24(s0)

0000000080201ce4 <.LBB4_16>:
    80201ce4:	00008597          	auipc	a1,0x8
    80201ce8:	b4c58593          	addi	a1,a1,-1204 # 80209830 <anon.8fe7d2866e2fb9162858da6cfc053a79.14.llvm.3040598260654478667>
    80201cec:	fc040513          	addi	a0,s0,-64
    80201cf0:	00002097          	auipc	ra,0x2
    80201cf4:	6b0080e7          	jalr	1712(ra) # 802043a0 <_ZN4core9panicking9panic_fmt17h09608ae52bd0d3adE>
	...

0000000080201cfa <_ZN4sel46kernel6thread23scheduleChooseNewThread17hb66c2c3adce6c0baE>:
    80201cfa:	1141                	addi	sp,sp,-16
    80201cfc:	e406                	sd	ra,8(sp)
    80201cfe:	e022                	sd	s0,0(sp)
    80201d00:	0800                	addi	s0,sp,16

0000000080201d02 <.LBB5_9>:
    80201d02:	00005517          	auipc	a0,0x5
    80201d06:	6d650513          	addi	a0,a0,1750 # 802073d8 <_ZN4sel46kernel6thread21ksReadyQueuesL1Bitmap17hc4a588b6b77ec4b2E.0>
    80201d0a:	6108                	ld	a0,0(a0)
    80201d0c:	c561                	beqz	a0,80201dd4 <.LBB5_15+0x1c>
    80201d0e:	00155593          	srli	a1,a0,0x1
    80201d12:	8d4d                	or	a0,a0,a1
    80201d14:	00255593          	srli	a1,a0,0x2
    80201d18:	8d4d                	or	a0,a0,a1
    80201d1a:	00455593          	srli	a1,a0,0x4
    80201d1e:	8d4d                	or	a0,a0,a1
    80201d20:	00855593          	srli	a1,a0,0x8
    80201d24:	8d4d                	or	a0,a0,a1
    80201d26:	01055593          	srli	a1,a0,0x10
    80201d2a:	8d4d                	or	a0,a0,a1
    80201d2c:	02055593          	srli	a1,a0,0x20
    80201d30:	8d4d                	or	a0,a0,a1
    80201d32:	fff54513          	not	a0,a0

0000000080201d36 <.LBB5_10>:
    80201d36:	00005597          	auipc	a1,0x5
    80201d3a:	2e258593          	addi	a1,a1,738 # 80207018 <.LCPI5_0>
    80201d3e:	618c                	ld	a1,0(a1)

0000000080201d40 <.LBB5_11>:
    80201d40:	00005617          	auipc	a2,0x5
    80201d44:	2e060613          	addi	a2,a2,736 # 80207020 <.LCPI5_1>
    80201d48:	6210                	ld	a2,0(a2)
    80201d4a:	00155693          	srli	a3,a0,0x1
    80201d4e:	8df5                	and	a1,a1,a3
    80201d50:	8d0d                	sub	a0,a0,a1
    80201d52:	00c575b3          	and	a1,a0,a2
    80201d56:	8109                	srli	a0,a0,0x2
    80201d58:	8d71                	and	a0,a0,a2
    80201d5a:	952e                	add	a0,a0,a1

0000000080201d5c <.LBB5_12>:
    80201d5c:	00005597          	auipc	a1,0x5
    80201d60:	2cc58593          	addi	a1,a1,716 # 80207028 <.LCPI5_2>
    80201d64:	618c                	ld	a1,0(a1)

0000000080201d66 <.LBB5_13>:
    80201d66:	00005617          	auipc	a2,0x5
    80201d6a:	2ca60613          	addi	a2,a2,714 # 80207030 <.LCPI5_3>
    80201d6e:	6210                	ld	a2,0(a2)
    80201d70:	00455693          	srli	a3,a0,0x4
    80201d74:	9536                	add	a0,a0,a3
    80201d76:	8d6d                	and	a0,a0,a1
    80201d78:	02c50533          	mul	a0,a0,a2
    80201d7c:	03855593          	srli	a1,a0,0x38
    80201d80:	fc458513          	addi	a0,a1,-60
    80201d84:	4611                	li	a2,4
    80201d86:	06c57563          	bgeu	a0,a2,80201df0 <.LBB5_17>
    80201d8a:	050e                	slli	a0,a0,0x3

0000000080201d8c <.LBB5_14>:
    80201d8c:	0001a617          	auipc	a2,0x1a
    80201d90:	27460613          	addi	a2,a2,628 # 8021c000 <_ZN4sel46kernel6thread21ksReadyQueuesL2Bitmap17h92fc9d67dbfd9d7fE>
    80201d94:	9532                	add	a0,a0,a2
    80201d96:	6108                	ld	a0,0(a0)
    80201d98:	03f00613          	li	a2,63
    80201d9c:	40a60533          	sub	a0,a2,a0
    80201da0:	059a                	slli	a1,a1,0x6
    80201da2:	6605                	lui	a2,0x1
    80201da4:	fc06061b          	addiw	a2,a2,-64
    80201da8:	40b605b3          	sub	a1,a2,a1
    80201dac:	8d4d                	or	a0,a0,a1
    80201dae:	0ff00593          	li	a1,255
    80201db2:	04a5e963          	bltu	a1,a0,80201e04 <.LBB5_18>
    80201db6:	0512                	slli	a0,a0,0x4

0000000080201db8 <.LBB5_15>:
    80201db8:	00019597          	auipc	a1,0x19
    80201dbc:	24858593          	addi	a1,a1,584 # 8021b000 <_ZN4sel46kernel6thread13ksReadyQueues17h0c5e6ed1bfe301baE>
    80201dc0:	952e                	add	a0,a0,a1
    80201dc2:	6108                	ld	a0,0(a0)
    80201dc4:	c939                	beqz	a0,80201e1a <.LBB5_19>
    80201dc6:	60a2                	ld	ra,8(sp)
    80201dc8:	6402                	ld	s0,0(sp)
    80201dca:	0141                	addi	sp,sp,16
    80201dcc:	00000317          	auipc	t1,0x0
    80201dd0:	06a30067          	jr	106(t1) # 80201e36 <_ZN4sel46kernel6thread14switchToThread17ha9c37249e771bdc1E>
    80201dd4:	fffff097          	auipc	ra,0xfffff
    80201dd8:	ff4080e7          	jalr	-12(ra) # 80200dc8 <_ZN4sel46kernel6vspace9setVMRoot17hf133a983aeb6f57eE>

0000000080201ddc <.LBB5_16>:
    80201ddc:	00005517          	auipc	a0,0x5
    80201de0:	5ec50513          	addi	a0,a0,1516 # 802073c8 <_ZN4sel46kernel6thread11ksCurThread17h5a674989a535a6f6E>
    80201de4:	00053023          	sd	zero,0(a0)
    80201de8:	60a2                	ld	ra,8(sp)
    80201dea:	6402                	ld	s0,0(sp)
    80201dec:	0141                	addi	sp,sp,16
    80201dee:	8082                	ret

0000000080201df0 <.LBB5_17>:
    80201df0:	00008617          	auipc	a2,0x8
    80201df4:	90060613          	addi	a2,a2,-1792 # 802096f0 <.Lanon.8fe7d2866e2fb9162858da6cfc053a79.2>
    80201df8:	4591                	li	a1,4
    80201dfa:	00002097          	auipc	ra,0x2
    80201dfe:	648080e7          	jalr	1608(ra) # 80204442 <_ZN4core9panicking18panic_bounds_check17h03ed6527cd415bf9E>
	...

0000000080201e04 <.LBB5_18>:
    80201e04:	00008617          	auipc	a2,0x8
    80201e08:	a4460613          	addi	a2,a2,-1468 # 80209848 <.Lanon.8fe7d2866e2fb9162858da6cfc053a79.15>
    80201e0c:	10000593          	li	a1,256
    80201e10:	00002097          	auipc	ra,0x2
    80201e14:	632080e7          	jalr	1586(ra) # 80204442 <_ZN4core9panicking18panic_bounds_check17h03ed6527cd415bf9E>
	...

0000000080201e1a <.LBB5_19>:
    80201e1a:	00008517          	auipc	a0,0x8
    80201e1e:	a4650513          	addi	a0,a0,-1466 # 80209860 <.Lanon.8fe7d2866e2fb9162858da6cfc053a79.16>

0000000080201e22 <.LBB5_20>:
    80201e22:	00008617          	auipc	a2,0x8
    80201e26:	a5e60613          	addi	a2,a2,-1442 # 80209880 <.Lanon.8fe7d2866e2fb9162858da6cfc053a79.17>
    80201e2a:	45f9                	li	a1,30
    80201e2c:	00002097          	auipc	ra,0x2
    80201e30:	5a2080e7          	jalr	1442(ra) # 802043ce <_ZN4core9panicking5panic17h968d2b6b541ffadfE>
	...

0000000080201e36 <_ZN4sel46kernel6thread14switchToThread17ha9c37249e771bdc1E>:
    80201e36:	1101                	addi	sp,sp,-32
    80201e38:	ec06                	sd	ra,24(sp)
    80201e3a:	e822                	sd	s0,16(sp)
    80201e3c:	e426                	sd	s1,8(sp)
    80201e3e:	1000                	addi	s0,sp,32
    80201e40:	84aa                	mv	s1,a0
    80201e42:	fffff097          	auipc	ra,0xfffff
    80201e46:	f86080e7          	jalr	-122(ra) # 80200dc8 <_ZN4sel46kernel6vspace9setVMRoot17hf133a983aeb6f57eE>
    80201e4a:	1184b503          	ld	a0,280(s1)
    80201e4e:	00854503          	lbu	a0,8(a0)
    80201e52:	8909                	andi	a0,a0,2
    80201e54:	c925                	beqz	a0,80201ec4 <.LBB6_17>
    80201e56:	1304b503          	ld	a0,304(s1)
    80201e5a:	1404b703          	ld	a4,320(s1)
    80201e5e:	00851593          	slli	a1,a0,0x8
    80201e62:	00e586b3          	add	a3,a1,a4
    80201e66:	0ff00593          	li	a1,255
    80201e6a:	0ad5e663          	bltu	a1,a3,80201f16 <.LBB6_20>
    80201e6e:	00469593          	slli	a1,a3,0x4

0000000080201e72 <.LBB6_16>:
    80201e72:	00019617          	auipc	a2,0x19
    80201e76:	18e60613          	addi	a2,a2,398 # 8021b000 <_ZN4sel46kernel6thread13ksReadyQueues17h0c5e6ed1bfe301baE>
    80201e7a:	95b2                	add	a1,a1,a2
    80201e7c:	1684b683          	ld	a3,360(s1)
    80201e80:	0005b803          	ld	a6,0(a1)
    80201e84:	00858893          	addi	a7,a1,8
    80201e88:	ce89                	beqz	a3,80201ea2 <.LBB6_16+0x30>
    80201e8a:	1604b503          	ld	a0,352(s1)
    80201e8e:	0008b603          	ld	a2,0(a7) # 1000 <n+0xfe0>
    80201e92:	16a6b023          	sd	a0,352(a3)
    80201e96:	1604b683          	ld	a3,352(s1)
    80201e9a:	1684b783          	ld	a5,360(s1)
    80201e9e:	e699                	bnez	a3,80201eac <.LBB6_16+0x3a>
    80201ea0:	a809                	j	80201eb2 <.LBB6_16+0x40>
    80201ea2:	1604b603          	ld	a2,352(s1)
    80201ea6:	4781                	li	a5,0
    80201ea8:	86b2                	mv	a3,a2
    80201eaa:	c61d                	beqz	a2,80201ed8 <.LBB6_17+0x14>
    80201eac:	16f6b423          	sd	a5,360(a3)
    80201eb0:	87b2                	mv	a5,a2
    80201eb2:	0105b023          	sd	a6,0(a1)
    80201eb6:	00f8b023          	sd	a5,0(a7)
    80201eba:	1184b503          	ld	a0,280(s1)
    80201ebe:	650c                	ld	a1,8(a0)
    80201ec0:	99f9                	andi	a1,a1,-2
    80201ec2:	e50c                	sd	a1,8(a0)

0000000080201ec4 <.LBB6_17>:
    80201ec4:	00005517          	auipc	a0,0x5
    80201ec8:	50450513          	addi	a0,a0,1284 # 802073c8 <_ZN4sel46kernel6thread11ksCurThread17h5a674989a535a6f6E>
    80201ecc:	e104                	sd	s1,0(a0)
    80201ece:	60e2                	ld	ra,24(sp)
    80201ed0:	6442                	ld	s0,16(sp)
    80201ed2:	64a2                	ld	s1,8(sp)
    80201ed4:	6105                	addi	sp,sp,32
    80201ed6:	8082                	ret
    80201ed8:	e939                	bnez	a0,80201f2e <.LBB6_21>
    80201eda:	8319                	srli	a4,a4,0x6
    80201edc:	450d                	li	a0,3
    80201ede:	8d19                	sub	a0,a0,a4
    80201ee0:	4611                	li	a2,4
    80201ee2:	06c57063          	bgeu	a0,a2,80201f42 <.LBB6_22>
    80201ee6:	050e                	slli	a0,a0,0x3

0000000080201ee8 <.LBB6_18>:
    80201ee8:	0001a617          	auipc	a2,0x1a
    80201eec:	11860613          	addi	a2,a2,280 # 8021c000 <_ZN4sel46kernel6thread21ksReadyQueuesL2Bitmap17h92fc9d67dbfd9d7fE>
    80201ef0:	9532                	add	a0,a0,a2
    80201ef2:	6108                	ld	a0,0(a0)
    80201ef4:	cd19                	beqz	a0,80201f12 <.LBB6_19+0x1a>
    80201ef6:	4781                	li	a5,0

0000000080201ef8 <.LBB6_19>:
    80201ef8:	00005517          	auipc	a0,0x5
    80201efc:	4e050513          	addi	a0,a0,1248 # 802073d8 <_ZN4sel46kernel6thread21ksReadyQueuesL1Bitmap17hc4a588b6b77ec4b2E.0>
    80201f00:	6110                	ld	a2,0(a0)
    80201f02:	4685                	li	a3,1
    80201f04:	00e696b3          	sll	a3,a3,a4
    80201f08:	fff6c693          	not	a3,a3
    80201f0c:	8e75                	and	a2,a2,a3
    80201f0e:	e110                	sd	a2,0(a0)
    80201f10:	b74d                	j	80201eb2 <.LBB6_16+0x40>
    80201f12:	4781                	li	a5,0
    80201f14:	bf79                	j	80201eb2 <.LBB6_16+0x40>

0000000080201f16 <.LBB6_20>:
    80201f16:	00008617          	auipc	a2,0x8
    80201f1a:	86a60613          	addi	a2,a2,-1942 # 80209780 <.Lanon.8fe7d2866e2fb9162858da6cfc053a79.8>
    80201f1e:	10000593          	li	a1,256
    80201f22:	8536                	mv	a0,a3
    80201f24:	00002097          	auipc	ra,0x2
    80201f28:	51e080e7          	jalr	1310(ra) # 80204442 <_ZN4core9panicking18panic_bounds_check17h03ed6527cd415bf9E>
	...

0000000080201f2e <.LBB6_21>:
    80201f2e:	00008617          	auipc	a2,0x8
    80201f32:	82260613          	addi	a2,a2,-2014 # 80209750 <.Lanon.8fe7d2866e2fb9162858da6cfc053a79.6>
    80201f36:	4585                	li	a1,1
    80201f38:	00002097          	auipc	ra,0x2
    80201f3c:	50a080e7          	jalr	1290(ra) # 80204442 <_ZN4core9panicking18panic_bounds_check17h03ed6527cd415bf9E>
	...

0000000080201f42 <.LBB6_22>:
    80201f42:	00008617          	auipc	a2,0x8
    80201f46:	80e60613          	addi	a2,a2,-2034 # 80209750 <.Lanon.8fe7d2866e2fb9162858da6cfc053a79.6>
    80201f4a:	4591                	li	a1,4
    80201f4c:	00002097          	auipc	ra,0x2
    80201f50:	4f6080e7          	jalr	1270(ra) # 80204442 <_ZN4core9panicking18panic_bounds_check17h03ed6527cd415bf9E>
	...

0000000080201f56 <_ZN4sel46kernel6thread8schedule17h98afa0e0bd73f0aaE>:
    80201f56:	7119                	addi	sp,sp,-128
    80201f58:	fc86                	sd	ra,120(sp)
    80201f5a:	f8a2                	sd	s0,112(sp)
    80201f5c:	f4a6                	sd	s1,104(sp)
    80201f5e:	f0ca                	sd	s2,96(sp)
    80201f60:	0100                	addi	s0,sp,128

0000000080201f62 <.LBB7_34>:
    80201f62:	00005917          	auipc	s2,0x5
    80201f66:	46e90913          	addi	s2,s2,1134 # 802073d0 <_ZN4sel46kernel6thread17ksSchedulerAction17h664402f21141ba94E.0.llvm.3040598260654478667>
    80201f6a:	00094503          	lbu	a0,0(s2)
    80201f6e:	c939                	beqz	a0,80201fc4 <.LBB7_35+0x54>

0000000080201f70 <.LBB7_35>:
    80201f70:	00005497          	auipc	s1,0x5
    80201f74:	45848493          	addi	s1,s1,1112 # 802073c8 <_ZN4sel46kernel6thread11ksCurThread17h5a674989a535a6f6E>
    80201f78:	6088                	ld	a0,0(s1)
    80201f7a:	11853583          	ld	a1,280(a0)
    80201f7e:	618c                	ld	a1,0(a1)
    80201f80:	89bd                	andi	a1,a1,15
    80201f82:	15fd                	addi	a1,a1,-1
    80201f84:	4609                	li	a2,2
    80201f86:	02c5f963          	bgeu	a1,a2,80201fb8 <.LBB7_35+0x48>
    80201f8a:	4585                	li	a1,1
    80201f8c:	f8b40723          	sb	a1,-114(s0)
    80201f90:	00000097          	auipc	ra,0x0
    80201f94:	b94080e7          	jalr	-1132(ra) # 80201b24 <_ZN4sel46kernel6thread15tcbSchedEnqueue17h1d72ada17556cc33E>
    80201f98:	00094503          	lbu	a0,0(s2)
    80201f9c:	e105                	bnez	a0,80201fbc <.LBB7_35+0x4c>
    80201f9e:	608c                	ld	a1,0(s1)
    80201fa0:	c995                	beqz	a1,80201fd4 <.LBB7_35+0x64>
    80201fa2:	14003603          	ld	a2,320(zero) # 140 <n+0x120>
    80201fa6:	1405b503          	ld	a0,320(a1)
    80201faa:	00a636b3          	sltu	a3,a2,a0
    80201fae:	f8d407a3          	sb	a3,-113(s0)
    80201fb2:	02a66663          	bltu	a2,a0,80201fde <.LBB7_36>
    80201fb6:	aa89                	j	80202108 <.LBB7_45+0x2a>
    80201fb8:	f8040723          	sb	zero,-114(s0)
    80201fbc:	00000097          	auipc	ra,0x0
    80201fc0:	d3e080e7          	jalr	-706(ra) # 80201cfa <_ZN4sel46kernel6thread23scheduleChooseNewThread17hb66c2c3adce6c0baE>
    80201fc4:	00090023          	sb	zero,0(s2)
    80201fc8:	70e6                	ld	ra,120(sp)
    80201fca:	7446                	ld	s0,112(sp)
    80201fcc:	74a6                	ld	s1,104(sp)
    80201fce:	7906                	ld	s2,96(sp)
    80201fd0:	6109                	addi	sp,sp,128
    80201fd2:	8082                	ret
    80201fd4:	4505                	li	a0,1
    80201fd6:	f8a407a3          	sb	a0,-113(s0)
    80201fda:	14003603          	ld	a2,320(zero) # 140 <n+0x120>

0000000080201fde <.LBB7_36>:
    80201fde:	00005517          	auipc	a0,0x5
    80201fe2:	3e250513          	addi	a0,a0,994 # 802073c0 <_ZN4sel46kernel6thread11ksCurDomain17hefcee3b518ffe650E>
    80201fe6:	6108                	ld	a0,0(a0)
    80201fe8:	26051d63          	bnez	a0,80202262 <.LBB7_55>

0000000080201fec <.LBB7_37>:
    80201fec:	00005517          	auipc	a0,0x5
    80201ff0:	3ec50513          	addi	a0,a0,1004 # 802073d8 <_ZN4sel46kernel6thread21ksReadyQueuesL1Bitmap17hc4a588b6b77ec4b2E.0>
    80201ff4:	6108                	ld	a0,0(a0)
    80201ff6:	10050963          	beqz	a0,80202108 <.LBB7_45+0x2a>
    80201ffa:	00155693          	srli	a3,a0,0x1
    80201ffe:	8d55                	or	a0,a0,a3
    80202000:	00255693          	srli	a3,a0,0x2
    80202004:	8d55                	or	a0,a0,a3
    80202006:	00455693          	srli	a3,a0,0x4
    8020200a:	8d55                	or	a0,a0,a3
    8020200c:	00855693          	srli	a3,a0,0x8
    80202010:	8d55                	or	a0,a0,a3
    80202012:	01055693          	srli	a3,a0,0x10
    80202016:	8d55                	or	a0,a0,a3
    80202018:	02055693          	srli	a3,a0,0x20
    8020201c:	8d55                	or	a0,a0,a3
    8020201e:	fff54513          	not	a0,a0

0000000080202022 <.LBB7_38>:
    80202022:	00005697          	auipc	a3,0x5
    80202026:	01668693          	addi	a3,a3,22 # 80207038 <.LCPI7_0>
    8020202a:	6294                	ld	a3,0(a3)

000000008020202c <.LBB7_39>:
    8020202c:	00005717          	auipc	a4,0x5
    80202030:	01470713          	addi	a4,a4,20 # 80207040 <.LCPI7_1>
    80202034:	6318                	ld	a4,0(a4)
    80202036:	00155793          	srli	a5,a0,0x1
    8020203a:	8efd                	and	a3,a3,a5
    8020203c:	8d15                	sub	a0,a0,a3
    8020203e:	00e576b3          	and	a3,a0,a4
    80202042:	8109                	srli	a0,a0,0x2
    80202044:	8d79                	and	a0,a0,a4
    80202046:	9536                	add	a0,a0,a3

0000000080202048 <.LBB7_40>:
    80202048:	00005697          	auipc	a3,0x5
    8020204c:	00068693          	mv	a3,a3
    80202050:	6294                	ld	a3,0(a3)

0000000080202052 <.LBB7_41>:
    80202052:	00005717          	auipc	a4,0x5
    80202056:	ffe70713          	addi	a4,a4,-2 # 80207050 <.LCPI7_3>
    8020205a:	6318                	ld	a4,0(a4)
    8020205c:	00455793          	srli	a5,a0,0x4
    80202060:	953e                	add	a0,a0,a5
    80202062:	8d75                	and	a0,a0,a3
    80202064:	02e50533          	mul	a0,a0,a4
    80202068:	03855693          	srli	a3,a0,0x38
    8020206c:	fc468513          	addi	a0,a3,-60 # 8020700c <.LCPI4_1+0x4>
    80202070:	4711                	li	a4,4
    80202072:	20e57263          	bgeu	a0,a4,80202276 <.LBB7_56>
    80202076:	050e                	slli	a0,a0,0x3

0000000080202078 <.LBB7_42>:
    80202078:	0001a717          	auipc	a4,0x1a
    8020207c:	f8870713          	addi	a4,a4,-120 # 8021c000 <_ZN4sel46kernel6thread21ksReadyQueuesL2Bitmap17h92fc9d67dbfd9d7fE>
    80202080:	953a                	add	a0,a0,a4
    80202082:	6108                	ld	a0,0(a0)
    80202084:	03f00713          	li	a4,63
    80202088:	40a70533          	sub	a0,a4,a0
    8020208c:	069a                	slli	a3,a3,0x6
    8020208e:	6705                	lui	a4,0x1
    80202090:	fc07071b          	addiw	a4,a4,-64
    80202094:	40d706b3          	sub	a3,a4,a3
    80202098:	8d55                	or	a0,a0,a3
    8020209a:	06a67763          	bgeu	a2,a0,80202108 <.LBB7_45+0x2a>
    8020209e:	f8f40513          	addi	a0,s0,-113
    802020a2:	f8a43823          	sd	a0,-112(s0)

00000000802020a6 <.LBB7_43>:
    802020a6:	00003517          	auipc	a0,0x3
    802020aa:	30850513          	addi	a0,a0,776 # 802053ae <_ZN43_$LT$bool$u20$as$u20$core..fmt..Display$GT$3fmt17h215c37b64054281aE>
    802020ae:	f8a43c23          	sd	a0,-104(s0)
    802020b2:	fd840513          	addi	a0,s0,-40
    802020b6:	faa43023          	sd	a0,-96(s0)
    802020ba:	fa043423          	sd	zero,-88(s0)

00000000802020be <.LBB7_44>:
    802020be:	00007517          	auipc	a0,0x7
    802020c2:	7ea50513          	addi	a0,a0,2026 # 802098a8 <.Lanon.8fe7d2866e2fb9162858da6cfc053a79.20>
    802020c6:	faa43c23          	sd	a0,-72(s0)
    802020ca:	4509                	li	a0,2
    802020cc:	fca43023          	sd	a0,-64(s0)
    802020d0:	f9040513          	addi	a0,s0,-112
    802020d4:	fca43423          	sd	a0,-56(s0)
    802020d8:	4485                	li	s1,1
    802020da:	fc943823          	sd	s1,-48(s0)

00000000802020de <.LBB7_45>:
    802020de:	00008597          	auipc	a1,0x8
    802020e2:	0e258593          	addi	a1,a1,226 # 8020a1c0 <anon.f016384ff5f45e36efedd53711d4611b.0.llvm.493118147765580453>
    802020e6:	fa040513          	addi	a0,s0,-96
    802020ea:	fa840613          	addi	a2,s0,-88
    802020ee:	00003097          	auipc	ra,0x3
    802020f2:	c24080e7          	jalr	-988(ra) # 80204d12 <_ZN4core3fmt5write17h42fcd7b837de3f75E>
    802020f6:	1c051a63          	bnez	a0,802022ca <.LBB7_60>
    802020fa:	00000097          	auipc	ra,0x0
    802020fe:	a2a080e7          	jalr	-1494(ra) # 80201b24 <_ZN4sel46kernel6thread15tcbSchedEnqueue17h1d72ada17556cc33E>
    80202102:	00990023          	sb	s1,0(s2)
    80202106:	bd5d                	j	80201fbc <.LBB7_35+0x4c>
    80202108:	1405b503          	ld	a0,320(a1)
    8020210c:	0aa61163          	bne	a2,a0,802021ae <.LBB7_49+0x1a>
    80202110:	f8e40513          	addi	a0,s0,-114
    80202114:	f8a43823          	sd	a0,-112(s0)

0000000080202118 <.LBB7_46>:
    80202118:	00003517          	auipc	a0,0x3
    8020211c:	29650513          	addi	a0,a0,662 # 802053ae <_ZN43_$LT$bool$u20$as$u20$core..fmt..Display$GT$3fmt17h215c37b64054281aE>
    80202120:	f8a43c23          	sd	a0,-104(s0)
    80202124:	fd840513          	addi	a0,s0,-40
    80202128:	faa43023          	sd	a0,-96(s0)
    8020212c:	fa043423          	sd	zero,-88(s0)

0000000080202130 <.LBB7_47>:
    80202130:	00007517          	auipc	a0,0x7
    80202134:	7a850513          	addi	a0,a0,1960 # 802098d8 <.Lanon.8fe7d2866e2fb9162858da6cfc053a79.22>
    80202138:	faa43c23          	sd	a0,-72(s0)
    8020213c:	4509                	li	a0,2
    8020213e:	fca43023          	sd	a0,-64(s0)
    80202142:	f9040513          	addi	a0,s0,-112
    80202146:	fca43423          	sd	a0,-56(s0)
    8020214a:	4505                	li	a0,1
    8020214c:	fca43823          	sd	a0,-48(s0)

0000000080202150 <.LBB7_48>:
    80202150:	00008597          	auipc	a1,0x8
    80202154:	07058593          	addi	a1,a1,112 # 8020a1c0 <anon.f016384ff5f45e36efedd53711d4611b.0.llvm.493118147765580453>
    80202158:	fa040513          	addi	a0,s0,-96
    8020215c:	fa840613          	addi	a2,s0,-88
    80202160:	00003097          	auipc	ra,0x3
    80202164:	bb2080e7          	jalr	-1102(ra) # 80204d12 <_ZN4core3fmt5write17h42fcd7b837de3f75E>
    80202168:	16051163          	bnez	a0,802022ca <.LBB7_60>
    8020216c:	11803583          	ld	a1,280(zero) # 118 <n+0xf8>
    80202170:	0085c503          	lbu	a0,8(a1)
    80202174:	8909                	andi	a0,a0,2
    80202176:	c175                	beqz	a0,8020225a <.LBB7_54+0x2c>
    80202178:	13003503          	ld	a0,304(zero) # 130 <n+0x110>
    8020217c:	14003783          	ld	a5,320(zero) # 140 <n+0x120>
    80202180:	00851613          	slli	a2,a0,0x8
    80202184:	00f606b3          	add	a3,a2,a5
    80202188:	0ff00613          	li	a2,255
    8020218c:	0ed66f63          	bltu	a2,a3,8020228a <.LBB7_57>
    80202190:	00469613          	slli	a2,a3,0x4

0000000080202194 <.LBB7_49>:
    80202194:	00019697          	auipc	a3,0x19
    80202198:	e6c68693          	addi	a3,a3,-404 # 8021b000 <_ZN4sel46kernel6thread13ksReadyQueues17h0c5e6ed1bfe301baE>
    8020219c:	9636                	add	a2,a2,a3
    8020219e:	6214                	ld	a3,0(a2)
    802021a0:	6618                	ld	a4,8(a2)
    802021a2:	ceb9                	beqz	a3,80202200 <.LBB7_52+0x24>
    802021a4:	16073023          	sd	zero,352(a4) # 1160 <n+0x1140>
    802021a8:	11803583          	ld	a1,280(zero) # 118 <n+0xf8>
    802021ac:	a859                	j	80202242 <.LBB7_54+0x14>
    802021ae:	fd840513          	addi	a0,s0,-40
    802021b2:	f8a43823          	sd	a0,-112(s0)
    802021b6:	fa043423          	sd	zero,-88(s0)

00000000802021ba <.LBB7_50>:
    802021ba:	00007517          	auipc	a0,0x7
    802021be:	74650513          	addi	a0,a0,1862 # 80209900 <.Lanon.8fe7d2866e2fb9162858da6cfc053a79.24>
    802021c2:	faa43c23          	sd	a0,-72(s0)
    802021c6:	4505                	li	a0,1
    802021c8:	fca43023          	sd	a0,-64(s0)

00000000802021cc <.LBB7_51>:
    802021cc:	00007517          	auipc	a0,0x7
    802021d0:	50c50513          	addi	a0,a0,1292 # 802096d8 <anon.8fe7d2866e2fb9162858da6cfc053a79.1.llvm.3040598260654478667>
    802021d4:	fca43423          	sd	a0,-56(s0)
    802021d8:	fc043823          	sd	zero,-48(s0)

00000000802021dc <.LBB7_52>:
    802021dc:	00008597          	auipc	a1,0x8
    802021e0:	fe458593          	addi	a1,a1,-28 # 8020a1c0 <anon.f016384ff5f45e36efedd53711d4611b.0.llvm.493118147765580453>
    802021e4:	f9040513          	addi	a0,s0,-112
    802021e8:	fa840613          	addi	a2,s0,-88
    802021ec:	00003097          	auipc	ra,0x3
    802021f0:	b26080e7          	jalr	-1242(ra) # 80204d12 <_ZN4core3fmt5write17h42fcd7b837de3f75E>
    802021f4:	e979                	bnez	a0,802022ca <.LBB7_60>
    802021f6:	00000097          	auipc	ra,0x0
    802021fa:	c40080e7          	jalr	-960(ra) # 80201e36 <_ZN4sel46kernel6thread14switchToThread17ha9c37249e771bdc1E>
    802021fe:	b3d9                	j	80201fc4 <.LBB7_35+0x54>
    80202200:	e14d                	bnez	a0,802022a2 <.LBB7_58>
    80202202:	0067d893          	srli	a7,a5,0x6
    80202206:	450d                	li	a0,3

0000000080202208 <.LBB7_53>:
    80202208:	00005317          	auipc	t1,0x5
    8020220c:	1d030313          	addi	t1,t1,464 # 802073d8 <_ZN4sel46kernel6thread21ksReadyQueuesL1Bitmap17hc4a588b6b77ec4b2E.0>
    80202210:	00033283          	ld	t0,0(t1)
    80202214:	41150533          	sub	a0,a0,a7
    80202218:	4805                	li	a6,1
    8020221a:	011814b3          	sll	s1,a6,a7
    8020221e:	0092e4b3          	or	s1,t0,s1
    80202222:	4891                	li	a7,4
    80202224:	00933023          	sd	s1,0(t1)
    80202228:	09157763          	bgeu	a0,a7,802022b6 <.LBB7_59>
    8020222c:	050e                	slli	a0,a0,0x3

000000008020222e <.LBB7_54>:
    8020222e:	0001a497          	auipc	s1,0x1a
    80202232:	dd248493          	addi	s1,s1,-558 # 8021c000 <_ZN4sel46kernel6thread21ksReadyQueuesL2Bitmap17h92fc9d67dbfd9d7fE>
    80202236:	9526                	add	a0,a0,s1
    80202238:	6104                	ld	s1,0(a0)
    8020223a:	00f817b3          	sll	a5,a6,a5
    8020223e:	8fc5                	or	a5,a5,s1
    80202240:	e11c                	sd	a5,0(a0)
    80202242:	00860513          	addi	a0,a2,8
    80202246:	16e03423          	sd	a4,360(zero) # 168 <n+0x148>
    8020224a:	16003023          	sd	zero,352(zero) # 160 <n+0x140>
    8020224e:	e214                	sd	a3,0(a2)
    80202250:	e118                	sd	a4,0(a0)
    80202252:	6588                	ld	a0,8(a1)
    80202254:	00156513          	ori	a0,a0,1
    80202258:	e588                	sd	a0,8(a1)
    8020225a:	4505                	li	a0,1
    8020225c:	00a90023          	sb	a0,0(s2)
    80202260:	bbb1                	j	80201fbc <.LBB7_35+0x4c>

0000000080202262 <.LBB7_55>:
    80202262:	00007617          	auipc	a2,0x7
    80202266:	4a660613          	addi	a2,a2,1190 # 80209708 <.Lanon.8fe7d2866e2fb9162858da6cfc053a79.3>
    8020226a:	4585                	li	a1,1
    8020226c:	00002097          	auipc	ra,0x2
    80202270:	1d6080e7          	jalr	470(ra) # 80204442 <_ZN4core9panicking18panic_bounds_check17h03ed6527cd415bf9E>
	...

0000000080202276 <.LBB7_56>:
    80202276:	00007617          	auipc	a2,0x7
    8020227a:	47a60613          	addi	a2,a2,1146 # 802096f0 <.Lanon.8fe7d2866e2fb9162858da6cfc053a79.2>
    8020227e:	4591                	li	a1,4
    80202280:	00002097          	auipc	ra,0x2
    80202284:	1c2080e7          	jalr	450(ra) # 80204442 <_ZN4core9panicking18panic_bounds_check17h03ed6527cd415bf9E>
	...

000000008020228a <.LBB7_57>:
    8020228a:	00007617          	auipc	a2,0x7
    8020228e:	50e60613          	addi	a2,a2,1294 # 80209798 <.Lanon.8fe7d2866e2fb9162858da6cfc053a79.9>
    80202292:	10000593          	li	a1,256
    80202296:	8536                	mv	a0,a3
    80202298:	00002097          	auipc	ra,0x2
    8020229c:	1aa080e7          	jalr	426(ra) # 80204442 <_ZN4core9panicking18panic_bounds_check17h03ed6527cd415bf9E>
	...

00000000802022a2 <.LBB7_58>:
    802022a2:	00007617          	auipc	a2,0x7
    802022a6:	47e60613          	addi	a2,a2,1150 # 80209720 <.Lanon.8fe7d2866e2fb9162858da6cfc053a79.4>
    802022aa:	4585                	li	a1,1
    802022ac:	00002097          	auipc	ra,0x2
    802022b0:	196080e7          	jalr	406(ra) # 80204442 <_ZN4core9panicking18panic_bounds_check17h03ed6527cd415bf9E>
	...

00000000802022b6 <.LBB7_59>:
    802022b6:	00007617          	auipc	a2,0x7
    802022ba:	48260613          	addi	a2,a2,1154 # 80209738 <.Lanon.8fe7d2866e2fb9162858da6cfc053a79.5>
    802022be:	4591                	li	a1,4
    802022c0:	00002097          	auipc	ra,0x2
    802022c4:	182080e7          	jalr	386(ra) # 80204442 <_ZN4core9panicking18panic_bounds_check17h03ed6527cd415bf9E>
	...

00000000802022ca <.LBB7_60>:
    802022ca:	00008517          	auipc	a0,0x8
    802022ce:	f2650513          	addi	a0,a0,-218 # 8020a1f0 <anon.f016384ff5f45e36efedd53711d4611b.1.llvm.493118147765580453>

00000000802022d2 <.LBB7_61>:
    802022d2:	00008697          	auipc	a3,0x8
    802022d6:	f4e68693          	addi	a3,a3,-178 # 8020a220 <anon.f016384ff5f45e36efedd53711d4611b.2.llvm.493118147765580453>

00000000802022da <.LBB7_62>:
    802022da:	00008717          	auipc	a4,0x8
    802022de:	f7670713          	addi	a4,a4,-138 # 8020a250 <anon.f016384ff5f45e36efedd53711d4611b.4.llvm.493118147765580453>
    802022e2:	02b00593          	li	a1,43
    802022e6:	fd840613          	addi	a2,s0,-40
    802022ea:	00002097          	auipc	ra,0x2
    802022ee:	284080e7          	jalr	644(ra) # 8020456e <_ZN4core6result13unwrap_failed17h93c501911315d321E>
	...

00000000802022f4 <trap_entry>:
    802022f4:	140292f3          	csrrw	t0,sscratch,t0
    802022f8:	0012b023          	sd	ra,0(t0)
    802022fc:	0022b423          	sd	sp,8(t0)
    80202300:	0032b823          	sd	gp,16(t0)
    80202304:	0042bc23          	sd	tp,24(t0)
    80202308:	0262b423          	sd	t1,40(t0)
    8020230c:	0272b823          	sd	t2,48(t0)
    80202310:	0282bc23          	sd	s0,56(t0)
    80202314:	0492b023          	sd	s1,64(t0)
    80202318:	04a2b423          	sd	a0,72(t0)
    8020231c:	04b2b823          	sd	a1,80(t0)
    80202320:	04c2bc23          	sd	a2,88(t0)
    80202324:	06d2b023          	sd	a3,96(t0)
    80202328:	06e2b423          	sd	a4,104(t0)
    8020232c:	06f2b823          	sd	a5,112(t0)
    80202330:	0702bc23          	sd	a6,120(t0)
    80202334:	0912b023          	sd	a7,128(t0)
    80202338:	0922b423          	sd	s2,136(t0)
    8020233c:	0932b823          	sd	s3,144(t0)
    80202340:	0942bc23          	sd	s4,152(t0)
    80202344:	0b52b023          	sd	s5,160(t0)
    80202348:	0b62b423          	sd	s6,168(t0)
    8020234c:	0b72b823          	sd	s7,176(t0)
    80202350:	0b82bc23          	sd	s8,184(t0)
    80202354:	0d92b023          	sd	s9,192(t0)
    80202358:	0da2b423          	sd	s10,200(t0)
    8020235c:	0db2b823          	sd	s11,208(t0)
    80202360:	0dc2bc23          	sd	t3,216(t0)
    80202364:	0fd2b023          	sd	t4,224(t0)
    80202368:	0fe2b423          	sd	t5,232(t0)
    8020236c:	0ff2b823          	sd	t6,240(t0)
    80202370:	140020f3          	csrr	ra,sscratch
    80202374:	0212b023          	sd	ra,32(t0)
    80202378:	100020f3          	csrr	ra,sstatus
    8020237c:	1012b023          	sd	ra,256(t0)
    80202380:	14202473          	csrr	s0,scause
    80202384:	0e82bc23          	sd	s0,248(t0)
    80202388:	141020f3          	csrr	ra,sepc
    8020238c:	1012b423          	sd	ra,264(t0)

0000000080202390 <.Lpcrel_hi0>:
    80202390:	0081c117          	auipc	sp,0x81c
    80202394:	c7010113          	addi	sp,sp,-912 # 80a1e000 <ekernel_stack_alloc>

0000000080202398 <.Lpcrel_hi1>:
    80202398:	00005197          	auipc	gp,0x5
    8020239c:	46818193          	addi	gp,gp,1128 # 80207800 <__global_pointer$>
    802023a0:	00000097          	auipc	ra,0x0
    802023a4:	1e0080e7          	jalr	480(ra) # 80202580 <trap_handler>

00000000802023a8 <_ZN4sel45traps4init17h3fdfe01b44744affE>:
    802023a8:	1141                	addi	sp,sp,-16
    802023aa:	e406                	sd	ra,8(sp)
    802023ac:	e022                	sd	s0,0(sp)
    802023ae:	0800                	addi	s0,sp,16

00000000802023b0 <.LBB0_1>:
    802023b0:	00000517          	auipc	a0,0x0
    802023b4:	f4450513          	addi	a0,a0,-188 # 802022f4 <trap_entry>
    802023b8:	10551073          	csrw	stvec,a0
    802023bc:	60a2                	ld	ra,8(sp)
    802023be:	6402                	ld	s0,0(sp)
    802023c0:	0141                	addi	sp,sp,16
    802023c2:	8082                	ret

00000000802023c4 <_ZN4sel45traps22enable_timer_interrupt17h587f2d4d79e42ea3E>:
    802023c4:	1141                	addi	sp,sp,-16
    802023c6:	e406                	sd	ra,8(sp)
    802023c8:	e022                	sd	s0,0(sp)
    802023ca:	0800                	addi	s0,sp,16
    802023cc:	02000513          	li	a0,32
    802023d0:	10452073          	csrs	sie,a0
    802023d4:	60a2                	ld	ra,8(sp)
    802023d6:	6402                	ld	s0,0(sp)
    802023d8:	0141                	addi	sp,sp,16
    802023da:	8082                	ret

00000000802023dc <_ZN4sel45traps20restore_user_context17he67396054724b40fE>:
    802023dc:	7115                	addi	sp,sp,-224
    802023de:	ed86                	sd	ra,216(sp)
    802023e0:	e9a2                	sd	s0,208(sp)
    802023e2:	e5a6                	sd	s1,200(sp)
    802023e4:	e1ca                	sd	s2,192(sp)
    802023e6:	fd4e                	sd	s3,184(sp)
    802023e8:	f952                	sd	s4,176(sp)
    802023ea:	f556                	sd	s5,168(sp)
    802023ec:	f15a                	sd	s6,160(sp)
    802023ee:	ed5e                	sd	s7,152(sp)
    802023f0:	e962                	sd	s8,144(sp)
    802023f2:	e566                	sd	s9,136(sp)
    802023f4:	e16a                	sd	s10,128(sp)
    802023f6:	fcee                	sd	s11,120(sp)
    802023f8:	1180                	addi	s0,sp,224
    802023fa:	4a01                	li	s4,0
    802023fc:	4481                	li	s1,0

00000000802023fe <.LBB2_5>:
    802023fe:	00005a97          	auipc	s5,0x5
    80202402:	fcaa8a93          	addi	s5,s5,-54 # 802073c8 <_ZN4sel46kernel6thread11ksCurThread17h5a674989a535a6f6E>
    80202406:	000ab503          	ld	a0,0(s5)
    8020240a:	f2a43423          	sd	a0,-216(s0)

000000008020240e <.LBB2_6>:
    8020240e:	00004b97          	auipc	s7,0x4
    80202412:	604b8b93          	addi	s7,s7,1540 # 80206a12 <_ZN4core3fmt3num3imp52_$LT$impl$u20$core..fmt..Display$u20$for$u20$u64$GT$3fmt17h77ff5d762b7f8e58E>

0000000080202416 <.LBB2_7>:
    80202416:	00004c17          	auipc	s8,0x4
    8020241a:	130c0c13          	addi	s8,s8,304 # 80206546 <_ZN4core3fmt3num53_$LT$impl$u20$core..fmt..LowerHex$u20$for$u20$i64$GT$3fmt17hdf8f6c6faa92793eE>

000000008020241e <.LBB2_8>:
    8020241e:	00007d17          	auipc	s10,0x7
    80202422:	572d0d13          	addi	s10,s10,1394 # 80209990 <.Lanon.349ad79921b4865228cfc4d2ddbdb451.6>
    80202426:	4d89                	li	s11,2

0000000080202428 <.LBB2_9>:
    80202428:	00007997          	auipc	s3,0x7
    8020242c:	4f898993          	addi	s3,s3,1272 # 80209920 <.Lanon.349ad79921b4865228cfc4d2ddbdb451.4>
    80202430:	f3840c93          	addi	s9,s0,-200

0000000080202434 <.LBB2_10>:
    80202434:	00008917          	auipc	s2,0x8
    80202438:	d8c90913          	addi	s2,s2,-628 # 8020a1c0 <anon.f016384ff5f45e36efedd53711d4611b.0.llvm.493118147765580453>
    8020243c:	02300b13          	li	s6,35
    80202440:	000ab503          	ld	a0,0(s5)
    80202444:	f2943823          	sd	s1,-208(s0)
    80202448:	9552                	add	a0,a0,s4
    8020244a:	f3040593          	addi	a1,s0,-208
    8020244e:	f2b43c23          	sd	a1,-200(s0)
    80202452:	f5743023          	sd	s7,-192(s0)
    80202456:	f4a43423          	sd	a0,-184(s0)
    8020245a:	f5843823          	sd	s8,-176(s0)
    8020245e:	f9040513          	addi	a0,s0,-112
    80202462:	f4a43c23          	sd	a0,-168(s0)
    80202466:	f7a43023          	sd	s10,-160(s0)
    8020246a:	f7b43423          	sd	s11,-152(s0)
    8020246e:	f7343823          	sd	s3,-144(s0)
    80202472:	450d                	li	a0,3
    80202474:	f6a43c23          	sd	a0,-136(s0)
    80202478:	f9943023          	sd	s9,-128(s0)
    8020247c:	f9b43423          	sd	s11,-120(s0)
    80202480:	f5840513          	addi	a0,s0,-168
    80202484:	f6040613          	addi	a2,s0,-160
    80202488:	85ca                	mv	a1,s2
    8020248a:	00003097          	auipc	ra,0x3
    8020248e:	888080e7          	jalr	-1912(ra) # 80204d12 <_ZN4core3fmt5write17h42fcd7b837de3f75E>
    80202492:	e171                	bnez	a0,80202556 <.LBB2_11>
    80202494:	0485                	addi	s1,s1,1
    80202496:	0a21                	addi	s4,s4,8
    80202498:	fb6494e3          	bne	s1,s6,80202440 <.LBB2_10+0xc>
    8020249c:	f2843503          	ld	a0,-216(s0)
    802024a0:	82aa                	mv	t0,a0
    802024a2:	0002b083          	ld	ra,0(t0)
    802024a6:	0082b103          	ld	sp,8(t0)
    802024aa:	0102b183          	ld	gp,16(t0)
    802024ae:	0302b383          	ld	t2,48(t0)
    802024b2:	0382b403          	ld	s0,56(t0)
    802024b6:	0402b483          	ld	s1,64(t0)
    802024ba:	0482b503          	ld	a0,72(t0)
    802024be:	0502b583          	ld	a1,80(t0)
    802024c2:	0582b603          	ld	a2,88(t0)
    802024c6:	0602b683          	ld	a3,96(t0)
    802024ca:	0682b703          	ld	a4,104(t0)
    802024ce:	0702b783          	ld	a5,112(t0)
    802024d2:	0782b803          	ld	a6,120(t0)
    802024d6:	0802b883          	ld	a7,128(t0)
    802024da:	0882b903          	ld	s2,136(t0)
    802024de:	0902b983          	ld	s3,144(t0)
    802024e2:	0982ba03          	ld	s4,152(t0)
    802024e6:	0a02ba83          	ld	s5,160(t0)
    802024ea:	0a82bb03          	ld	s6,168(t0)
    802024ee:	0b02bb83          	ld	s7,176(t0)
    802024f2:	0b82bc03          	ld	s8,184(t0)
    802024f6:	0c02bc83          	ld	s9,192(t0)
    802024fa:	0c82bd03          	ld	s10,200(t0)
    802024fe:	0d02bd83          	ld	s11,208(t0)
    80202502:	0d82be03          	ld	t3,216(t0)
    80202506:	0e02be83          	ld	t4,224(t0)
    8020250a:	0e82bf03          	ld	t5,232(t0)
    8020250e:	0f02bf83          	ld	t6,240(t0)
    80202512:	0182b303          	ld	t1,24(t0)
    80202516:	821a                	mv	tp,t1
    80202518:	1102b303          	ld	t1,272(t0)
    8020251c:	14131073          	csrw	sepc,t1
    80202520:	14029073          	csrw	sscratch,t0
    80202524:	1002b303          	ld	t1,256(t0)
    80202528:	10031073          	csrw	sstatus,t1
    8020252c:	0282b303          	ld	t1,40(t0)
    80202530:	0202b283          	ld	t0,32(t0)
    80202534:	10200073          	sret
    80202538:	60ee                	ld	ra,216(sp)
    8020253a:	644e                	ld	s0,208(sp)
    8020253c:	64ae                	ld	s1,200(sp)
    8020253e:	690e                	ld	s2,192(sp)
    80202540:	79ea                	ld	s3,184(sp)
    80202542:	7a4a                	ld	s4,176(sp)
    80202544:	7aaa                	ld	s5,168(sp)
    80202546:	7b0a                	ld	s6,160(sp)
    80202548:	6bea                	ld	s7,152(sp)
    8020254a:	6c4a                	ld	s8,144(sp)
    8020254c:	6caa                	ld	s9,136(sp)
    8020254e:	6d0a                	ld	s10,128(sp)
    80202550:	7de6                	ld	s11,120(sp)
    80202552:	612d                	addi	sp,sp,224
    80202554:	8082                	ret

0000000080202556 <.LBB2_11>:
    80202556:	00008517          	auipc	a0,0x8
    8020255a:	c9a50513          	addi	a0,a0,-870 # 8020a1f0 <anon.f016384ff5f45e36efedd53711d4611b.1.llvm.493118147765580453>

000000008020255e <.LBB2_12>:
    8020255e:	00008697          	auipc	a3,0x8
    80202562:	cc268693          	addi	a3,a3,-830 # 8020a220 <anon.f016384ff5f45e36efedd53711d4611b.2.llvm.493118147765580453>

0000000080202566 <.LBB2_13>:
    80202566:	00008717          	auipc	a4,0x8
    8020256a:	cea70713          	addi	a4,a4,-790 # 8020a250 <anon.f016384ff5f45e36efedd53711d4611b.4.llvm.493118147765580453>
    8020256e:	02b00593          	li	a1,43
    80202572:	f9040613          	addi	a2,s0,-112
    80202576:	00002097          	auipc	ra,0x2
    8020257a:	ff8080e7          	jalr	-8(ra) # 8020456e <_ZN4core6result13unwrap_failed17h93c501911315d321E>
	...

0000000080202580 <trap_handler>:
    80202580:	7111                	addi	sp,sp,-256
    80202582:	fd86                	sd	ra,248(sp)
    80202584:	f9a2                	sd	s0,240(sp)
    80202586:	f5a6                	sd	s1,232(sp)
    80202588:	f1ca                	sd	s2,224(sp)
    8020258a:	edce                	sd	s3,216(sp)
    8020258c:	e9d2                	sd	s4,208(sp)
    8020258e:	e5d6                	sd	s5,200(sp)
    80202590:	e1da                	sd	s6,192(sp)
    80202592:	fd5e                	sd	s7,184(sp)
    80202594:	f962                	sd	s8,176(sp)
    80202596:	f566                	sd	s9,168(sp)
    80202598:	f16a                	sd	s10,160(sp)
    8020259a:	ed6e                	sd	s11,152(sp)
    8020259c:	0200                	addi	s0,sp,256

000000008020259e <.LBB3_20>:
    8020259e:	00005917          	auipc	s2,0x5
    802025a2:	e2a90913          	addi	s2,s2,-470 # 802073c8 <_ZN4sel46kernel6thread11ksCurThread17h5a674989a535a6f6E>
    802025a6:	00093583          	ld	a1,0(s2)
    802025aa:	7de8                	ld	a0,248(a1)
    802025ac:	f0a43423          	sd	a0,-248(s0)
    802025b0:	1085b583          	ld	a1,264(a1)
    802025b4:	f0b43823          	sd	a1,-240(s0)
    802025b8:	14302673          	csrr	a2,stval
    802025bc:	46bd                	li	a3,15
    802025be:	f0c43c23          	sd	a2,-232(s0)
    802025c2:	24a6e463          	bltu	a3,a0,8020280a <.LBB3_32+0xa>
    802025c6:	4621                	li	a2,8
    802025c8:	16c51b63          	bne	a0,a2,8020273e <.LBB3_25+0x108>
    802025cc:	00093483          	ld	s1,0(s2)
    802025d0:	1104b503          	ld	a0,272(s1)
    802025d4:	00458993          	addi	s3,a1,4
    802025d8:	954e                	add	a0,a0,s3
    802025da:	10a4b823          	sd	a0,272(s1)
    802025de:	64ac                	ld	a1,72(s1)
    802025e0:	68b0                	ld	a2,80(s1)
    802025e2:	6cb4                	ld	a3,88(s1)
    802025e4:	60c8                	ld	a0,128(s1)
    802025e6:	f6b43023          	sd	a1,-160(s0)
    802025ea:	f6c43423          	sd	a2,-152(s0)
    802025ee:	f6d43823          	sd	a3,-144(s0)
    802025f2:	f6040593          	addi	a1,s0,-160
    802025f6:	fffff097          	auipc	ra,0xfffff
    802025fa:	0ce080e7          	jalr	206(ra) # 802016c4 <_ZN4sel47syscall7syscall17hc24d219189e4a5a1E>
    802025fe:	e4a8                	sd	a0,72(s1)
    80202600:	00093503          	ld	a0,0(s2)
    80202604:	4a81                	li	s5,0
    80202606:	4481                	li	s1,0
    80202608:	f0a43023          	sd	a0,-256(s0)
    8020260c:	11353823          	sd	s3,272(a0)

0000000080202610 <.LBB3_21>:
    80202610:	00004b97          	auipc	s7,0x4
    80202614:	402b8b93          	addi	s7,s7,1026 # 80206a12 <_ZN4core3fmt3num3imp52_$LT$impl$u20$core..fmt..Display$u20$for$u20$u64$GT$3fmt17h77ff5d762b7f8e58E>

0000000080202618 <.LBB3_22>:
    80202618:	00004c17          	auipc	s8,0x4
    8020261c:	f2ec0c13          	addi	s8,s8,-210 # 80206546 <_ZN4core3fmt3num53_$LT$impl$u20$core..fmt..LowerHex$u20$for$u20$i64$GT$3fmt17hdf8f6c6faa92793eE>

0000000080202620 <.LBB3_23>:
    80202620:	00007d17          	auipc	s10,0x7
    80202624:	370d0d13          	addi	s10,s10,880 # 80209990 <.Lanon.349ad79921b4865228cfc4d2ddbdb451.6>
    80202628:	4d89                	li	s11,2

000000008020262a <.LBB3_24>:
    8020262a:	00007997          	auipc	s3,0x7
    8020262e:	2f698993          	addi	s3,s3,758 # 80209920 <.Lanon.349ad79921b4865228cfc4d2ddbdb451.4>
    80202632:	f2040c93          	addi	s9,s0,-224

0000000080202636 <.LBB3_25>:
    80202636:	00008a17          	auipc	s4,0x8
    8020263a:	b8aa0a13          	addi	s4,s4,-1142 # 8020a1c0 <anon.f016384ff5f45e36efedd53711d4611b.0.llvm.493118147765580453>
    8020263e:	02300b13          	li	s6,35
    80202642:	00093503          	ld	a0,0(s2)
    80202646:	f4943823          	sd	s1,-176(s0)
    8020264a:	9556                	add	a0,a0,s5
    8020264c:	f5040593          	addi	a1,s0,-176
    80202650:	f2b43023          	sd	a1,-224(s0)
    80202654:	f3743423          	sd	s7,-216(s0)
    80202658:	f2a43823          	sd	a0,-208(s0)
    8020265c:	f3843c23          	sd	s8,-200(s0)
    80202660:	f9040513          	addi	a0,s0,-112
    80202664:	f4a43c23          	sd	a0,-168(s0)
    80202668:	f7a43023          	sd	s10,-160(s0)
    8020266c:	f7b43423          	sd	s11,-152(s0)
    80202670:	f7343823          	sd	s3,-144(s0)
    80202674:	450d                	li	a0,3
    80202676:	f6a43c23          	sd	a0,-136(s0)
    8020267a:	f9943023          	sd	s9,-128(s0)
    8020267e:	f9b43423          	sd	s11,-120(s0)
    80202682:	f5840513          	addi	a0,s0,-168
    80202686:	f6040613          	addi	a2,s0,-160
    8020268a:	85d2                	mv	a1,s4
    8020268c:	00002097          	auipc	ra,0x2
    80202690:	686080e7          	jalr	1670(ra) # 80204d12 <_ZN4core3fmt5write17h42fcd7b837de3f75E>
    80202694:	32051a63          	bnez	a0,802029c8 <.LBB3_41>
    80202698:	0485                	addi	s1,s1,1
    8020269a:	0aa1                	addi	s5,s5,8
    8020269c:	fb6493e3          	bne	s1,s6,80202642 <.LBB3_25+0xc>
    802026a0:	f0043503          	ld	a0,-256(s0)
    802026a4:	82aa                	mv	t0,a0
    802026a6:	0002b083          	ld	ra,0(t0)
    802026aa:	0082b103          	ld	sp,8(t0)
    802026ae:	0102b183          	ld	gp,16(t0)
    802026b2:	0302b383          	ld	t2,48(t0)
    802026b6:	0382b403          	ld	s0,56(t0)
    802026ba:	0402b483          	ld	s1,64(t0)
    802026be:	0482b503          	ld	a0,72(t0)
    802026c2:	0502b583          	ld	a1,80(t0)
    802026c6:	0582b603          	ld	a2,88(t0)
    802026ca:	0602b683          	ld	a3,96(t0)
    802026ce:	0682b703          	ld	a4,104(t0)
    802026d2:	0702b783          	ld	a5,112(t0)
    802026d6:	0782b803          	ld	a6,120(t0)
    802026da:	0802b883          	ld	a7,128(t0)
    802026de:	0882b903          	ld	s2,136(t0)
    802026e2:	0902b983          	ld	s3,144(t0)
    802026e6:	0982ba03          	ld	s4,152(t0)
    802026ea:	0a02ba83          	ld	s5,160(t0)
    802026ee:	0a82bb03          	ld	s6,168(t0)
    802026f2:	0b02bb83          	ld	s7,176(t0)
    802026f6:	0b82bc03          	ld	s8,184(t0)
    802026fa:	0c02bc83          	ld	s9,192(t0)
    802026fe:	0c82bd03          	ld	s10,200(t0)
    80202702:	0d02bd83          	ld	s11,208(t0)
    80202706:	0d82be03          	ld	t3,216(t0)
    8020270a:	0e02be83          	ld	t4,224(t0)
    8020270e:	0e82bf03          	ld	t5,232(t0)
    80202712:	0f02bf83          	ld	t6,240(t0)
    80202716:	0182b303          	ld	t1,24(t0)
    8020271a:	821a                	mv	tp,t1
    8020271c:	1102b303          	ld	t1,272(t0)
    80202720:	14131073          	csrw	sepc,t1
    80202724:	14029073          	csrw	sscratch,t0
    80202728:	1002b303          	ld	t1,256(t0)
    8020272c:	10031073          	csrw	sstatus,t1
    80202730:	0282b303          	ld	t1,40(t0)
    80202734:	0202b283          	ld	t0,32(t0)
    80202738:	10200073          	sret
    8020273c:	a4bd                	j	802029aa <.LBB3_40+0x106>
    8020273e:	65ad                	lui	a1,0xb
    80202740:	0a25859b          	addiw	a1,a1,162
    80202744:	00a5d5b3          	srl	a1,a1,a0
    80202748:	8985                	andi	a1,a1,1
    8020274a:	cdb5                	beqz	a1,802027c6 <.LBB3_29+0x34>
    8020274c:	f1040513          	addi	a0,s0,-240
    80202750:	f6a43023          	sd	a0,-160(s0)

0000000080202754 <.LBB3_26>:
    80202754:	00004517          	auipc	a0,0x4
    80202758:	df250513          	addi	a0,a0,-526 # 80206546 <_ZN4core3fmt3num53_$LT$impl$u20$core..fmt..LowerHex$u20$for$u20$i64$GT$3fmt17hdf8f6c6faa92793eE>
    8020275c:	f6a43423          	sd	a0,-152(s0)
    80202760:	f1840593          	addi	a1,s0,-232
    80202764:	f6b43823          	sd	a1,-144(s0)
    80202768:	f6a43c23          	sd	a0,-136(s0)
    8020276c:	f0840513          	addi	a0,s0,-248
    80202770:	f8a43023          	sd	a0,-128(s0)

0000000080202774 <.LBB3_27>:
    80202774:	00004517          	auipc	a0,0x4
    80202778:	29e50513          	addi	a0,a0,670 # 80206a12 <_ZN4core3fmt3num3imp52_$LT$impl$u20$core..fmt..Display$u20$for$u20$u64$GT$3fmt17h77ff5d762b7f8e58E>
    8020277c:	f8a43423          	sd	a0,-120(s0)

0000000080202780 <.LBB3_28>:
    80202780:	00007517          	auipc	a0,0x7
    80202784:	49850513          	addi	a0,a0,1176 # 80209c18 <.Lanon.349ad79921b4865228cfc4d2ddbdb451.21>
    80202788:	f2a43823          	sd	a0,-208(s0)
    8020278c:	4511                	li	a0,4
    8020278e:	f2a43c23          	sd	a0,-200(s0)

0000000080202792 <.LBB3_29>:
    80202792:	00007517          	auipc	a0,0x7
    80202796:	3ae50513          	addi	a0,a0,942 # 80209b40 <.Lanon.349ad79921b4865228cfc4d2ddbdb451.19>
    8020279a:	f2a43023          	sd	a0,-224(s0)
    8020279e:	450d                	li	a0,3
    802027a0:	f2a43423          	sd	a0,-216(s0)
    802027a4:	f6040593          	addi	a1,s0,-160
    802027a8:	f4b43023          	sd	a1,-192(s0)
    802027ac:	f4a43423          	sd	a0,-184(s0)
    802027b0:	f2040513          	addi	a0,s0,-224
    802027b4:	00001097          	auipc	ra,0x1
    802027b8:	aee080e7          	jalr	-1298(ra) # 802032a2 <_ZN4sel47console5print17hac8e0d72989ef035E>
    802027bc:	fffff097          	auipc	ra,0xfffff
    802027c0:	318080e7          	jalr	792(ra) # 80201ad4 <_ZN4sel43sbi8shutdown17h66331878ed4ddfbbE>
    802027c4:	0000                	unimp
    802027c6:	4589                	li	a1,2
    802027c8:	04b51163          	bne	a0,a1,8020280a <.LBB3_32+0xa>
    802027cc:	f1040513          	addi	a0,s0,-240
    802027d0:	f6a43023          	sd	a0,-160(s0)

00000000802027d4 <.LBB3_30>:
    802027d4:	00004517          	auipc	a0,0x4
    802027d8:	d7250513          	addi	a0,a0,-654 # 80206546 <_ZN4core3fmt3num53_$LT$impl$u20$core..fmt..LowerHex$u20$for$u20$i64$GT$3fmt17hdf8f6c6faa92793eE>
    802027dc:	f6a43423          	sd	a0,-152(s0)
    802027e0:	f1840593          	addi	a1,s0,-232
    802027e4:	f6b43823          	sd	a1,-144(s0)
    802027e8:	f6a43c23          	sd	a0,-136(s0)
    802027ec:	f0840513          	addi	a0,s0,-248
    802027f0:	f8a43023          	sd	a0,-128(s0)

00000000802027f4 <.LBB3_31>:
    802027f4:	00004517          	auipc	a0,0x4
    802027f8:	21e50513          	addi	a0,a0,542 # 80206a12 <_ZN4core3fmt3num3imp52_$LT$impl$u20$core..fmt..Display$u20$for$u20$u64$GT$3fmt17h77ff5d762b7f8e58E>
    802027fc:	f8a43423          	sd	a0,-120(s0)

0000000080202800 <.LBB3_32>:
    80202800:	00007517          	auipc	a0,0x7
    80202804:	30050513          	addi	a0,a0,768 # 80209b00 <.Lanon.349ad79921b4865228cfc4d2ddbdb451.18>
    80202808:	b741                	j	80202788 <.LBB3_28+0x8>
    8020280a:	55fd                	li	a1,-1
    8020280c:	15fe                	slli	a1,a1,0x3f
    8020280e:	0595                	addi	a1,a1,5
    80202810:	1eb51163          	bne	a0,a1,802029f2 <.LBB3_43+0x1a>
    80202814:	f9040513          	addi	a0,s0,-112
    80202818:	f2a43023          	sd	a0,-224(s0)
    8020281c:	f6043023          	sd	zero,-160(s0)

0000000080202820 <.LBB3_33>:
    80202820:	00007517          	auipc	a0,0x7
    80202824:	26050513          	addi	a0,a0,608 # 80209a80 <.Lanon.349ad79921b4865228cfc4d2ddbdb451.13>
    80202828:	f6a43823          	sd	a0,-144(s0)
    8020282c:	4505                	li	a0,1
    8020282e:	f6a43c23          	sd	a0,-136(s0)

0000000080202832 <.LBB3_34>:
    80202832:	00007517          	auipc	a0,0x7
    80202836:	0de50513          	addi	a0,a0,222 # 80209910 <.Lanon.349ad79921b4865228cfc4d2ddbdb451.1>
    8020283a:	f8a43023          	sd	a0,-128(s0)
    8020283e:	f8043423          	sd	zero,-120(s0)

0000000080202842 <.LBB3_35>:
    80202842:	00008597          	auipc	a1,0x8
    80202846:	97e58593          	addi	a1,a1,-1666 # 8020a1c0 <anon.f016384ff5f45e36efedd53711d4611b.0.llvm.493118147765580453>
    8020284a:	f2040513          	addi	a0,s0,-224
    8020284e:	f6040613          	addi	a2,s0,-160
    80202852:	00002097          	auipc	ra,0x2
    80202856:	4c0080e7          	jalr	1216(ra) # 80204d12 <_ZN4core3fmt5write17h42fcd7b837de3f75E>
    8020285a:	16051763          	bnez	a0,802029c8 <.LBB3_41>
    8020285e:	c0102573          	rdtime	a0
    80202862:	65fd                	lui	a1,0x1f
    80202864:	8485859b          	addiw	a1,a1,-1976
    80202868:	952e                	add	a0,a0,a1
    8020286a:	4b01                	li	s6,0
    8020286c:	4481                	li	s1,0
    8020286e:	4581                	li	a1,0
    80202870:	4601                	li	a2,0
    80202872:	4881                	li	a7,0
    80202874:	00000073          	ecall
    80202878:	00093503          	ld	a0,0(s2)
    8020287c:	f0a43023          	sd	a0,-256(s0)

0000000080202880 <.LBB3_36>:
    80202880:	00004c97          	auipc	s9,0x4
    80202884:	192c8c93          	addi	s9,s9,402 # 80206a12 <_ZN4core3fmt3num3imp52_$LT$impl$u20$core..fmt..Display$u20$for$u20$u64$GT$3fmt17h77ff5d762b7f8e58E>

0000000080202888 <.LBB3_37>:
    80202888:	00004d17          	auipc	s10,0x4
    8020288c:	cbed0d13          	addi	s10,s10,-834 # 80206546 <_ZN4core3fmt3num53_$LT$impl$u20$core..fmt..LowerHex$u20$for$u20$i64$GT$3fmt17hdf8f6c6faa92793eE>

0000000080202890 <.LBB3_38>:
    80202890:	00007d97          	auipc	s11,0x7
    80202894:	100d8d93          	addi	s11,s11,256 # 80209990 <.Lanon.349ad79921b4865228cfc4d2ddbdb451.6>
    80202898:	4b89                	li	s7,2

000000008020289a <.LBB3_39>:
    8020289a:	00007997          	auipc	s3,0x7
    8020289e:	08698993          	addi	s3,s3,134 # 80209920 <.Lanon.349ad79921b4865228cfc4d2ddbdb451.4>
    802028a2:	4a0d                	li	s4,3

00000000802028a4 <.LBB3_40>:
    802028a4:	00008a97          	auipc	s5,0x8
    802028a8:	91ca8a93          	addi	s5,s5,-1764 # 8020a1c0 <anon.f016384ff5f45e36efedd53711d4611b.0.llvm.493118147765580453>
    802028ac:	02300c13          	li	s8,35
    802028b0:	00093503          	ld	a0,0(s2)
    802028b4:	f4943823          	sd	s1,-176(s0)
    802028b8:	955a                	add	a0,a0,s6
    802028ba:	f5040593          	addi	a1,s0,-176
    802028be:	f2b43023          	sd	a1,-224(s0)
    802028c2:	f3943423          	sd	s9,-216(s0)
    802028c6:	f2a43823          	sd	a0,-208(s0)
    802028ca:	f3a43c23          	sd	s10,-200(s0)
    802028ce:	f9040513          	addi	a0,s0,-112
    802028d2:	f4a43c23          	sd	a0,-168(s0)
    802028d6:	f7b43023          	sd	s11,-160(s0)
    802028da:	f7743423          	sd	s7,-152(s0)
    802028de:	f7343823          	sd	s3,-144(s0)
    802028e2:	f7443c23          	sd	s4,-136(s0)
    802028e6:	f2040513          	addi	a0,s0,-224
    802028ea:	f8a43023          	sd	a0,-128(s0)
    802028ee:	f9743423          	sd	s7,-120(s0)
    802028f2:	f5840513          	addi	a0,s0,-168
    802028f6:	f6040613          	addi	a2,s0,-160
    802028fa:	85d6                	mv	a1,s5
    802028fc:	00002097          	auipc	ra,0x2
    80202900:	416080e7          	jalr	1046(ra) # 80204d12 <_ZN4core3fmt5write17h42fcd7b837de3f75E>
    80202904:	e171                	bnez	a0,802029c8 <.LBB3_41>
    80202906:	0485                	addi	s1,s1,1
    80202908:	0b21                	addi	s6,s6,8
    8020290a:	fb8493e3          	bne	s1,s8,802028b0 <.LBB3_40+0xc>
    8020290e:	f0043503          	ld	a0,-256(s0)
    80202912:	82aa                	mv	t0,a0
    80202914:	0002b083          	ld	ra,0(t0)
    80202918:	0082b103          	ld	sp,8(t0)
    8020291c:	0102b183          	ld	gp,16(t0)
    80202920:	0302b383          	ld	t2,48(t0)
    80202924:	0382b403          	ld	s0,56(t0)
    80202928:	0402b483          	ld	s1,64(t0)
    8020292c:	0482b503          	ld	a0,72(t0)
    80202930:	0502b583          	ld	a1,80(t0)
    80202934:	0582b603          	ld	a2,88(t0)
    80202938:	0602b683          	ld	a3,96(t0)
    8020293c:	0682b703          	ld	a4,104(t0)
    80202940:	0702b783          	ld	a5,112(t0)
    80202944:	0782b803          	ld	a6,120(t0)
    80202948:	0802b883          	ld	a7,128(t0)
    8020294c:	0882b903          	ld	s2,136(t0)
    80202950:	0902b983          	ld	s3,144(t0)
    80202954:	0982ba03          	ld	s4,152(t0)
    80202958:	0a02ba83          	ld	s5,160(t0)
    8020295c:	0a82bb03          	ld	s6,168(t0)
    80202960:	0b02bb83          	ld	s7,176(t0)
    80202964:	0b82bc03          	ld	s8,184(t0)
    80202968:	0c02bc83          	ld	s9,192(t0)
    8020296c:	0c82bd03          	ld	s10,200(t0)
    80202970:	0d02bd83          	ld	s11,208(t0)
    80202974:	0d82be03          	ld	t3,216(t0)
    80202978:	0e02be83          	ld	t4,224(t0)
    8020297c:	0e82bf03          	ld	t5,232(t0)
    80202980:	0f02bf83          	ld	t6,240(t0)
    80202984:	0182b303          	ld	t1,24(t0)
    80202988:	821a                	mv	tp,t1
    8020298a:	1102b303          	ld	t1,272(t0)
    8020298e:	14131073          	csrw	sepc,t1
    80202992:	14029073          	csrw	sscratch,t0
    80202996:	1002b303          	ld	t1,256(t0)
    8020299a:	10031073          	csrw	sstatus,t1
    8020299e:	0282b303          	ld	t1,40(t0)
    802029a2:	0202b283          	ld	t0,32(t0)
    802029a6:	10200073          	sret
    802029aa:	70ee                	ld	ra,248(sp)
    802029ac:	744e                	ld	s0,240(sp)
    802029ae:	74ae                	ld	s1,232(sp)
    802029b0:	790e                	ld	s2,224(sp)
    802029b2:	69ee                	ld	s3,216(sp)
    802029b4:	6a4e                	ld	s4,208(sp)
    802029b6:	6aae                	ld	s5,200(sp)
    802029b8:	6b0e                	ld	s6,192(sp)
    802029ba:	7bea                	ld	s7,184(sp)
    802029bc:	7c4a                	ld	s8,176(sp)
    802029be:	7caa                	ld	s9,168(sp)
    802029c0:	7d0a                	ld	s10,160(sp)
    802029c2:	6dea                	ld	s11,152(sp)
    802029c4:	6111                	addi	sp,sp,256
    802029c6:	8082                	ret

00000000802029c8 <.LBB3_41>:
    802029c8:	00008517          	auipc	a0,0x8
    802029cc:	82850513          	addi	a0,a0,-2008 # 8020a1f0 <anon.f016384ff5f45e36efedd53711d4611b.1.llvm.493118147765580453>

00000000802029d0 <.LBB3_42>:
    802029d0:	00008697          	auipc	a3,0x8
    802029d4:	85068693          	addi	a3,a3,-1968 # 8020a220 <anon.f016384ff5f45e36efedd53711d4611b.2.llvm.493118147765580453>

00000000802029d8 <.LBB3_43>:
    802029d8:	00008717          	auipc	a4,0x8
    802029dc:	87870713          	addi	a4,a4,-1928 # 8020a250 <anon.f016384ff5f45e36efedd53711d4611b.4.llvm.493118147765580453>
    802029e0:	02b00593          	li	a1,43
    802029e4:	f9040613          	addi	a2,s0,-112
    802029e8:	00002097          	auipc	ra,0x2
    802029ec:	b86080e7          	jalr	-1146(ra) # 8020456e <_ZN4core6result13unwrap_failed17h93c501911315d321E>
    802029f0:	0000                	unimp
    802029f2:	f0840513          	addi	a0,s0,-248
    802029f6:	f2a43023          	sd	a0,-224(s0)

00000000802029fa <.LBB3_44>:
    802029fa:	00004517          	auipc	a0,0x4
    802029fe:	01850513          	addi	a0,a0,24 # 80206a12 <_ZN4core3fmt3num3imp52_$LT$impl$u20$core..fmt..Display$u20$for$u20$u64$GT$3fmt17h77ff5d762b7f8e58E>
    80202a02:	f2a43423          	sd	a0,-216(s0)
    80202a06:	f1840513          	addi	a0,s0,-232
    80202a0a:	f2a43823          	sd	a0,-208(s0)

0000000080202a0e <.LBB3_45>:
    80202a0e:	00004517          	auipc	a0,0x4
    80202a12:	b3850513          	addi	a0,a0,-1224 # 80206546 <_ZN4core3fmt3num53_$LT$impl$u20$core..fmt..LowerHex$u20$for$u20$i64$GT$3fmt17hdf8f6c6faa92793eE>
    80202a16:	f2a43c23          	sd	a0,-200(s0)

0000000080202a1a <.LBB3_46>:
    80202a1a:	00007517          	auipc	a0,0x7
    80202a1e:	00650513          	addi	a0,a0,6 # 80209a20 <.Lanon.349ad79921b4865228cfc4d2ddbdb451.10>
    80202a22:	f6a43823          	sd	a0,-144(s0)
    80202a26:	450d                	li	a0,3
    80202a28:	f6a43c23          	sd	a0,-136(s0)

0000000080202a2c <.LBB3_47>:
    80202a2c:	00007517          	auipc	a0,0x7
    80202a30:	f6450513          	addi	a0,a0,-156 # 80209990 <.Lanon.349ad79921b4865228cfc4d2ddbdb451.6>
    80202a34:	f6a43023          	sd	a0,-160(s0)
    80202a38:	4509                	li	a0,2
    80202a3a:	f6a43423          	sd	a0,-152(s0)
    80202a3e:	f2040593          	addi	a1,s0,-224
    80202a42:	f8b43023          	sd	a1,-128(s0)
    80202a46:	f8a43423          	sd	a0,-120(s0)

0000000080202a4a <.LBB3_48>:
    80202a4a:	00007597          	auipc	a1,0x7
    80202a4e:	00658593          	addi	a1,a1,6 # 80209a50 <.Lanon.349ad79921b4865228cfc4d2ddbdb451.11>
    80202a52:	f6040513          	addi	a0,s0,-160
    80202a56:	00002097          	auipc	ra,0x2
    80202a5a:	94a080e7          	jalr	-1718(ra) # 802043a0 <_ZN4core9panicking9panic_fmt17h09608ae52bd0d3adE>
	...

0000000080202a60 <_ZN4sel46kernel6object10objecttype14cap_get_capPtr17h66df656170e7b0bcE>:
    80202a60:	1141                	addi	sp,sp,-16
    80202a62:	e406                	sd	ra,8(sp)
    80202a64:	e022                	sd	s0,0(sp)
    80202a66:	0800                	addi	s0,sp,16
    80202a68:	85aa                	mv	a1,a0
    80202a6a:	6110                	ld	a2,0(a0)
    80202a6c:	03b65693          	srli	a3,a2,0x3b
    80202a70:	fff68713          	addi	a4,a3,-1
    80202a74:	47b1                	li	a5,12
    80202a76:	4501                	li	a0,0
    80202a78:	00e7ed63          	bltu	a5,a4,80202a92 <.LBB1_3>
    80202a7c:	070e                	slli	a4,a4,0x3

0000000080202a7e <.LBB1_17>:
    80202a7e:	00007797          	auipc	a5,0x7
    80202a82:	32278793          	addi	a5,a5,802 # 80209da0 <.LJTI1_0>
    80202a86:	973e                	add	a4,a4,a5
    80202a88:	6318                	ld	a4,0(a4)
    80202a8a:	8702                	jr	a4

0000000080202a8c <.LBB1_2>:
    80202a8c:	6588                	ld	a0,8(a1)
    80202a8e:	0542                	slli	a0,a0,0x10
    80202a90:	8165                	srli	a0,a0,0x19

0000000080202a92 <.LBB1_3>:
    80202a92:	60a2                	ld	ra,8(sp)
    80202a94:	6402                	ld	s0,0(sp)
    80202a96:	0141                	addi	sp,sp,16
    80202a98:	8082                	ret

0000000080202a9a <.LBB1_4>:
    80202a9a:	4509                	li	a0,2
    80202a9c:	02a68463          	beq	a3,a0,80202ac4 <.LBB1_6+0x6>

0000000080202aa0 <.LBB1_18>:
    80202aa0:	00007517          	auipc	a0,0x7
    80202aa4:	3cf50513          	addi	a0,a0,975 # 80209e6f <anon.218a0abc0ebddb333064923e077d4264.1.llvm.4306433433188476395>

0000000080202aa8 <.LBB1_19>:
    80202aa8:	00007617          	auipc	a2,0x7
    80202aac:	43860613          	addi	a2,a2,1080 # 80209ee0 <anon.218a0abc0ebddb333064923e077d4264.3.llvm.4306433433188476395>
    80202ab0:	05600593          	li	a1,86
    80202ab4:	00002097          	auipc	ra,0x2
    80202ab8:	91a080e7          	jalr	-1766(ra) # 802043ce <_ZN4core9panicking5panic17h968d2b6b541ffadfE>
	...

0000000080202abe <.LBB1_6>:
    80202abe:	4511                	li	a0,4
    80202ac0:	04a69663          	bne	a3,a0,80202b0c <.LBB1_20>
    80202ac4:	01961593          	slli	a1,a2,0x19
    80202ac8:	0195d513          	srli	a0,a1,0x19
    80202acc:	fc05d3e3          	bgez	a1,80202a92 <.LBB1_3>
    80202ad0:	55fd                	li	a1,-1
    80202ad2:	a005                	j	80202af2 <.LBB1_10+0x12>

0000000080202ad4 <.LBB1_9>:
    80202ad4:	00261513          	slli	a0,a2,0x2
    80202ad8:	55fd                	li	a1,-1
    80202ada:	81e5                	srli	a1,a1,0x19
    80202adc:	15f5                	addi	a1,a1,-3
    80202ade:	a015                	j	80202b02 <.LBB1_10+0x22>

0000000080202ae0 <.LBB1_10>:
    80202ae0:	4529                	li	a0,10
    80202ae2:	04a69463          	bne	a3,a0,80202b2a <.LBB1_22>
    80202ae6:	00161513          	slli	a0,a2,0x1
    80202aea:	066a                	slli	a2,a2,0x1a
    80202aec:	55fd                	li	a1,-1
    80202aee:	00065863          	bgez	a2,80202afe <.LBB1_10+0x1e>
    80202af2:	159e                	slli	a1,a1,0x27
    80202af4:	8d4d                	or	a0,a0,a1
    80202af6:	60a2                	ld	ra,8(sp)
    80202af8:	6402                	ld	s0,0(sp)
    80202afa:	0141                	addi	sp,sp,16
    80202afc:	8082                	ret
    80202afe:	81e5                	srli	a1,a1,0x19
    80202b00:	15fd                	addi	a1,a1,-1
    80202b02:	8d6d                	and	a0,a0,a1
    80202b04:	60a2                	ld	ra,8(sp)
    80202b06:	6402                	ld	s0,0(sp)
    80202b08:	0141                	addi	sp,sp,16
    80202b0a:	8082                	ret

0000000080202b0c <.LBB1_20>:
    80202b0c:	00007517          	auipc	a0,0x7
    80202b10:	3ec50513          	addi	a0,a0,1004 # 80209ef8 <anon.218a0abc0ebddb333064923e077d4264.4.llvm.4306433433188476395>

0000000080202b14 <.LBB1_21>:
    80202b14:	00007617          	auipc	a2,0x7
    80202b18:	45460613          	addi	a2,a2,1108 # 80209f68 <anon.218a0abc0ebddb333064923e077d4264.6.llvm.4306433433188476395>
    80202b1c:	05700593          	li	a1,87
    80202b20:	00002097          	auipc	ra,0x2
    80202b24:	8ae080e7          	jalr	-1874(ra) # 802043ce <_ZN4core9panicking5panic17h968d2b6b541ffadfE>
	...

0000000080202b2a <.LBB1_22>:
    80202b2a:	00007517          	auipc	a0,0x7
    80202b2e:	45650513          	addi	a0,a0,1110 # 80209f80 <anon.218a0abc0ebddb333064923e077d4264.7.llvm.4306433433188476395>

0000000080202b32 <.LBB1_23>:
    80202b32:	00007617          	auipc	a2,0x7
    80202b36:	4be60613          	addi	a2,a2,1214 # 80209ff0 <anon.218a0abc0ebddb333064923e077d4264.9.llvm.4306433433188476395>
    80202b3a:	05400593          	li	a1,84
    80202b3e:	00002097          	auipc	ra,0x2
    80202b42:	890080e7          	jalr	-1904(ra) # 802043ce <_ZN4core9panicking5panic17h968d2b6b541ffadfE>
	...

0000000080202b48 <_ZN4sel46kernel6object10objecttype12sameRegionAs17hdbccf6a4c0a8fe21E>:
    80202b48:	7179                	addi	sp,sp,-48
    80202b4a:	f406                	sd	ra,40(sp)
    80202b4c:	f022                	sd	s0,32(sp)
    80202b4e:	ec26                	sd	s1,24(sp)
    80202b50:	e84a                	sd	s2,16(sp)
    80202b52:	e44e                	sd	s3,8(sp)
    80202b54:	e052                	sd	s4,0(sp)
    80202b56:	1800                	addi	s0,sp,48
    80202b58:	84aa                	mv	s1,a0
    80202b5a:	6110                	ld	a2,0(a0)
    80202b5c:	03b65693          	srli	a3,a2,0x3b
    80202b60:	4529                	li	a0,10
    80202b62:	892e                	mv	s2,a1
    80202b64:	08a68963          	beq	a3,a0,80202bf6 <.LBB2_11+0x8>
    80202b68:	4591                	li	a1,4
    80202b6a:	0cb68b63          	beq	a3,a1,80202c40 <.LBB2_11+0x52>
    80202b6e:	4509                	li	a0,2
    80202b70:	14a69f63          	bne	a3,a0,80202cce <.LBB2_30+0x4>
    80202b74:	00093503          	ld	a0,0(s2)
    80202b78:	03b55593          	srli	a1,a0,0x3b
    80202b7c:	4729                	li	a4,10
    80202b7e:	4501                	li	a0,0
    80202b80:	14b76863          	bltu	a4,a1,80202cd0 <.LBB2_30+0x6>
    80202b84:	45c00713          	li	a4,1116
    80202b88:	00b755b3          	srl	a1,a4,a1
    80202b8c:	8985                	andi	a1,a1,1
    80202b8e:	14058163          	beqz	a1,80202cd0 <.LBB2_30+0x6>
    80202b92:	4509                	li	a0,2
    80202b94:	1aa69263          	bne	a3,a0,80202d38 <.LBB2_46>
    80202b98:	557d                	li	a0,-1
    80202b9a:	03b51a13          	slli	s4,a0,0x3b
    80202b9e:	01961593          	slli	a1,a2,0x19
    80202ba2:	0195d993          	srli	s3,a1,0x19
    80202ba6:	0005d563          	bgez	a1,80202bb0 <_ZN4sel46kernel6object10objecttype12sameRegionAs17hdbccf6a4c0a8fe21E+0x68>
    80202baa:	151e                	slli	a0,a0,0x27
    80202bac:	00a9e9b3          	or	s3,s3,a0
    80202bb0:	854a                	mv	a0,s2
    80202bb2:	00000097          	auipc	ra,0x0
    80202bb6:	eae080e7          	jalr	-338(ra) # 80202a60 <_ZN4sel46kernel6object10objecttype14cap_get_capPtr17h66df656170e7b0bcE>
    80202bba:	608c                	ld	a1,0(s1)
    80202bbc:	0145f5b3          	and	a1,a1,s4
    80202bc0:	4605                	li	a2,1
    80202bc2:	1672                	slli	a2,a2,0x3c
    80202bc4:	16c59163          	bne	a1,a2,80202d26 <.LBB2_44>
    80202bc8:	00093683          	ld	a3,0(s2)
    80202bcc:	648c                	ld	a1,8(s1)
    80202bce:	03b6d613          	srli	a2,a3,0x3b
    80202bd2:	ffe60713          	addi	a4,a2,-2
    80202bd6:	47a1                	li	a5,8
    80202bd8:	4601                	li	a2,0
    80202bda:	0ee7e863          	bltu	a5,a4,80202cca <.LBB2_30>
    80202bde:	070e                	slli	a4,a4,0x3

0000000080202be0 <.LBB2_43>:
    80202be0:	00007797          	auipc	a5,0x7
    80202be4:	22878793          	addi	a5,a5,552 # 80209e08 <.LJTI2_0>
    80202be8:	973e                	add	a4,a4,a5
    80202bea:	6318                	ld	a4,0(a4)
    80202bec:	8702                	jr	a4

0000000080202bee <.LBB2_11>:
    80202bee:	4611                	li	a2,4
    80202bf0:	0d356f63          	bltu	a0,s3,80202cce <.LBB2_30+0x4>
    80202bf4:	a211                	j	80202cf8 <.LBB2_33+0x18>
    80202bf6:	00093583          	ld	a1,0(s2)
    80202bfa:	03b5d693          	srli	a3,a1,0x3b
    80202bfe:	0ca69863          	bne	a3,a0,80202cce <.LBB2_30+0x4>
    80202c02:	557d                	li	a0,-1
    80202c04:	156e                	slli	a0,a0,0x3b
    80202c06:	8d71                	and	a0,a0,a2
    80202c08:	4695                	li	a3,5
    80202c0a:	16f2                	slli	a3,a3,0x3c
    80202c0c:	14d51563          	bne	a0,a3,80202d56 <.LBB2_48>
    80202c10:	00161693          	slli	a3,a2,0x1
    80202c14:	577d                	li	a4,-1
    80202c16:	01975513          	srli	a0,a4,0x19
    80202c1a:	157d                	addi	a0,a0,-1
    80202c1c:	01a61793          	slli	a5,a2,0x1a
    80202c20:	171e                	slli	a4,a4,0x27
    80202c22:	0607d263          	bgez	a5,80202c86 <.LBB2_11+0x98>
    80202c26:	8ed9                	or	a3,a3,a4
    80202c28:	01a59493          	slli	s1,a1,0x1a
    80202c2c:	00159793          	slli	a5,a1,0x1
    80202c30:	0604c263          	bltz	s1,80202c94 <.LBB2_11+0xa6>
    80202c34:	00a7f733          	and	a4,a5,a0
    80202c38:	4501                	li	a0,0
    80202c3a:	06e68163          	beq	a3,a4,80202c9c <.LBB2_11+0xae>
    80202c3e:	a849                	j	80202cd0 <.LBB2_30+0x6>
    80202c40:	00093503          	ld	a0,0(s2)
    80202c44:	03b55693          	srli	a3,a0,0x3b
    80202c48:	08b69363          	bne	a3,a1,80202cce <.LBB2_30+0x4>
    80202c4c:	55fd                	li	a1,-1
    80202c4e:	15ee                	slli	a1,a1,0x3b
    80202c50:	8df1                	and	a1,a1,a2
    80202c52:	4685                	li	a3,1
    80202c54:	16f6                	slli	a3,a3,0x3d
    80202c56:	10d59963          	bne	a1,a3,80202d68 <.LBB2_50>
    80202c5a:	577d                	li	a4,-1
    80202c5c:	01975693          	srli	a3,a4,0x19
    80202c60:	00d675b3          	and	a1,a2,a3
    80202c64:	01961793          	slli	a5,a2,0x19
    80202c68:	02771613          	slli	a2,a4,0x27
    80202c6c:	0007d363          	bgez	a5,80202c72 <.LBB2_11+0x84>
    80202c70:	8dd1                	or	a1,a1,a2
    80202c72:	01951713          	slli	a4,a0,0x19
    80202c76:	8d75                	and	a0,a0,a3
    80202c78:	00075363          	bgez	a4,80202c7e <.LBB2_11+0x90>
    80202c7c:	8d51                	or	a0,a0,a2
    80202c7e:	8d2d                	xor	a0,a0,a1
    80202c80:	00153513          	seqz	a0,a0
    80202c84:	a0b1                	j	80202cd0 <.LBB2_30+0x6>
    80202c86:	8ee9                	and	a3,a3,a0
    80202c88:	01a59493          	slli	s1,a1,0x1a
    80202c8c:	00159793          	slli	a5,a1,0x1
    80202c90:	fa04d2e3          	bgez	s1,80202c34 <.LBB2_11+0x46>
    80202c94:	8f5d                	or	a4,a4,a5
    80202c96:	4501                	li	a0,0
    80202c98:	02e69c63          	bne	a3,a4,80202cd0 <.LBB2_30+0x6>
    80202c9c:	00c5c533          	xor	a0,a1,a2
    80202ca0:	03f00593          	li	a1,63
    80202ca4:	15be                	slli	a1,a1,0x2f
    80202ca6:	8d6d                	and	a0,a0,a1
    80202ca8:	00153513          	seqz	a0,a0
    80202cac:	a015                	j	80202cd0 <.LBB2_30+0x6>

0000000080202cae <.LBB2_27>:
    80202cae:	0146f633          	and	a2,a3,s4
    80202cb2:	4685                	li	a3,1
    80202cb4:	16f2                	slli	a3,a3,0x3c
    80202cb6:	06d61863          	bne	a2,a3,80202d26 <.LBB2_44>
    80202cba:	00893603          	ld	a2,8(s2)
    80202cbe:	03f67613          	andi	a2,a2,63
    80202cc2:	01356663          	bltu	a0,s3,80202cce <.LBB2_30+0x4>
    80202cc6:	a80d                	j	80202cf8 <.LBB2_33+0x18>

0000000080202cc8 <.LBB2_29>:
    80202cc8:	4631                	li	a2,12

0000000080202cca <.LBB2_30>:
    80202cca:	03357763          	bgeu	a0,s3,80202cf8 <.LBB2_33+0x18>
    80202cce:	4501                	li	a0,0
    80202cd0:	70a2                	ld	ra,40(sp)
    80202cd2:	7402                	ld	s0,32(sp)
    80202cd4:	64e2                	ld	s1,24(sp)
    80202cd6:	6942                	ld	s2,16(sp)
    80202cd8:	69a2                	ld	s3,8(sp)
    80202cda:	6a02                	ld	s4,0(sp)
    80202cdc:	6145                	addi	sp,sp,48
    80202cde:	8082                	ret

0000000080202ce0 <.LBB2_33>:
    80202ce0:	0146f633          	and	a2,a3,s4
    80202ce4:	4715                	li	a4,5
    80202ce6:	1772                	slli	a4,a4,0x3c
    80202ce8:	08e61f63          	bne	a2,a4,80202d86 <.LBB2_52>
    80202cec:	00b69613          	slli	a2,a3,0xb
    80202cf0:	9269                	srli	a2,a2,0x3a
    80202cf2:	0615                	addi	a2,a2,5
    80202cf4:	fd356de3          	bltu	a0,s3,80202cce <.LBB2_30+0x4>
    80202cf8:	03f5f593          	andi	a1,a1,63
    80202cfc:	56fd                	li	a3,-1
    80202cfe:	00c69633          	sll	a2,a3,a2
    80202d02:	fff64613          	not	a2,a2
    80202d06:	962a                	add	a2,a2,a0
    80202d08:	00b695b3          	sll	a1,a3,a1
    80202d0c:	fff5c593          	not	a1,a1
    80202d10:	95ce                	add	a1,a1,s3
    80202d12:	00c5b5b3          	sltu	a1,a1,a2
    80202d16:	0015c593          	xori	a1,a1,1
    80202d1a:	00a63533          	sltu	a0,a2,a0
    80202d1e:	00154513          	xori	a0,a0,1
    80202d22:	8d6d                	and	a0,a0,a1
    80202d24:	b775                	j	80202cd0 <.LBB2_30+0x6>

0000000080202d26 <.LBB2_44>:
    80202d26:	00007517          	auipc	a0,0x7
    80202d2a:	14950513          	addi	a0,a0,329 # 80209e6f <anon.218a0abc0ebddb333064923e077d4264.1.llvm.4306433433188476395>

0000000080202d2e <.LBB2_45>:
    80202d2e:	00007617          	auipc	a2,0x7
    80202d32:	19a60613          	addi	a2,a2,410 # 80209ec8 <.Lanon.218a0abc0ebddb333064923e077d4264.2>
    80202d36:	a809                	j	80202d48 <.LBB2_47+0x8>

0000000080202d38 <.LBB2_46>:
    80202d38:	00007517          	auipc	a0,0x7
    80202d3c:	13750513          	addi	a0,a0,311 # 80209e6f <anon.218a0abc0ebddb333064923e077d4264.1.llvm.4306433433188476395>

0000000080202d40 <.LBB2_47>:
    80202d40:	00007617          	auipc	a2,0x7
    80202d44:	1a060613          	addi	a2,a2,416 # 80209ee0 <anon.218a0abc0ebddb333064923e077d4264.3.llvm.4306433433188476395>
    80202d48:	05600593          	li	a1,86
    80202d4c:	00001097          	auipc	ra,0x1
    80202d50:	682080e7          	jalr	1666(ra) # 802043ce <_ZN4core9panicking5panic17h968d2b6b541ffadfE>
	...

0000000080202d56 <.LBB2_48>:
    80202d56:	00007517          	auipc	a0,0x7
    80202d5a:	22a50513          	addi	a0,a0,554 # 80209f80 <anon.218a0abc0ebddb333064923e077d4264.7.llvm.4306433433188476395>

0000000080202d5e <.LBB2_49>:
    80202d5e:	00007617          	auipc	a2,0x7
    80202d62:	29260613          	addi	a2,a2,658 # 80209ff0 <anon.218a0abc0ebddb333064923e077d4264.9.llvm.4306433433188476395>
    80202d66:	a805                	j	80202d96 <.LBB2_53+0x8>

0000000080202d68 <.LBB2_50>:
    80202d68:	00007517          	auipc	a0,0x7
    80202d6c:	19050513          	addi	a0,a0,400 # 80209ef8 <anon.218a0abc0ebddb333064923e077d4264.4.llvm.4306433433188476395>

0000000080202d70 <.LBB2_51>:
    80202d70:	00007617          	auipc	a2,0x7
    80202d74:	1f860613          	addi	a2,a2,504 # 80209f68 <anon.218a0abc0ebddb333064923e077d4264.6.llvm.4306433433188476395>
    80202d78:	05700593          	li	a1,87
    80202d7c:	00001097          	auipc	ra,0x1
    80202d80:	652080e7          	jalr	1618(ra) # 802043ce <_ZN4core9panicking5panic17h968d2b6b541ffadfE>
	...

0000000080202d86 <.LBB2_52>:
    80202d86:	00007517          	auipc	a0,0x7
    80202d8a:	1fa50513          	addi	a0,a0,506 # 80209f80 <anon.218a0abc0ebddb333064923e077d4264.7.llvm.4306433433188476395>

0000000080202d8e <.LBB2_53>:
    80202d8e:	00007617          	auipc	a2,0x7
    80202d92:	24a60613          	addi	a2,a2,586 # 80209fd8 <.Lanon.218a0abc0ebddb333064923e077d4264.8>
    80202d96:	05400593          	li	a1,84
    80202d9a:	00001097          	auipc	ra,0x1
    80202d9e:	634080e7          	jalr	1588(ra) # 802043ce <_ZN4core9panicking5panic17h968d2b6b541ffadfE>
	...

0000000080202da4 <_ZN4sel46kernel6object10objecttype9deriveCap17hb126702027e5e8b7E>:
    80202da4:	7179                	addi	sp,sp,-48
    80202da6:	f406                	sd	ra,40(sp)
    80202da8:	f022                	sd	s0,32(sp)
    80202daa:	ec26                	sd	s1,24(sp)
    80202dac:	e84a                	sd	s2,16(sp)
    80202dae:	e44e                	sd	s3,8(sp)
    80202db0:	e052                	sd	s4,0(sp)
    80202db2:	1800                	addi	s0,sp,48
    80202db4:	84ae                	mv	s1,a1
    80202db6:	618c                	ld	a1,0(a1)
    80202db8:	91ed                	srli	a1,a1,0x3b
    80202dba:	4649                	li	a2,18
    80202dbc:	4981                	li	s3,0
    80202dbe:	08c58163          	beq	a1,a2,80202e40 <_ZN4sel46kernel6object10objecttype9deriveCap17hb126702027e5e8b7E+0x9c>
    80202dc2:	892a                	mv	s2,a0
    80202dc4:	4509                	li	a0,2
    80202dc6:	08a59863          	bne	a1,a0,80202e56 <_ZN4sel46kernel6object10objecttype9deriveCap17hb126702027e5e8b7E+0xb2>
    80202dca:	00893503          	ld	a0,8(s2)
    80202dce:	6508                	ld	a0,8(a0)
    80202dd0:	f80005b7          	lui	a1,0xf8000
    80202dd4:	81e5                	srli	a1,a1,0x19
    80202dd6:	00b57a33          	and	s4,a0,a1
    80202dda:	080a0063          	beqz	s4,80202e5a <_ZN4sel46kernel6object10objecttype9deriveCap17hb126702027e5e8b7E+0xb6>
    80202dde:	01951593          	slli	a1,a0,0x19
    80202de2:	0005d663          	bgez	a1,80202dee <_ZN4sel46kernel6object10objecttype9deriveCap17hb126702027e5e8b7E+0x4a>
    80202de6:	55fd                	li	a1,-1
    80202de8:	159e                	slli	a1,a1,0x27
    80202dea:	00ba6a33          	or	s4,s4,a1
    80202dee:	8909                	andi	a0,a0,2
    80202df0:	c52d                	beqz	a0,80202e5a <_ZN4sel46kernel6object10objecttype9deriveCap17hb126702027e5e8b7E+0xb6>
    80202df2:	00093503          	ld	a0,0(s2)
    80202df6:	000a3583          	ld	a1,0(s4)
    80202dfa:	00000097          	auipc	ra,0x0
    80202dfe:	d4e080e7          	jalr	-690(ra) # 80202b48 <_ZN4sel46kernel6object10objecttype12sameRegionAs17hdbccf6a4c0a8fe21E>
    80202e02:	cd21                	beqz	a0,80202e5a <_ZN4sel46kernel6object10objecttype9deriveCap17hb126702027e5e8b7E+0xb6>
    80202e04:	00093503          	ld	a0,0(s2)
    80202e08:	610c                	ld	a1,0(a0)
    80202e0a:	91ed                	srli	a1,a1,0x3b
    80202e0c:	4611                	li	a2,4
    80202e0e:	498d                	li	s3,3
    80202e10:	02c59863          	bne	a1,a2,80202e40 <_ZN4sel46kernel6object10objecttype9deriveCap17hb126702027e5e8b7E+0x9c>
    80202e14:	6508                	ld	a0,8(a0)
    80202e16:	c50d                	beqz	a0,80202e40 <_ZN4sel46kernel6object10objecttype9deriveCap17hb126702027e5e8b7E+0x9c>
    80202e18:	000a3583          	ld	a1,0(s4)
    80202e1c:	6190                	ld	a2,0(a1)
    80202e1e:	56fd                	li	a3,-1
    80202e20:	16ee                	slli	a3,a3,0x3b
    80202e22:	8e75                	and	a2,a2,a3
    80202e24:	4685                	li	a3,1
    80202e26:	16f6                	slli	a3,a3,0x3d
    80202e28:	04d61363          	bne	a2,a3,80202e6e <.LBB3_17>
    80202e2c:	658c                	ld	a1,8(a1)
    80202e2e:	02b51663          	bne	a0,a1,80202e5a <_ZN4sel46kernel6object10objecttype9deriveCap17hb126702027e5e8b7E+0xb6>
    80202e32:	008a3503          	ld	a0,8(s4)
    80202e36:	00854503          	lbu	a0,8(a0)
    80202e3a:	8905                	andi	a0,a0,1
    80202e3c:	4581                	li	a1,0
    80202e3e:	ed19                	bnez	a0,80202e5c <_ZN4sel46kernel6object10objecttype9deriveCap17hb126702027e5e8b7E+0xb8>
    80202e40:	4541                	li	a0,16
    80202e42:	4591                	li	a1,4
    80202e44:	00000097          	auipc	ra,0x0
    80202e48:	4de080e7          	jalr	1246(ra) # 80203322 <__rust_alloc>
    80202e4c:	84aa                	mv	s1,a0
    80202e4e:	00053023          	sd	zero,0(a0)
    80202e52:	00053423          	sd	zero,8(a0)
    80202e56:	85ce                	mv	a1,s3
    80202e58:	a011                	j	80202e5c <_ZN4sel46kernel6object10objecttype9deriveCap17hb126702027e5e8b7E+0xb8>
    80202e5a:	4581                	li	a1,0
    80202e5c:	8526                	mv	a0,s1
    80202e5e:	70a2                	ld	ra,40(sp)
    80202e60:	7402                	ld	s0,32(sp)
    80202e62:	64e2                	ld	s1,24(sp)
    80202e64:	6942                	ld	s2,16(sp)
    80202e66:	69a2                	ld	s3,8(sp)
    80202e68:	6a02                	ld	s4,0(sp)
    80202e6a:	6145                	addi	sp,sp,48
    80202e6c:	8082                	ret

0000000080202e6e <.LBB3_17>:
    80202e6e:	00007517          	auipc	a0,0x7
    80202e72:	ec250513          	addi	a0,a0,-318 # 80209d30 <anon.5f56f778d7ecc1cad02f62e2432e947c.5.llvm.16542580803174535731>

0000000080202e76 <.LBB3_18>:
    80202e76:	00007617          	auipc	a2,0x7
    80202e7a:	f1260613          	addi	a2,a2,-238 # 80209d88 <anon.5f56f778d7ecc1cad02f62e2432e947c.6.llvm.16542580803174535731>
    80202e7e:	05700593          	li	a1,87
    80202e82:	00001097          	auipc	ra,0x1
    80202e86:	54c080e7          	jalr	1356(ra) # 802043ce <_ZN4core9panicking5panic17h968d2b6b541ffadfE>
	...

0000000080202e8c <_ZN4sel49elfloader19mark_current_exited17h637cd8517df9f259E>:
    80202e8c:	1141                	addi	sp,sp,-16
    80202e8e:	e406                	sd	ra,8(sp)
    80202e90:	e022                	sd	s0,0(sp)
    80202e92:	0800                	addi	s0,sp,16

0000000080202e94 <.LBB4_1>:
    80202e94:	00004517          	auipc	a0,0x4
    80202e98:	53450513          	addi	a0,a0,1332 # 802073c8 <_ZN4sel46kernel6thread11ksCurThread17h5a674989a535a6f6E>
    80202e9c:	6108                	ld	a0,0(a0)
    80202e9e:	11853503          	ld	a0,280(a0)
    80202ea2:	610c                	ld	a1,0(a0)
    80202ea4:	99c1                	andi	a1,a1,-16
    80202ea6:	0085e593          	ori	a1,a1,8
    80202eaa:	e10c                	sd	a1,0(a0)
    80202eac:	60a2                	ld	ra,8(sp)
    80202eae:	6402                	ld	s0,0(sp)
    80202eb0:	0141                	addi	sp,sp,16
    80202eb2:	8082                	ret

0000000080202eb4 <_ZN4sel49elfloader13run_next_task17h1a06d899a2d5b66eE>:
    80202eb4:	7139                	addi	sp,sp,-64
    80202eb6:	fc06                	sd	ra,56(sp)
    80202eb8:	f822                	sd	s0,48(sp)
    80202eba:	0080                	addi	s0,sp,64

0000000080202ebc <.LBB5_6>:
    80202ebc:	0000b517          	auipc	a0,0xb
    80202ec0:	14450513          	addi	a0,a0,324 # 8020e000 <_num_app>
    80202ec4:	6108                	ld	a0,0(a0)
    80202ec6:	c915                	beqz	a0,80202efa <.LBB5_8>
    80202ec8:	11803583          	ld	a1,280(zero) # 118 <n+0xf8>
    80202ecc:	6190                	ld	a2,0(a1)
    80202ece:	00f67693          	andi	a3,a2,15
    80202ed2:	e285                	bnez	a3,80202ef2 <.LBB5_7+0x14>
    80202ed4:	ff067513          	andi	a0,a2,-16
    80202ed8:	00156513          	ori	a0,a0,1
    80202edc:	e188                	sd	a0,0(a1)

0000000080202ede <.LBB5_7>:
    80202ede:	00004517          	auipc	a0,0x4
    80202ee2:	4ea50513          	addi	a0,a0,1258 # 802073c8 <_ZN4sel46kernel6thread11ksCurThread17h5a674989a535a6f6E>
    80202ee6:	00053023          	sd	zero,0(a0)
    80202eea:	70e2                	ld	ra,56(sp)
    80202eec:	7442                	ld	s0,48(sp)
    80202eee:	6121                	addi	sp,sp,64
    80202ef0:	8082                	ret
    80202ef2:	153d                	addi	a0,a0,-17
    80202ef4:	55bd                	li	a1,-17
    80202ef6:	04a5f063          	bgeu	a1,a0,80202f36 <.LBB5_11>

0000000080202efa <.LBB5_8>:
    80202efa:	00007517          	auipc	a0,0x7
    80202efe:	1e650513          	addi	a0,a0,486 # 8020a0e0 <anon.74195d8e98de57e0ff4db1d6372c83b3.10.llvm.13570960477992927082>
    80202f02:	fca43823          	sd	a0,-48(s0)
    80202f06:	4505                	li	a0,1
    80202f08:	fca43c23          	sd	a0,-40(s0)
    80202f0c:	fc043023          	sd	zero,-64(s0)

0000000080202f10 <.LBB5_9>:
    80202f10:	00007517          	auipc	a0,0x7
    80202f14:	0f850513          	addi	a0,a0,248 # 8020a008 <anon.74195d8e98de57e0ff4db1d6372c83b3.1.llvm.13570960477992927082>
    80202f18:	fea43023          	sd	a0,-32(s0)
    80202f1c:	fe043423          	sd	zero,-24(s0)

0000000080202f20 <.LBB5_10>:
    80202f20:	00007597          	auipc	a1,0x7
    80202f24:	1d058593          	addi	a1,a1,464 # 8020a0f0 <anon.74195d8e98de57e0ff4db1d6372c83b3.11.llvm.13570960477992927082>
    80202f28:	fc040513          	addi	a0,s0,-64
    80202f2c:	00001097          	auipc	ra,0x1
    80202f30:	474080e7          	jalr	1140(ra) # 802043a0 <_ZN4core9panicking9panic_fmt17h09608ae52bd0d3adE>
	...

0000000080202f36 <.LBB5_11>:
    80202f36:	00007617          	auipc	a2,0x7
    80202f3a:	1d260613          	addi	a2,a2,466 # 8020a108 <anon.74195d8e98de57e0ff4db1d6372c83b3.12.llvm.13570960477992927082>
    80202f3e:	4541                	li	a0,16
    80202f40:	45c1                	li	a1,16
    80202f42:	00001097          	auipc	ra,0x1
    80202f46:	500080e7          	jalr	1280(ra) # 80204442 <_ZN4core9panicking18panic_bounds_check17h03ed6527cd415bf9E>
	...

0000000080202f4c <_ZN4sel410heap_alloc9init_heap17h3294eb883f2849c6E>:
    80202f4c:	1101                	addi	sp,sp,-32
    80202f4e:	ec06                	sd	ra,24(sp)
    80202f50:	e822                	sd	s0,16(sp)
    80202f52:	e426                	sd	s1,8(sp)
    80202f54:	e04a                	sd	s2,0(sp)
    80202f56:	1000                	addi	s0,sp,32

0000000080202f58 <.LBB0_3>:
    80202f58:	00819517          	auipc	a0,0x819
    80202f5c:	0c850513          	addi	a0,a0,200 # 80a1c020 <_ZN4sel410heap_alloc14HEAP_ALLOCATOR17hbb6e3d1831cfc824E.llvm.1009155428374481867>
    80202f60:	00001097          	auipc	ra,0x1
    80202f64:	1ba080e7          	jalr	442(ra) # 8020411a <_ZN78_$LT$buddy_system_allocator..LockedHeap$u20$as$u20$core..ops..deref..Deref$GT$5deref17h2474381731d24de7E>
    80202f68:	84aa                	mv	s1,a0
    80202f6a:	4505                	li	a0,1
    80202f6c:	00a4b92f          	amoadd.d	s2,a0,(s1)
    80202f70:	6488                	ld	a0,8(s1)
    80202f72:	0230000f          	fence	r,rw
    80202f76:	01250963          	beq	a0,s2,80202f88 <.LBB0_3+0x30>
    80202f7a:	0100000f          	fence	w,unknown
    80202f7e:	6488                	ld	a0,8(s1)
    80202f80:	0230000f          	fence	r,rw
    80202f84:	ff251be3          	bne	a0,s2,80202f7a <.LBB0_3+0x22>
    80202f88:	01048513          	addi	a0,s1,16

0000000080202f8c <.LBB0_4>:
    80202f8c:	00019597          	auipc	a1,0x19
    80202f90:	09458593          	addi	a1,a1,148 # 8021c020 <_ZN4sel410heap_alloc10HEAP_SPACE17h6de606521a529886E.llvm.1009155428374481867>
    80202f94:	00800637          	lui	a2,0x800
    80202f98:	00001097          	auipc	ra,0x1
    80202f9c:	c54080e7          	jalr	-940(ra) # 80203bec <_ZN22buddy_system_allocator4Heap4init17h096a9c186af21a8bE>
    80202fa0:	00190513          	addi	a0,s2,1
    80202fa4:	0310000f          	fence	rw,w
    80202fa8:	e488                	sd	a0,8(s1)
    80202faa:	60e2                	ld	ra,24(sp)
    80202fac:	6442                	ld	s0,16(sp)
    80202fae:	64a2                	ld	s1,8(sp)
    80202fb0:	6902                	ld	s2,0(sp)
    80202fb2:	6105                	addi	sp,sp,32
    80202fb4:	8082                	ret

0000000080202fb6 <__rg_alloc>:
    80202fb6:	1141                	addi	sp,sp,-16
    80202fb8:	e406                	sd	ra,8(sp)
    80202fba:	e022                	sd	s0,0(sp)
    80202fbc:	0800                	addi	s0,sp,16

0000000080202fbe <.LBB1_1>:
    80202fbe:	00819617          	auipc	a2,0x819
    80202fc2:	06260613          	addi	a2,a2,98 # 80a1c020 <_ZN4sel410heap_alloc14HEAP_ALLOCATOR17hbb6e3d1831cfc824E.llvm.1009155428374481867>
    80202fc6:	86ae                	mv	a3,a1
    80202fc8:	85aa                	mv	a1,a0
    80202fca:	8532                	mv	a0,a2
    80202fcc:	8636                	mv	a2,a3
    80202fce:	60a2                	ld	ra,8(sp)
    80202fd0:	6402                	ld	s0,0(sp)
    80202fd2:	0141                	addi	sp,sp,16
    80202fd4:	00001317          	auipc	t1,0x1
    80202fd8:	15630067          	jr	342(t1) # 8020412a <_ZN87_$LT$buddy_system_allocator..LockedHeap$u20$as$u20$core..alloc..global..GlobalAlloc$GT$5alloc17haa7e9017b26f4174E>

0000000080202fdc <__rg_dealloc>:
    80202fdc:	1141                	addi	sp,sp,-16
    80202fde:	e406                	sd	ra,8(sp)
    80202fe0:	e022                	sd	s0,0(sp)
    80202fe2:	0800                	addi	s0,sp,16

0000000080202fe4 <.LBB2_1>:
    80202fe4:	00819697          	auipc	a3,0x819
    80202fe8:	03c68693          	addi	a3,a3,60 # 80a1c020 <_ZN4sel410heap_alloc14HEAP_ALLOCATOR17hbb6e3d1831cfc824E.llvm.1009155428374481867>
    80202fec:	8732                	mv	a4,a2
    80202fee:	862e                	mv	a2,a1
    80202ff0:	85aa                	mv	a1,a0
    80202ff2:	8536                	mv	a0,a3
    80202ff4:	86ba                	mv	a3,a4
    80202ff6:	60a2                	ld	ra,8(sp)
    80202ff8:	6402                	ld	s0,0(sp)
    80202ffa:	0141                	addi	sp,sp,16
    80202ffc:	00001317          	auipc	t1,0x1
    80203000:	17c30067          	jr	380(t1) # 80204178 <_ZN87_$LT$buddy_system_allocator..LockedHeap$u20$as$u20$core..alloc..global..GlobalAlloc$GT$7dealloc17ha5c23284bbaeea22E>

0000000080203004 <_ZN4sel410heap_alloc18handle_alloc_error17h9322554a2fe4f4c8E>:
    80203004:	711d                	addi	sp,sp,-96
    80203006:	ec86                	sd	ra,88(sp)
    80203008:	e8a2                	sd	s0,80(sp)
    8020300a:	1080                	addi	s0,sp,96
    8020300c:	faa43023          	sd	a0,-96(s0)
    80203010:	fab43423          	sd	a1,-88(s0)
    80203014:	fa040513          	addi	a0,s0,-96
    80203018:	fea43023          	sd	a0,-32(s0)

000000008020301c <.LBB5_1>:
    8020301c:	00004517          	auipc	a0,0x4
    80203020:	d8250513          	addi	a0,a0,-638 # 80206d9e <_ZN64_$LT$core..alloc..layout..Layout$u20$as$u20$core..fmt..Debug$GT$3fmt17h4dffa51a136ebc57E>
    80203024:	fea43423          	sd	a0,-24(s0)

0000000080203028 <.LBB5_2>:
    80203028:	00007517          	auipc	a0,0x7
    8020302c:	15850513          	addi	a0,a0,344 # 8020a180 <.Lanon.8416e864cf83239da1e4ac6d034ea70f.1>
    80203030:	fca43023          	sd	a0,-64(s0)
    80203034:	4505                	li	a0,1
    80203036:	fca43423          	sd	a0,-56(s0)
    8020303a:	fa043823          	sd	zero,-80(s0)
    8020303e:	fe040593          	addi	a1,s0,-32
    80203042:	fcb43823          	sd	a1,-48(s0)
    80203046:	fca43c23          	sd	a0,-40(s0)

000000008020304a <.LBB5_3>:
    8020304a:	00007597          	auipc	a1,0x7
    8020304e:	15e58593          	addi	a1,a1,350 # 8020a1a8 <.Lanon.8416e864cf83239da1e4ac6d034ea70f.3>
    80203052:	fb040513          	addi	a0,s0,-80
    80203056:	00001097          	auipc	ra,0x1
    8020305a:	34a080e7          	jalr	842(ra) # 802043a0 <_ZN4core9panicking9panic_fmt17h09608ae52bd0d3adE>
	...

0000000080203060 <__rg_oom>:
    80203060:	1141                	addi	sp,sp,-16
    80203062:	e406                	sd	ra,8(sp)
    80203064:	e022                	sd	s0,0(sp)
    80203066:	0800                	addi	s0,sp,16
    80203068:	00000097          	auipc	ra,0x0
    8020306c:	f9c080e7          	jalr	-100(ra) # 80203004 <_ZN4sel410heap_alloc18handle_alloc_error17h9322554a2fe4f4c8E>
	...

0000000080203072 <_ZN4core3ptr37drop_in_place$LT$core..fmt..Error$GT$17h8a07bd9b64186cfeE.llvm.493118147765580453>:
    80203072:	1141                	addi	sp,sp,-16
    80203074:	e406                	sd	ra,8(sp)
    80203076:	e022                	sd	s0,0(sp)
    80203078:	0800                	addi	s0,sp,16
    8020307a:	60a2                	ld	ra,8(sp)
    8020307c:	6402                	ld	s0,0(sp)
    8020307e:	0141                	addi	sp,sp,16
    80203080:	8082                	ret

0000000080203082 <_ZN50_$LT$$RF$mut$u20$W$u20$as$u20$core..fmt..Write$GT$10write_char17hf0d505868795947eE.llvm.493118147765580453>:
    80203082:	1101                	addi	sp,sp,-32
    80203084:	ec06                	sd	ra,24(sp)
    80203086:	e822                	sd	s0,16(sp)
    80203088:	1000                	addi	s0,sp,32
    8020308a:	0005851b          	sext.w	a0,a1
    8020308e:	08000613          	li	a2,128
    80203092:	fe042623          	sw	zero,-20(s0)
    80203096:	00c57663          	bgeu	a0,a2,802030a2 <_ZN50_$LT$$RF$mut$u20$W$u20$as$u20$core..fmt..Write$GT$10write_char17hf0d505868795947eE.llvm.493118147765580453+0x20>
    8020309a:	feb40623          	sb	a1,-20(s0)
    8020309e:	4505                	li	a0,1
    802030a0:	a851                	j	80203134 <_ZN50_$LT$$RF$mut$u20$W$u20$as$u20$core..fmt..Write$GT$10write_char17hf0d505868795947eE.llvm.493118147765580453+0xb2>
    802030a2:	00b5d51b          	srliw	a0,a1,0xb
    802030a6:	ed19                	bnez	a0,802030c4 <_ZN50_$LT$$RF$mut$u20$W$u20$as$u20$core..fmt..Write$GT$10write_char17hf0d505868795947eE.llvm.493118147765580453+0x42>
    802030a8:	0065d513          	srli	a0,a1,0x6
    802030ac:	0c056513          	ori	a0,a0,192
    802030b0:	fea40623          	sb	a0,-20(s0)
    802030b4:	03f5f513          	andi	a0,a1,63
    802030b8:	08056513          	ori	a0,a0,128
    802030bc:	fea406a3          	sb	a0,-19(s0)
    802030c0:	4509                	li	a0,2
    802030c2:	a88d                	j	80203134 <_ZN50_$LT$$RF$mut$u20$W$u20$as$u20$core..fmt..Write$GT$10write_char17hf0d505868795947eE.llvm.493118147765580453+0xb2>
    802030c4:	0105d51b          	srliw	a0,a1,0x10
    802030c8:	e905                	bnez	a0,802030f8 <_ZN50_$LT$$RF$mut$u20$W$u20$as$u20$core..fmt..Write$GT$10write_char17hf0d505868795947eE.llvm.493118147765580453+0x76>
    802030ca:	02059513          	slli	a0,a1,0x20
    802030ce:	9101                	srli	a0,a0,0x20
    802030d0:	00c5d61b          	srliw	a2,a1,0xc
    802030d4:	0e066613          	ori	a2,a2,224
    802030d8:	fec40623          	sb	a2,-20(s0)
    802030dc:	1552                	slli	a0,a0,0x34
    802030de:	9169                	srli	a0,a0,0x3a
    802030e0:	08056513          	ori	a0,a0,128
    802030e4:	fea406a3          	sb	a0,-19(s0)
    802030e8:	03f5f513          	andi	a0,a1,63
    802030ec:	08056513          	ori	a0,a0,128
    802030f0:	fea40723          	sb	a0,-18(s0)
    802030f4:	450d                	li	a0,3
    802030f6:	a83d                	j	80203134 <_ZN50_$LT$$RF$mut$u20$W$u20$as$u20$core..fmt..Write$GT$10write_char17hf0d505868795947eE.llvm.493118147765580453+0xb2>
    802030f8:	02059513          	slli	a0,a1,0x20
    802030fc:	9101                	srli	a0,a0,0x20
    802030fe:	02b51613          	slli	a2,a0,0x2b
    80203102:	9275                	srli	a2,a2,0x3d
    80203104:	0f066613          	ori	a2,a2,240
    80203108:	fec40623          	sb	a2,-20(s0)
    8020310c:	02e51613          	slli	a2,a0,0x2e
    80203110:	9269                	srli	a2,a2,0x3a
    80203112:	08066613          	ori	a2,a2,128
    80203116:	fec406a3          	sb	a2,-19(s0)
    8020311a:	1552                	slli	a0,a0,0x34
    8020311c:	9169                	srli	a0,a0,0x3a
    8020311e:	08056513          	ori	a0,a0,128
    80203122:	fea40723          	sb	a0,-18(s0)
    80203126:	03f5f513          	andi	a0,a1,63
    8020312a:	08056513          	ori	a0,a0,128
    8020312e:	fea407a3          	sb	a0,-17(s0)
    80203132:	4511                	li	a0,4
    80203134:	fec40693          	addi	a3,s0,-20
    80203138:	00a68733          	add	a4,a3,a0
    8020313c:	0df00313          	li	t1,223
    80203140:	0f000813          	li	a6,240
    80203144:	001102b7          	lui	t0,0x110
    80203148:	4885                	li	a7,1
    8020314a:	a801                	j	8020315a <_ZN50_$LT$$RF$mut$u20$W$u20$as$u20$core..fmt..Write$GT$10write_char17hf0d505868795947eE.llvm.493118147765580453+0xd8>
    8020314c:	0685                	addi	a3,a3,1
    8020314e:	4581                	li	a1,0
    80203150:	4601                	li	a2,0
    80203152:	00000073          	ecall
    80203156:	04e68f63          	beq	a3,a4,802031b4 <_ZN50_$LT$$RF$mut$u20$W$u20$as$u20$core..fmt..Write$GT$10write_char17hf0d505868795947eE.llvm.493118147765580453+0x132>
    8020315a:	00068583          	lb	a1,0(a3)
    8020315e:	0ff5f513          	andi	a0,a1,255
    80203162:	fe05d5e3          	bgez	a1,8020314c <_ZN50_$LT$$RF$mut$u20$W$u20$as$u20$core..fmt..Write$GT$10write_char17hf0d505868795947eE.llvm.493118147765580453+0xca>
    80203166:	0016c603          	lbu	a2,1(a3)
    8020316a:	01f57593          	andi	a1,a0,31
    8020316e:	03f67613          	andi	a2,a2,63
    80203172:	02a37763          	bgeu	t1,a0,802031a0 <_ZN50_$LT$$RF$mut$u20$W$u20$as$u20$core..fmt..Write$GT$10write_char17hf0d505868795947eE.llvm.493118147765580453+0x11e>
    80203176:	0026c783          	lbu	a5,2(a3)
    8020317a:	061a                	slli	a2,a2,0x6
    8020317c:	03f7f793          	andi	a5,a5,63
    80203180:	8e5d                	or	a2,a2,a5
    80203182:	03056463          	bltu	a0,a6,802031aa <_ZN50_$LT$$RF$mut$u20$W$u20$as$u20$core..fmt..Write$GT$10write_char17hf0d505868795947eE.llvm.493118147765580453+0x128>
    80203186:	0036c503          	lbu	a0,3(a3)
    8020318a:	15f6                	slli	a1,a1,0x3d
    8020318c:	91ad                	srli	a1,a1,0x2b
    8020318e:	061a                	slli	a2,a2,0x6
    80203190:	03f57513          	andi	a0,a0,63
    80203194:	8d51                	or	a0,a0,a2
    80203196:	8d4d                	or	a0,a0,a1
    80203198:	00550e63          	beq	a0,t0,802031b4 <_ZN50_$LT$$RF$mut$u20$W$u20$as$u20$core..fmt..Write$GT$10write_char17hf0d505868795947eE.llvm.493118147765580453+0x132>
    8020319c:	0691                	addi	a3,a3,4
    8020319e:	bf45                	j	8020314e <_ZN50_$LT$$RF$mut$u20$W$u20$as$u20$core..fmt..Write$GT$10write_char17hf0d505868795947eE.llvm.493118147765580453+0xcc>
    802031a0:	0689                	addi	a3,a3,2
    802031a2:	00659513          	slli	a0,a1,0x6
    802031a6:	8d51                	or	a0,a0,a2
    802031a8:	b75d                	j	8020314e <_ZN50_$LT$$RF$mut$u20$W$u20$as$u20$core..fmt..Write$GT$10write_char17hf0d505868795947eE.llvm.493118147765580453+0xcc>
    802031aa:	068d                	addi	a3,a3,3
    802031ac:	00c59513          	slli	a0,a1,0xc
    802031b0:	8d51                	or	a0,a0,a2
    802031b2:	bf71                	j	8020314e <_ZN50_$LT$$RF$mut$u20$W$u20$as$u20$core..fmt..Write$GT$10write_char17hf0d505868795947eE.llvm.493118147765580453+0xcc>
    802031b4:	4501                	li	a0,0
    802031b6:	60e2                	ld	ra,24(sp)
    802031b8:	6442                	ld	s0,16(sp)
    802031ba:	6105                	addi	sp,sp,32
    802031bc:	8082                	ret

00000000802031be <_ZN50_$LT$$RF$mut$u20$W$u20$as$u20$core..fmt..Write$GT$9write_fmt17hea6da6f03dcdd814E.llvm.493118147765580453>:
    802031be:	715d                	addi	sp,sp,-80
    802031c0:	e486                	sd	ra,72(sp)
    802031c2:	e0a2                	sd	s0,64(sp)
    802031c4:	0880                	addi	s0,sp,80
    802031c6:	6108                	ld	a0,0(a0)
    802031c8:	7590                	ld	a2,40(a1)
    802031ca:	7194                	ld	a3,32(a1)
    802031cc:	faa43c23          	sd	a0,-72(s0)
    802031d0:	fec43423          	sd	a2,-24(s0)
    802031d4:	fed43023          	sd	a3,-32(s0)
    802031d8:	6d88                	ld	a0,24(a1)
    802031da:	6990                	ld	a2,16(a1)
    802031dc:	6594                	ld	a3,8(a1)
    802031de:	618c                	ld	a1,0(a1)
    802031e0:	fca43c23          	sd	a0,-40(s0)
    802031e4:	fcc43823          	sd	a2,-48(s0)
    802031e8:	fcd43423          	sd	a3,-56(s0)
    802031ec:	fcb43023          	sd	a1,-64(s0)

00000000802031f0 <.LBB2_1>:
    802031f0:	00007597          	auipc	a1,0x7
    802031f4:	fd058593          	addi	a1,a1,-48 # 8020a1c0 <anon.f016384ff5f45e36efedd53711d4611b.0.llvm.493118147765580453>
    802031f8:	fb840513          	addi	a0,s0,-72
    802031fc:	fc040613          	addi	a2,s0,-64
    80203200:	00002097          	auipc	ra,0x2
    80203204:	b12080e7          	jalr	-1262(ra) # 80204d12 <_ZN4core3fmt5write17h42fcd7b837de3f75E>
    80203208:	60a6                	ld	ra,72(sp)
    8020320a:	6406                	ld	s0,64(sp)
    8020320c:	6161                	addi	sp,sp,80
    8020320e:	8082                	ret

0000000080203210 <_ZN50_$LT$$RF$mut$u20$W$u20$as$u20$core..fmt..Write$GT$9write_str17hff577ac6e379d064E.llvm.493118147765580453>:
    80203210:	1141                	addi	sp,sp,-16
    80203212:	e406                	sd	ra,8(sp)
    80203214:	e022                	sd	s0,0(sp)
    80203216:	0800                	addi	s0,sp,16
    80203218:	c241                	beqz	a2,80203298 <_ZN50_$LT$$RF$mut$u20$W$u20$as$u20$core..fmt..Write$GT$9write_str17hff577ac6e379d064E.llvm.493118147765580453+0x88>
    8020321a:	86ae                	mv	a3,a1
    8020321c:	00c58733          	add	a4,a1,a2
    80203220:	0df00313          	li	t1,223
    80203224:	0f000813          	li	a6,240
    80203228:	001102b7          	lui	t0,0x110
    8020322c:	4885                	li	a7,1
    8020322e:	a801                	j	8020323e <_ZN50_$LT$$RF$mut$u20$W$u20$as$u20$core..fmt..Write$GT$9write_str17hff577ac6e379d064E.llvm.493118147765580453+0x2e>
    80203230:	0685                	addi	a3,a3,1
    80203232:	4581                	li	a1,0
    80203234:	4601                	li	a2,0
    80203236:	00000073          	ecall
    8020323a:	04e68f63          	beq	a3,a4,80203298 <_ZN50_$LT$$RF$mut$u20$W$u20$as$u20$core..fmt..Write$GT$9write_str17hff577ac6e379d064E.llvm.493118147765580453+0x88>
    8020323e:	00068583          	lb	a1,0(a3)
    80203242:	0ff5f513          	andi	a0,a1,255
    80203246:	fe05d5e3          	bgez	a1,80203230 <_ZN50_$LT$$RF$mut$u20$W$u20$as$u20$core..fmt..Write$GT$9write_str17hff577ac6e379d064E.llvm.493118147765580453+0x20>
    8020324a:	0016c603          	lbu	a2,1(a3)
    8020324e:	01f57593          	andi	a1,a0,31
    80203252:	03f67613          	andi	a2,a2,63
    80203256:	02a37763          	bgeu	t1,a0,80203284 <_ZN50_$LT$$RF$mut$u20$W$u20$as$u20$core..fmt..Write$GT$9write_str17hff577ac6e379d064E.llvm.493118147765580453+0x74>
    8020325a:	0026c783          	lbu	a5,2(a3)
    8020325e:	061a                	slli	a2,a2,0x6
    80203260:	03f7f793          	andi	a5,a5,63
    80203264:	8e5d                	or	a2,a2,a5
    80203266:	03056463          	bltu	a0,a6,8020328e <_ZN50_$LT$$RF$mut$u20$W$u20$as$u20$core..fmt..Write$GT$9write_str17hff577ac6e379d064E.llvm.493118147765580453+0x7e>
    8020326a:	0036c503          	lbu	a0,3(a3)
    8020326e:	15f6                	slli	a1,a1,0x3d
    80203270:	91ad                	srli	a1,a1,0x2b
    80203272:	061a                	slli	a2,a2,0x6
    80203274:	03f57513          	andi	a0,a0,63
    80203278:	8d51                	or	a0,a0,a2
    8020327a:	8d4d                	or	a0,a0,a1
    8020327c:	00550e63          	beq	a0,t0,80203298 <_ZN50_$LT$$RF$mut$u20$W$u20$as$u20$core..fmt..Write$GT$9write_str17hff577ac6e379d064E.llvm.493118147765580453+0x88>
    80203280:	0691                	addi	a3,a3,4
    80203282:	bf45                	j	80203232 <_ZN50_$LT$$RF$mut$u20$W$u20$as$u20$core..fmt..Write$GT$9write_str17hff577ac6e379d064E.llvm.493118147765580453+0x22>
    80203284:	0689                	addi	a3,a3,2
    80203286:	00659513          	slli	a0,a1,0x6
    8020328a:	8d51                	or	a0,a0,a2
    8020328c:	b75d                	j	80203232 <_ZN50_$LT$$RF$mut$u20$W$u20$as$u20$core..fmt..Write$GT$9write_str17hff577ac6e379d064E.llvm.493118147765580453+0x22>
    8020328e:	068d                	addi	a3,a3,3
    80203290:	00c59513          	slli	a0,a1,0xc
    80203294:	8d51                	or	a0,a0,a2
    80203296:	bf71                	j	80203232 <_ZN50_$LT$$RF$mut$u20$W$u20$as$u20$core..fmt..Write$GT$9write_str17hff577ac6e379d064E.llvm.493118147765580453+0x22>
    80203298:	4501                	li	a0,0
    8020329a:	60a2                	ld	ra,8(sp)
    8020329c:	6402                	ld	s0,0(sp)
    8020329e:	0141                	addi	sp,sp,16
    802032a0:	8082                	ret

00000000802032a2 <_ZN4sel47console5print17hac8e0d72989ef035E>:
    802032a2:	715d                	addi	sp,sp,-80
    802032a4:	e486                	sd	ra,72(sp)
    802032a6:	e0a2                	sd	s0,64(sp)
    802032a8:	0880                	addi	s0,sp,80
    802032aa:	750c                	ld	a1,40(a0)
    802032ac:	7110                	ld	a2,32(a0)
    802032ae:	fe840693          	addi	a3,s0,-24
    802032b2:	fad43823          	sd	a3,-80(s0)
    802032b6:	feb43023          	sd	a1,-32(s0)
    802032ba:	fcc43c23          	sd	a2,-40(s0)
    802032be:	6d0c                	ld	a1,24(a0)
    802032c0:	6910                	ld	a2,16(a0)
    802032c2:	6514                	ld	a3,8(a0)
    802032c4:	6108                	ld	a0,0(a0)
    802032c6:	fcb43823          	sd	a1,-48(s0)
    802032ca:	fcc43423          	sd	a2,-56(s0)
    802032ce:	fcd43023          	sd	a3,-64(s0)
    802032d2:	faa43c23          	sd	a0,-72(s0)

00000000802032d6 <.LBB4_3>:
    802032d6:	00007597          	auipc	a1,0x7
    802032da:	eea58593          	addi	a1,a1,-278 # 8020a1c0 <anon.f016384ff5f45e36efedd53711d4611b.0.llvm.493118147765580453>
    802032de:	fb040513          	addi	a0,s0,-80
    802032e2:	fb840613          	addi	a2,s0,-72
    802032e6:	00002097          	auipc	ra,0x2
    802032ea:	a2c080e7          	jalr	-1492(ra) # 80204d12 <_ZN4core3fmt5write17h42fcd7b837de3f75E>
    802032ee:	e509                	bnez	a0,802032f8 <.LBB4_4>
    802032f0:	60a6                	ld	ra,72(sp)
    802032f2:	6406                	ld	s0,64(sp)
    802032f4:	6161                	addi	sp,sp,80
    802032f6:	8082                	ret

00000000802032f8 <.LBB4_4>:
    802032f8:	00007517          	auipc	a0,0x7
    802032fc:	ef850513          	addi	a0,a0,-264 # 8020a1f0 <anon.f016384ff5f45e36efedd53711d4611b.1.llvm.493118147765580453>

0000000080203300 <.LBB4_5>:
    80203300:	00007697          	auipc	a3,0x7
    80203304:	f2068693          	addi	a3,a3,-224 # 8020a220 <anon.f016384ff5f45e36efedd53711d4611b.2.llvm.493118147765580453>

0000000080203308 <.LBB4_6>:
    80203308:	00007717          	auipc	a4,0x7
    8020330c:	f4870713          	addi	a4,a4,-184 # 8020a250 <anon.f016384ff5f45e36efedd53711d4611b.4.llvm.493118147765580453>
    80203310:	02b00593          	li	a1,43
    80203314:	fe840613          	addi	a2,s0,-24
    80203318:	00001097          	auipc	ra,0x1
    8020331c:	256080e7          	jalr	598(ra) # 8020456e <_ZN4core6result13unwrap_failed17h93c501911315d321E>
	...

0000000080203322 <__rust_alloc>:
    80203322:	00000317          	auipc	t1,0x0
    80203326:	c9430067          	jr	-876(t1) # 80202fb6 <__rg_alloc>

000000008020332a <__rust_dealloc>:
    8020332a:	00000317          	auipc	t1,0x0
    8020332e:	cb230067          	jr	-846(t1) # 80202fdc <__rg_dealloc>

0000000080203332 <__rust_alloc_error_handler>:
    80203332:	00000317          	auipc	t1,0x0
    80203336:	d2e30067          	jr	-722(t1) # 80203060 <__rg_oom>

000000008020333a <_ZN8xmas_elf6header9HeaderPt211entry_point17hafb9c82c1210bbd5E>:
    8020333a:	1141                	addi	sp,sp,-16
    8020333c:	e406                	sd	ra,8(sp)
    8020333e:	e022                	sd	s0,0(sp)
    80203340:	0800                	addi	s0,sp,16
    80203342:	610c                	ld	a1,0(a0)
    80203344:	6508                	ld	a0,8(a0)
    80203346:	c591                	beqz	a1,80203352 <_ZN8xmas_elf6header9HeaderPt211entry_point17hafb9c82c1210bbd5E+0x18>
    80203348:	6508                	ld	a0,8(a0)
    8020334a:	60a2                	ld	ra,8(sp)
    8020334c:	6402                	ld	s0,0(sp)
    8020334e:	0141                	addi	sp,sp,16
    80203350:	8082                	ret
    80203352:	00856503          	lwu	a0,8(a0)
    80203356:	60a2                	ld	ra,8(sp)
    80203358:	6402                	ld	s0,0(sp)
    8020335a:	0141                	addi	sp,sp,16
    8020335c:	8082                	ret

000000008020335e <_ZN8xmas_elf6header9HeaderPt28ph_count17h7b91e667755c773dE>:
    8020335e:	1141                	addi	sp,sp,-16
    80203360:	e406                	sd	ra,8(sp)
    80203362:	e022                	sd	s0,0(sp)
    80203364:	0800                	addi	s0,sp,16
    80203366:	6110                	ld	a2,0(a0)
    80203368:	6508                	ld	a0,8(a0)
    8020336a:	45f1                	li	a1,28
    8020336c:	c219                	beqz	a2,80203372 <_ZN8xmas_elf6header9HeaderPt28ph_count17h7b91e667755c773dE+0x14>
    8020336e:	02800593          	li	a1,40
    80203372:	952e                	add	a0,a0,a1
    80203374:	00051503          	lh	a0,0(a0)
    80203378:	60a2                	ld	ra,8(sp)
    8020337a:	6402                	ld	s0,0(sp)
    8020337c:	0141                	addi	sp,sp,16
    8020337e:	8082                	ret

0000000080203380 <_ZN8xmas_elf7program20parse_program_header17h47a2716c54fa876fE>:
    80203380:	1141                	addi	sp,sp,-16
    80203382:	e406                	sd	ra,8(sp)
    80203384:	e022                	sd	s0,0(sp)
    80203386:	0800                	addi	s0,sp,16
    80203388:	629c                	ld	a5,0(a3)
    8020338a:	0086b803          	ld	a6,8(a3)
    8020338e:	1742                	slli	a4,a4,0x30
    80203390:	03075293          	srli	t0,a4,0x30
    80203394:	4771                	li	a4,28
    80203396:	c399                	beqz	a5,8020339c <_ZN8xmas_elf7program20parse_program_header17h47a2716c54fa876fE+0x1c>
    80203398:	02800713          	li	a4,40
    8020339c:	9742                	add	a4,a4,a6
    8020339e:	00075703          	lhu	a4,0(a4)
    802033a2:	06e2f363          	bgeu	t0,a4,80203408 <.LBB6_32>
    802033a6:	c791                	beqz	a5,802033b2 <_ZN8xmas_elf7program20parse_program_header17h47a2716c54fa876fE+0x32>
    802033a8:	01083883          	ld	a7,16(a6)
    802033ac:	00089763          	bnez	a7,802033ba <_ZN8xmas_elf7program20parse_program_header17h47a2716c54fa876fE+0x3a>
    802033b0:	a8a1                	j	80203408 <.LBB6_32>
    802033b2:	00c86883          	lwu	a7,12(a6)
    802033b6:	04088963          	beqz	a7,80203408 <.LBB6_32>
    802033ba:	4769                	li	a4,26
    802033bc:	c399                	beqz	a5,802033c2 <_ZN8xmas_elf7program20parse_program_header17h47a2716c54fa876fE+0x42>
    802033be:	02600713          	li	a4,38
    802033c2:	9742                	add	a4,a4,a6
    802033c4:	00075783          	lhu	a5,0(a4)
    802033c8:	c3a1                	beqz	a5,80203408 <.LBB6_32>
    802033ca:	6a94                	ld	a3,16(a3)
    802033cc:	0046c703          	lbu	a4,4(a3)
    802033d0:	025786b3          	mul	a3,a5,t0
    802033d4:	011682b3          	add	t0,a3,a7
    802033d8:	4885                	li	a7,1
    802033da:	00f28833          	add	a6,t0,a5
    802033de:	05170363          	beq	a4,a7,80203424 <.LBB6_32+0x1c>
    802033e2:	4689                	li	a3,2
    802033e4:	08d71e63          	bne	a4,a3,80203480 <.LBB6_37>
    802033e8:	0a586b63          	bltu	a6,t0,8020349e <.LBB6_39>
    802033ec:	0b066e63          	bltu	a2,a6,802034a8 <.LBB6_40>
    802033f0:	03800613          	li	a2,56
    802033f4:	04c7e863          	bltu	a5,a2,80203444 <.LBB6_33>
    802033f8:	9596                	add	a1,a1,t0
    802033fa:	0075f613          	andi	a2,a1,7
    802033fe:	e235                	bnez	a2,80203462 <.LBB6_35>
    80203400:	4685                	li	a3,1
    80203402:	e514                	sd	a3,8(a0)
    80203404:	e90c                	sd	a1,16(a0)
    80203406:	a811                	j	8020341a <.LBB6_32+0x12>

0000000080203408 <.LBB6_32>:
    80203408:	00007597          	auipc	a1,0x7
    8020340c:	0b058593          	addi	a1,a1,176 # 8020a4b8 <anon.61dd278ed6969a248983b75b1bbdfe03.5.llvm.2448809545910029770>
    80203410:	e50c                	sd	a1,8(a0)
    80203412:	02900593          	li	a1,41
    80203416:	e90c                	sd	a1,16(a0)
    80203418:	4605                	li	a2,1
    8020341a:	e110                	sd	a2,0(a0)
    8020341c:	60a2                	ld	ra,8(sp)
    8020341e:	6402                	ld	s0,0(sp)
    80203420:	0141                	addi	sp,sp,16
    80203422:	8082                	ret
    80203424:	08586763          	bltu	a6,t0,802034b2 <.LBB6_41>
    80203428:	0b066063          	bltu	a2,a6,802034c8 <.LBB6_42>
    8020342c:	02000613          	li	a2,32
    80203430:	00c7ea63          	bltu	a5,a2,80203444 <.LBB6_33>
    80203434:	9596                	add	a1,a1,t0
    80203436:	0035f613          	andi	a2,a1,3
    8020343a:	e605                	bnez	a2,80203462 <.LBB6_35>
    8020343c:	e90c                	sd	a1,16(a0)
    8020343e:	00053423          	sd	zero,8(a0)
    80203442:	bfe1                	j	8020341a <.LBB6_32+0x12>

0000000080203444 <.LBB6_33>:
    80203444:	00007517          	auipc	a0,0x7
    80203448:	2f450513          	addi	a0,a0,756 # 8020a738 <anon.bf7a0ff72bf9233d02a3eee62e40ea5e.5.llvm.10543462675162236961>

000000008020344c <.LBB6_34>:
    8020344c:	00007617          	auipc	a2,0x7
    80203450:	32460613          	addi	a2,a2,804 # 8020a770 <anon.bf7a0ff72bf9233d02a3eee62e40ea5e.6.llvm.10543462675162236961>
    80203454:	03400593          	li	a1,52
    80203458:	00001097          	auipc	ra,0x1
    8020345c:	f76080e7          	jalr	-138(ra) # 802043ce <_ZN4core9panicking5panic17h968d2b6b541ffadfE>
	...

0000000080203462 <.LBB6_35>:
    80203462:	00007517          	auipc	a0,0x7
    80203466:	32650513          	addi	a0,a0,806 # 8020a788 <anon.bf7a0ff72bf9233d02a3eee62e40ea5e.7.llvm.10543462675162236961>

000000008020346a <.LBB6_36>:
    8020346a:	00007617          	auipc	a2,0x7
    8020346e:	35e60613          	addi	a2,a2,862 # 8020a7c8 <anon.bf7a0ff72bf9233d02a3eee62e40ea5e.8.llvm.10543462675162236961>
    80203472:	03a00593          	li	a1,58
    80203476:	00001097          	auipc	ra,0x1
    8020347a:	f58080e7          	jalr	-168(ra) # 802043ce <_ZN4core9panicking5panic17h968d2b6b541ffadfE>
	...

0000000080203480 <.LBB6_37>:
    80203480:	00007517          	auipc	a0,0x7
    80203484:	0f050513          	addi	a0,a0,240 # 8020a570 <anon.61dd278ed6969a248983b75b1bbdfe03.9.llvm.2448809545910029770>

0000000080203488 <.LBB6_38>:
    80203488:	00007617          	auipc	a2,0x7
    8020348c:	11060613          	addi	a2,a2,272 # 8020a598 <anon.61dd278ed6969a248983b75b1bbdfe03.10.llvm.2448809545910029770>
    80203490:	02800593          	li	a1,40
    80203494:	00001097          	auipc	ra,0x1
    80203498:	f3a080e7          	jalr	-198(ra) # 802043ce <_ZN4core9panicking5panic17h968d2b6b541ffadfE>
	...

000000008020349e <.LBB6_39>:
    8020349e:	00007617          	auipc	a2,0x7
    802034a2:	0a260613          	addi	a2,a2,162 # 8020a540 <anon.61dd278ed6969a248983b75b1bbdfe03.7.llvm.2448809545910029770>
    802034a6:	a811                	j	802034ba <.LBB6_41+0x8>

00000000802034a8 <.LBB6_40>:
    802034a8:	00007697          	auipc	a3,0x7
    802034ac:	09868693          	addi	a3,a3,152 # 8020a540 <anon.61dd278ed6969a248983b75b1bbdfe03.7.llvm.2448809545910029770>
    802034b0:	a005                	j	802034d0 <.LBB6_42+0x8>

00000000802034b2 <.LBB6_41>:
    802034b2:	00007617          	auipc	a2,0x7
    802034b6:	0a660613          	addi	a2,a2,166 # 8020a558 <anon.61dd278ed6969a248983b75b1bbdfe03.8.llvm.2448809545910029770>
    802034ba:	8516                	mv	a0,t0
    802034bc:	85c2                	mv	a1,a6
    802034be:	00002097          	auipc	ra,0x2
    802034c2:	670080e7          	jalr	1648(ra) # 80205b2e <_ZN4core5slice5index22slice_index_order_fail17h5e40dbaf83b6bef2E>
	...

00000000802034c8 <.LBB6_42>:
    802034c8:	00007697          	auipc	a3,0x7
    802034cc:	09068693          	addi	a3,a3,144 # 8020a558 <anon.61dd278ed6969a248983b75b1bbdfe03.8.llvm.2448809545910029770>
    802034d0:	8542                	mv	a0,a6
    802034d2:	85b2                	mv	a1,a2
    802034d4:	8636                	mv	a2,a3
    802034d6:	00002097          	auipc	ra,0x2
    802034da:	60a080e7          	jalr	1546(ra) # 80205ae0 <_ZN4core5slice5index24slice_end_index_len_fail17h2a7a625b26924207E>
	...

00000000802034e0 <_ZN8xmas_elf7program13ProgramHeader8get_type17h5c783a3d469e9548E>:
    802034e0:	1141                	addi	sp,sp,-16
    802034e2:	e406                	sd	ra,8(sp)
    802034e4:	e022                	sd	s0,0(sp)
    802034e6:	0800                	addi	s0,sp,16
    802034e8:	6190                	ld	a2,0(a1)
    802034ea:	658c                	ld	a1,8(a1)
    802034ec:	ce09                	beqz	a2,80203506 <.LBB8_23+0xe>
    802034ee:	418c                	lw	a1,0(a1)
    802034f0:	461d                	li	a2,7
    802034f2:	02b66963          	bltu	a2,a1,80203524 <.LBB8_5+0x6>
    802034f6:	058e                	slli	a1,a1,0x3

00000000802034f8 <.LBB8_23>:
    802034f8:	00007617          	auipc	a2,0x7
    802034fc:	ec060613          	addi	a2,a2,-320 # 8020a3b8 <.LJTI8_0>
    80203500:	95b2                	add	a1,a1,a2
    80203502:	618c                	ld	a1,0(a1)
    80203504:	8582                	jr	a1
    80203506:	418c                	lw	a1,0(a1)
    80203508:	461d                	li	a2,7
    8020350a:	00b66d63          	bltu	a2,a1,80203524 <.LBB8_5+0x6>
    8020350e:	058e                	slli	a1,a1,0x3

0000000080203510 <.LBB8_24>:
    80203510:	00007617          	auipc	a2,0x7
    80203514:	ee860613          	addi	a2,a2,-280 # 8020a3f8 <.LJTI8_1>
    80203518:	95b2                	add	a1,a1,a2
    8020351a:	618c                	ld	a1,0(a1)
    8020351c:	8582                	jr	a1

000000008020351e <.LBB8_5>:
    8020351e:	00052423          	sw	zero,8(a0)
    80203522:	a03d                	j	80203550 <.LBB8_14+0x4>
    80203524:	6474e637          	lui	a2,0x6474e
    80203528:	5526061b          	addiw	a2,a2,1362
    8020352c:	02c59863          	bne	a1,a2,8020355c <.LBB8_14+0x10>
    80203530:	45a1                	li	a1,8
    80203532:	a831                	j	8020354e <.LBB8_14+0x2>

0000000080203534 <.LBB8_8>:
    80203534:	4585                	li	a1,1
    80203536:	a821                	j	8020354e <.LBB8_14+0x2>

0000000080203538 <.LBB8_9>:
    80203538:	4589                	li	a1,2
    8020353a:	a811                	j	8020354e <.LBB8_14+0x2>

000000008020353c <.LBB8_10>:
    8020353c:	458d                	li	a1,3
    8020353e:	a801                	j	8020354e <.LBB8_14+0x2>

0000000080203540 <.LBB8_11>:
    80203540:	4591                	li	a1,4
    80203542:	a031                	j	8020354e <.LBB8_14+0x2>

0000000080203544 <.LBB8_12>:
    80203544:	4595                	li	a1,5
    80203546:	a021                	j	8020354e <.LBB8_14+0x2>

0000000080203548 <.LBB8_13>:
    80203548:	4599                	li	a1,6
    8020354a:	a011                	j	8020354e <.LBB8_14+0x2>

000000008020354c <.LBB8_14>:
    8020354c:	459d                	li	a1,7
    8020354e:	c50c                	sw	a1,8(a0)
    80203550:	00053023          	sd	zero,0(a0)
    80203554:	60a2                	ld	ra,8(sp)
    80203556:	6402                	ld	s0,0(sp)
    80203558:	0141                	addi	sp,sp,16
    8020355a:	8082                	ret
    8020355c:	01c5d61b          	srliw	a2,a1,0x1c
    80203560:	4699                	li	a3,6
    80203562:	00d61463          	bne	a2,a3,8020356a <.LBB8_14+0x1e>
    80203566:	4625                	li	a2,9
    80203568:	a031                	j	80203574 <.LBB8_14+0x28>
    8020356a:	70000637          	lui	a2,0x70000
    8020356e:	00c5c663          	blt	a1,a2,8020357a <.LBB8_25>
    80203572:	4629                	li	a2,10
    80203574:	c510                	sw	a2,8(a0)
    80203576:	c54c                	sw	a1,12(a0)
    80203578:	bfe1                	j	80203550 <.LBB8_14+0x4>

000000008020357a <.LBB8_25>:
    8020357a:	00007597          	auipc	a1,0x7
    8020357e:	03658593          	addi	a1,a1,54 # 8020a5b0 <.Lanon.61dd278ed6969a248983b75b1bbdfe03.14>
    80203582:	e10c                	sd	a1,0(a0)
    80203584:	45b1                	li	a1,12
    80203586:	e50c                	sd	a1,8(a0)
    80203588:	60a2                	ld	ra,8(sp)
    8020358a:	6402                	ld	s0,0(sp)
    8020358c:	0141                	addi	sp,sp,16
    8020358e:	8082                	ret

0000000080203590 <_ZN8xmas_elf7program13ProgramHeader8get_data17hd6546f58f2936d0eE>:
    80203590:	1141                	addi	sp,sp,-16
    80203592:	e406                	sd	ra,8(sp)
    80203594:	e022                	sd	s0,0(sp)
    80203596:	0800                	addi	s0,sp,16
    80203598:	6194                	ld	a3,0(a1)
    8020359a:	658c                	ld	a1,8(a1)
    8020359c:	ca89                	beqz	a3,802035ae <_ZN8xmas_elf7program13ProgramHeader8get_data17hd6546f58f2936d0eE+0x1e>
    8020359e:	00000097          	auipc	ra,0x0
    802035a2:	2c4080e7          	jalr	708(ra) # 80203862 <_ZN8xmas_elf7program15ProgramHeader648get_data17h90932632adc5b5e6E>
    802035a6:	60a2                	ld	ra,8(sp)
    802035a8:	6402                	ld	s0,0(sp)
    802035aa:	0141                	addi	sp,sp,16
    802035ac:	8082                	ret
    802035ae:	00000097          	auipc	ra,0x0
    802035b2:	058080e7          	jalr	88(ra) # 80203606 <_ZN8xmas_elf7program15ProgramHeader328get_data17h95d3bd4ffd7e49e6E>
    802035b6:	60a2                	ld	ra,8(sp)
    802035b8:	6402                	ld	s0,0(sp)
    802035ba:	0141                	addi	sp,sp,16
    802035bc:	8082                	ret

00000000802035be <_ZN8xmas_elf7program13ProgramHeader8mem_size17hfb3634bd9d7f56d9E>:
    802035be:	1141                	addi	sp,sp,-16
    802035c0:	e406                	sd	ra,8(sp)
    802035c2:	e022                	sd	s0,0(sp)
    802035c4:	0800                	addi	s0,sp,16
    802035c6:	610c                	ld	a1,0(a0)
    802035c8:	6508                	ld	a0,8(a0)
    802035ca:	c591                	beqz	a1,802035d6 <_ZN8xmas_elf7program13ProgramHeader8mem_size17hfb3634bd9d7f56d9E+0x18>
    802035cc:	7508                	ld	a0,40(a0)
    802035ce:	60a2                	ld	ra,8(sp)
    802035d0:	6402                	ld	s0,0(sp)
    802035d2:	0141                	addi	sp,sp,16
    802035d4:	8082                	ret
    802035d6:	01456503          	lwu	a0,20(a0)
    802035da:	60a2                	ld	ra,8(sp)
    802035dc:	6402                	ld	s0,0(sp)
    802035de:	0141                	addi	sp,sp,16
    802035e0:	8082                	ret

00000000802035e2 <_ZN8xmas_elf7program13ProgramHeader12virtual_addr17ha3278100e42e4f02E>:
    802035e2:	1141                	addi	sp,sp,-16
    802035e4:	e406                	sd	ra,8(sp)
    802035e6:	e022                	sd	s0,0(sp)
    802035e8:	0800                	addi	s0,sp,16
    802035ea:	610c                	ld	a1,0(a0)
    802035ec:	6508                	ld	a0,8(a0)
    802035ee:	c591                	beqz	a1,802035fa <_ZN8xmas_elf7program13ProgramHeader12virtual_addr17ha3278100e42e4f02E+0x18>
    802035f0:	6908                	ld	a0,16(a0)
    802035f2:	60a2                	ld	ra,8(sp)
    802035f4:	6402                	ld	s0,0(sp)
    802035f6:	0141                	addi	sp,sp,16
    802035f8:	8082                	ret
    802035fa:	00856503          	lwu	a0,8(a0)
    802035fe:	60a2                	ld	ra,8(sp)
    80203600:	6402                	ld	s0,0(sp)
    80203602:	0141                	addi	sp,sp,16
    80203604:	8082                	ret

0000000080203606 <_ZN8xmas_elf7program15ProgramHeader328get_data17h95d3bd4ffd7e49e6E>:
    80203606:	1101                	addi	sp,sp,-32
    80203608:	ec06                	sd	ra,24(sp)
    8020360a:	e822                	sd	s0,16(sp)
    8020360c:	e426                	sd	s1,8(sp)
    8020360e:	e04a                	sd	s2,0(sp)
    80203610:	1000                	addi	s0,sp,32
    80203612:	86ae                	mv	a3,a1
    80203614:	4198                	lw	a4,0(a1)
    80203616:	459d                	li	a1,7
    80203618:	8932                	mv	s2,a2
    8020361a:	84aa                	mv	s1,a0
    8020361c:	02e5ec63          	bltu	a1,a4,80203654 <.LBB30_4+0x14>
    80203620:	00371513          	slli	a0,a4,0x3

0000000080203624 <.LBB30_28>:
    80203624:	00007597          	auipc	a1,0x7
    80203628:	e1458593          	addi	a1,a1,-492 # 8020a438 <.LJTI30_0>
    8020362c:	952e                	add	a0,a0,a1
    8020362e:	611c                	ld	a5,0(a0)
    80203630:	8782                	jr	a5

0000000080203632 <.LBB30_2>:
    80203632:	8536                	mv	a0,a3
    80203634:	85ca                	mv	a1,s2
    80203636:	00000097          	auipc	ra,0x0
    8020363a:	17e080e7          	jalr	382(ra) # 802037b4 <_ZN8xmas_elf7program15ProgramHeader328raw_data17hcc1384684efd4860E>
    8020363e:	4705                	li	a4,1

0000000080203640 <.LBB30_4>:
    80203640:	e098                	sd	a4,0(s1)
    80203642:	e488                	sd	a0,8(s1)
    80203644:	e88c                	sd	a1,16(s1)
    80203646:	ec90                	sd	a2,24(s1)
    80203648:	60e2                	ld	ra,24(sp)
    8020364a:	6442                	ld	s0,16(sp)
    8020364c:	64a2                	ld	s1,8(sp)
    8020364e:	6902                	ld	s2,0(sp)
    80203650:	6105                	addi	sp,sp,32
    80203652:	8082                	ret
    80203654:	6474e537          	lui	a0,0x6474e
    80203658:	5525051b          	addiw	a0,a0,1362
    8020365c:	fca70be3          	beq	a4,a0,80203632 <.LBB30_2>
    80203660:	01c7551b          	srliw	a0,a4,0x1c
    80203664:	1569                	addi	a0,a0,-6
    80203666:	00153513          	seqz	a0,a0
    8020366a:	700005b7          	lui	a1,0x70000
    8020366e:	35fd                	addiw	a1,a1,-1
    80203670:	00e5a5b3          	slt	a1,a1,a4
    80203674:	8d4d                	or	a0,a0,a1
    80203676:	fd55                	bnez	a0,80203632 <.LBB30_2>

0000000080203678 <.LBB30_29>:
    80203678:	00007517          	auipc	a0,0x7
    8020367c:	f3850513          	addi	a0,a0,-200 # 8020a5b0 <.Lanon.61dd278ed6969a248983b75b1bbdfe03.14>
    80203680:	e488                	sd	a0,8(s1)
    80203682:	4531                	li	a0,12
    80203684:	e888                	sd	a0,16(s1)
    80203686:	4515                	li	a0,5
    80203688:	e088                	sd	a0,0(s1)
    8020368a:	bf7d                	j	80203648 <.LBB30_4+0x8>

000000008020368c <.LBB30_9>:
    8020368c:	8536                	mv	a0,a3
    8020368e:	85ca                	mv	a1,s2
    80203690:	00000097          	auipc	ra,0x0
    80203694:	124080e7          	jalr	292(ra) # 802037b4 <_ZN8xmas_elf7program15ProgramHeader328raw_data17hcc1384684efd4860E>
    80203698:	02093603          	ld	a2,32(s2)
    8020369c:	00464603          	lbu	a2,4(a2) # 70000004 <.Lline_table_start0+0x6ffd49f9>
    802036a0:	4709                	li	a4,2
    802036a2:	06e61163          	bne	a2,a4,80203704 <.LBB30_13+0x44>
    802036a6:	86ae                	mv	a3,a1
    802036a8:	45ad                	li	a1,11
    802036aa:	08d5fd63          	bgeu	a1,a3,80203744 <.LBB30_34>
    802036ae:	00357593          	andi	a1,a0,3
    802036b2:	e5c5                	bnez	a1,8020375a <.LBB30_35>
    802036b4:	00c50593          	addi	a1,a0,12
    802036b8:	ff468613          	addi	a2,a3,-12
    802036bc:	4711                	li	a4,4
    802036be:	b749                	j	80203640 <.LBB30_4>

00000000802036c0 <.LBB30_13>:
    802036c0:	8536                	mv	a0,a3
    802036c2:	85ca                	mv	a1,s2
    802036c4:	00000097          	auipc	ra,0x0
    802036c8:	0f0080e7          	jalr	240(ra) # 802037b4 <_ZN8xmas_elf7program15ProgramHeader328raw_data17hcc1384684efd4860E>
    802036cc:	02093603          	ld	a2,32(s2)
    802036d0:	00464603          	lbu	a2,4(a2)
    802036d4:	4685                	li	a3,1
    802036d6:	00d60e63          	beq	a2,a3,802036f2 <.LBB30_13+0x32>
    802036da:	4689                	li	a3,2
    802036dc:	04d61563          	bne	a2,a3,80203726 <.LBB30_32>
    802036e0:	00f5f613          	andi	a2,a1,15
    802036e4:	ea51                	bnez	a2,80203778 <.LBB30_37>
    802036e6:	00757613          	andi	a2,a0,7
    802036ea:	e655                	bnez	a2,80203796 <.LBB30_39>
    802036ec:	8191                	srli	a1,a1,0x4
    802036ee:	470d                	li	a4,3
    802036f0:	bf81                	j	80203640 <.LBB30_4>
    802036f2:	0075f613          	andi	a2,a1,7
    802036f6:	e249                	bnez	a2,80203778 <.LBB30_37>
    802036f8:	00357613          	andi	a2,a0,3
    802036fc:	ee49                	bnez	a2,80203796 <.LBB30_39>
    802036fe:	818d                	srli	a1,a1,0x3
    80203700:	4709                	li	a4,2
    80203702:	bf3d                	j	80203640 <.LBB30_4>
    80203704:	4505                	li	a0,1
    80203706:	02a61063          	bne	a2,a0,80203726 <.LBB30_32>

000000008020370a <.LBB30_30>:
    8020370a:	00007517          	auipc	a0,0x7
    8020370e:	ece50513          	addi	a0,a0,-306 # 8020a5d8 <.Lanon.61dd278ed6969a248983b75b1bbdfe03.45>

0000000080203712 <.LBB30_31>:
    80203712:	00007617          	auipc	a2,0x7
    80203716:	eae60613          	addi	a2,a2,-338 # 8020a5c0 <.Lanon.61dd278ed6969a248983b75b1bbdfe03.44>
    8020371a:	45bd                	li	a1,15
    8020371c:	00001097          	auipc	ra,0x1
    80203720:	cb2080e7          	jalr	-846(ra) # 802043ce <_ZN4core9panicking5panic17h968d2b6b541ffadfE>
	...

0000000080203726 <.LBB30_32>:
    80203726:	00007517          	auipc	a0,0x7
    8020372a:	e4a50513          	addi	a0,a0,-438 # 8020a570 <anon.61dd278ed6969a248983b75b1bbdfe03.9.llvm.2448809545910029770>

000000008020372e <.LBB30_33>:
    8020372e:	00007617          	auipc	a2,0x7
    80203732:	e9260613          	addi	a2,a2,-366 # 8020a5c0 <.Lanon.61dd278ed6969a248983b75b1bbdfe03.44>
    80203736:	02800593          	li	a1,40
    8020373a:	00001097          	auipc	ra,0x1
    8020373e:	c94080e7          	jalr	-876(ra) # 802043ce <_ZN4core9panicking5panic17h968d2b6b541ffadfE>
	...

0000000080203744 <.LBB30_34>:
    80203744:	00007617          	auipc	a2,0x7
    80203748:	e7c60613          	addi	a2,a2,-388 # 8020a5c0 <.Lanon.61dd278ed6969a248983b75b1bbdfe03.44>
    8020374c:	4531                	li	a0,12
    8020374e:	85b6                	mv	a1,a3
    80203750:	00002097          	auipc	ra,0x2
    80203754:	390080e7          	jalr	912(ra) # 80205ae0 <_ZN4core5slice5index24slice_end_index_len_fail17h2a7a625b26924207E>
	...

000000008020375a <.LBB30_35>:
    8020375a:	00007517          	auipc	a0,0x7
    8020375e:	02e50513          	addi	a0,a0,46 # 8020a788 <anon.bf7a0ff72bf9233d02a3eee62e40ea5e.7.llvm.10543462675162236961>

0000000080203762 <.LBB30_36>:
    80203762:	00007617          	auipc	a2,0x7
    80203766:	06660613          	addi	a2,a2,102 # 8020a7c8 <anon.bf7a0ff72bf9233d02a3eee62e40ea5e.8.llvm.10543462675162236961>
    8020376a:	03a00593          	li	a1,58
    8020376e:	00001097          	auipc	ra,0x1
    80203772:	c60080e7          	jalr	-928(ra) # 802043ce <_ZN4core9panicking5panic17h968d2b6b541ffadfE>
	...

0000000080203778 <.LBB30_37>:
    80203778:	00007517          	auipc	a0,0x7
    8020377c:	f2a50513          	addi	a0,a0,-214 # 8020a6a2 <anon.bf7a0ff72bf9233d02a3eee62e40ea5e.1.llvm.10543462675162236961>

0000000080203780 <.LBB30_38>:
    80203780:	00007617          	auipc	a2,0x7
    80203784:	f5060613          	addi	a2,a2,-176 # 8020a6d0 <anon.bf7a0ff72bf9233d02a3eee62e40ea5e.2.llvm.10543462675162236961>
    80203788:	02b00593          	li	a1,43
    8020378c:	00001097          	auipc	ra,0x1
    80203790:	c42080e7          	jalr	-958(ra) # 802043ce <_ZN4core9panicking5panic17h968d2b6b541ffadfE>
	...

0000000080203796 <.LBB30_39>:
    80203796:	00007517          	auipc	a0,0x7
    8020379a:	f5250513          	addi	a0,a0,-174 # 8020a6e8 <anon.bf7a0ff72bf9233d02a3eee62e40ea5e.3.llvm.10543462675162236961>

000000008020379e <.LBB30_40>:
    8020379e:	00007617          	auipc	a2,0x7
    802037a2:	f8260613          	addi	a2,a2,-126 # 8020a720 <anon.bf7a0ff72bf9233d02a3eee62e40ea5e.4.llvm.10543462675162236961>
    802037a6:	03800593          	li	a1,56
    802037aa:	00001097          	auipc	ra,0x1
    802037ae:	c24080e7          	jalr	-988(ra) # 802043ce <_ZN4core9panicking5panic17h968d2b6b541ffadfE>
	...

00000000802037b4 <_ZN8xmas_elf7program15ProgramHeader328raw_data17hcc1384684efd4860E>:
    802037b4:	1141                	addi	sp,sp,-16
    802037b6:	e406                	sd	ra,8(sp)
    802037b8:	e022                	sd	s0,0(sp)
    802037ba:	0800                	addi	s0,sp,16
    802037bc:	4110                	lw	a2,0(a0)
    802037be:	fff60693          	addi	a3,a2,-1
    802037c2:	471d                	li	a4,7
    802037c4:	02e6f863          	bgeu	a3,a4,802037f4 <_ZN8xmas_elf7program15ProgramHeader328raw_data17hcc1384684efd4860E+0x40>
    802037c8:	00456683          	lwu	a3,4(a0)
    802037cc:	4908                	lw	a0,16(a0)
    802037ce:	00d5063b          	addw	a2,a0,a3
    802037d2:	02061713          	slli	a4,a2,0x20
    802037d6:	02075793          	srli	a5,a4,0x20
    802037da:	04a66e63          	bltu	a2,a0,80203836 <.LBB31_12>
    802037de:	6598                	ld	a4,8(a1)
    802037e0:	06f76663          	bltu	a4,a5,8020384c <.LBB31_13>
    802037e4:	6188                	ld	a0,0(a1)
    802037e6:	9536                	add	a0,a0,a3
    802037e8:	40d785b3          	sub	a1,a5,a3
    802037ec:	60a2                	ld	ra,8(sp)
    802037ee:	6402                	ld	s0,0(sp)
    802037f0:	0141                	addi	sp,sp,16
    802037f2:	8082                	ret
    802037f4:	6474e6b7          	lui	a3,0x6474e
    802037f8:	5526869b          	addiw	a3,a3,1362
    802037fc:	fcd606e3          	beq	a2,a3,802037c8 <_ZN8xmas_elf7program15ProgramHeader328raw_data17hcc1384684efd4860E+0x14>
    80203800:	ce01                	beqz	a2,80203818 <.LBB31_10>
    80203802:	01c6569b          	srliw	a3,a2,0x1c
    80203806:	16e9                	addi	a3,a3,-6
    80203808:	00d036b3          	snez	a3,a3
    8020380c:	70000737          	lui	a4,0x70000
    80203810:	00e62633          	slt	a2,a2,a4
    80203814:	8e75                	and	a2,a2,a3
    80203816:	da4d                	beqz	a2,802037c8 <_ZN8xmas_elf7program15ProgramHeader328raw_data17hcc1384684efd4860E+0x14>

0000000080203818 <.LBB31_10>:
    80203818:	00007517          	auipc	a0,0x7
    8020381c:	dcf50513          	addi	a0,a0,-561 # 8020a5e7 <.Lanon.61dd278ed6969a248983b75b1bbdfe03.46>

0000000080203820 <.LBB31_11>:
    80203820:	00007617          	auipc	a2,0x7
    80203824:	da060613          	addi	a2,a2,-608 # 8020a5c0 <.Lanon.61dd278ed6969a248983b75b1bbdfe03.44>
    80203828:	04f00593          	li	a1,79
    8020382c:	00001097          	auipc	ra,0x1
    80203830:	ba2080e7          	jalr	-1118(ra) # 802043ce <_ZN4core9panicking5panic17h968d2b6b541ffadfE>
	...

0000000080203836 <.LBB31_12>:
    80203836:	00007617          	auipc	a2,0x7
    8020383a:	d8a60613          	addi	a2,a2,-630 # 8020a5c0 <.Lanon.61dd278ed6969a248983b75b1bbdfe03.44>
    8020383e:	8536                	mv	a0,a3
    80203840:	85be                	mv	a1,a5
    80203842:	00002097          	auipc	ra,0x2
    80203846:	2ec080e7          	jalr	748(ra) # 80205b2e <_ZN4core5slice5index22slice_index_order_fail17h5e40dbaf83b6bef2E>
	...

000000008020384c <.LBB31_13>:
    8020384c:	00007617          	auipc	a2,0x7
    80203850:	d7460613          	addi	a2,a2,-652 # 8020a5c0 <.Lanon.61dd278ed6969a248983b75b1bbdfe03.44>
    80203854:	853e                	mv	a0,a5
    80203856:	85ba                	mv	a1,a4
    80203858:	00002097          	auipc	ra,0x2
    8020385c:	288080e7          	jalr	648(ra) # 80205ae0 <_ZN4core5slice5index24slice_end_index_len_fail17h2a7a625b26924207E>
	...

0000000080203862 <_ZN8xmas_elf7program15ProgramHeader648get_data17h90932632adc5b5e6E>:
    80203862:	1101                	addi	sp,sp,-32
    80203864:	ec06                	sd	ra,24(sp)
    80203866:	e822                	sd	s0,16(sp)
    80203868:	e426                	sd	s1,8(sp)
    8020386a:	e04a                	sd	s2,0(sp)
    8020386c:	1000                	addi	s0,sp,32
    8020386e:	86ae                	mv	a3,a1
    80203870:	4198                	lw	a4,0(a1)
    80203872:	459d                	li	a1,7
    80203874:	8932                	mv	s2,a2
    80203876:	84aa                	mv	s1,a0
    80203878:	02e5ec63          	bltu	a1,a4,802038b0 <.LBB34_4+0x14>
    8020387c:	00371513          	slli	a0,a4,0x3

0000000080203880 <.LBB34_28>:
    80203880:	00007597          	auipc	a1,0x7
    80203884:	bf858593          	addi	a1,a1,-1032 # 8020a478 <.LJTI34_0>
    80203888:	952e                	add	a0,a0,a1
    8020388a:	611c                	ld	a5,0(a0)
    8020388c:	8782                	jr	a5

000000008020388e <.LBB34_2>:
    8020388e:	8536                	mv	a0,a3
    80203890:	85ca                	mv	a1,s2
    80203892:	00000097          	auipc	ra,0x0
    80203896:	17e080e7          	jalr	382(ra) # 80203a10 <_ZN8xmas_elf7program15ProgramHeader648raw_data17hb6ba20c9cac48809E>
    8020389a:	4705                	li	a4,1

000000008020389c <.LBB34_4>:
    8020389c:	e098                	sd	a4,0(s1)
    8020389e:	e488                	sd	a0,8(s1)
    802038a0:	e88c                	sd	a1,16(s1)
    802038a2:	ec90                	sd	a2,24(s1)
    802038a4:	60e2                	ld	ra,24(sp)
    802038a6:	6442                	ld	s0,16(sp)
    802038a8:	64a2                	ld	s1,8(sp)
    802038aa:	6902                	ld	s2,0(sp)
    802038ac:	6105                	addi	sp,sp,32
    802038ae:	8082                	ret
    802038b0:	6474e537          	lui	a0,0x6474e
    802038b4:	5525051b          	addiw	a0,a0,1362
    802038b8:	fca70be3          	beq	a4,a0,8020388e <.LBB34_2>
    802038bc:	01c7551b          	srliw	a0,a4,0x1c
    802038c0:	1569                	addi	a0,a0,-6
    802038c2:	00153513          	seqz	a0,a0
    802038c6:	700005b7          	lui	a1,0x70000
    802038ca:	35fd                	addiw	a1,a1,-1
    802038cc:	00e5a5b3          	slt	a1,a1,a4
    802038d0:	8d4d                	or	a0,a0,a1
    802038d2:	fd55                	bnez	a0,8020388e <.LBB34_2>

00000000802038d4 <.LBB34_29>:
    802038d4:	00007517          	auipc	a0,0x7
    802038d8:	cdc50513          	addi	a0,a0,-804 # 8020a5b0 <.Lanon.61dd278ed6969a248983b75b1bbdfe03.14>
    802038dc:	e488                	sd	a0,8(s1)
    802038de:	4531                	li	a0,12
    802038e0:	e888                	sd	a0,16(s1)
    802038e2:	4515                	li	a0,5
    802038e4:	e088                	sd	a0,0(s1)
    802038e6:	bf7d                	j	802038a4 <.LBB34_4+0x8>

00000000802038e8 <.LBB34_9>:
    802038e8:	8536                	mv	a0,a3
    802038ea:	85ca                	mv	a1,s2
    802038ec:	00000097          	auipc	ra,0x0
    802038f0:	124080e7          	jalr	292(ra) # 80203a10 <_ZN8xmas_elf7program15ProgramHeader648raw_data17hb6ba20c9cac48809E>
    802038f4:	02093603          	ld	a2,32(s2)
    802038f8:	00464603          	lbu	a2,4(a2)
    802038fc:	4709                	li	a4,2
    802038fe:	06e61163          	bne	a2,a4,80203960 <.LBB34_13+0x44>
    80203902:	86ae                	mv	a3,a1
    80203904:	45ad                	li	a1,11
    80203906:	08d5fd63          	bgeu	a1,a3,802039a0 <.LBB34_34>
    8020390a:	00357593          	andi	a1,a0,3
    8020390e:	e5c5                	bnez	a1,802039b6 <.LBB34_35>
    80203910:	00c50593          	addi	a1,a0,12
    80203914:	ff468613          	addi	a2,a3,-12 # 6474dff4 <.Lline_table_start0+0x647229e9>
    80203918:	4711                	li	a4,4
    8020391a:	b749                	j	8020389c <.LBB34_4>

000000008020391c <.LBB34_13>:
    8020391c:	8536                	mv	a0,a3
    8020391e:	85ca                	mv	a1,s2
    80203920:	00000097          	auipc	ra,0x0
    80203924:	0f0080e7          	jalr	240(ra) # 80203a10 <_ZN8xmas_elf7program15ProgramHeader648raw_data17hb6ba20c9cac48809E>
    80203928:	02093603          	ld	a2,32(s2)
    8020392c:	00464603          	lbu	a2,4(a2)
    80203930:	4685                	li	a3,1
    80203932:	00d60e63          	beq	a2,a3,8020394e <.LBB34_13+0x32>
    80203936:	4689                	li	a3,2
    80203938:	04d61563          	bne	a2,a3,80203982 <.LBB34_32>
    8020393c:	00f5f613          	andi	a2,a1,15
    80203940:	ea51                	bnez	a2,802039d4 <.LBB34_37>
    80203942:	00757613          	andi	a2,a0,7
    80203946:	e655                	bnez	a2,802039f2 <.LBB34_39>
    80203948:	8191                	srli	a1,a1,0x4
    8020394a:	470d                	li	a4,3
    8020394c:	bf81                	j	8020389c <.LBB34_4>
    8020394e:	0075f613          	andi	a2,a1,7
    80203952:	e249                	bnez	a2,802039d4 <.LBB34_37>
    80203954:	00357613          	andi	a2,a0,3
    80203958:	ee49                	bnez	a2,802039f2 <.LBB34_39>
    8020395a:	818d                	srli	a1,a1,0x3
    8020395c:	4709                	li	a4,2
    8020395e:	bf3d                	j	8020389c <.LBB34_4>
    80203960:	4505                	li	a0,1
    80203962:	02a61063          	bne	a2,a0,80203982 <.LBB34_32>

0000000080203966 <.LBB34_30>:
    80203966:	00007517          	auipc	a0,0x7
    8020396a:	c7250513          	addi	a0,a0,-910 # 8020a5d8 <.Lanon.61dd278ed6969a248983b75b1bbdfe03.45>

000000008020396e <.LBB34_31>:
    8020396e:	00007617          	auipc	a2,0x7
    80203972:	cca60613          	addi	a2,a2,-822 # 8020a638 <.Lanon.61dd278ed6969a248983b75b1bbdfe03.66>
    80203976:	45bd                	li	a1,15
    80203978:	00001097          	auipc	ra,0x1
    8020397c:	a56080e7          	jalr	-1450(ra) # 802043ce <_ZN4core9panicking5panic17h968d2b6b541ffadfE>
	...

0000000080203982 <.LBB34_32>:
    80203982:	00007517          	auipc	a0,0x7
    80203986:	bee50513          	addi	a0,a0,-1042 # 8020a570 <anon.61dd278ed6969a248983b75b1bbdfe03.9.llvm.2448809545910029770>

000000008020398a <.LBB34_33>:
    8020398a:	00007617          	auipc	a2,0x7
    8020398e:	cae60613          	addi	a2,a2,-850 # 8020a638 <.Lanon.61dd278ed6969a248983b75b1bbdfe03.66>
    80203992:	02800593          	li	a1,40
    80203996:	00001097          	auipc	ra,0x1
    8020399a:	a38080e7          	jalr	-1480(ra) # 802043ce <_ZN4core9panicking5panic17h968d2b6b541ffadfE>
	...

00000000802039a0 <.LBB34_34>:
    802039a0:	00007617          	auipc	a2,0x7
    802039a4:	c9860613          	addi	a2,a2,-872 # 8020a638 <.Lanon.61dd278ed6969a248983b75b1bbdfe03.66>
    802039a8:	4531                	li	a0,12
    802039aa:	85b6                	mv	a1,a3
    802039ac:	00002097          	auipc	ra,0x2
    802039b0:	134080e7          	jalr	308(ra) # 80205ae0 <_ZN4core5slice5index24slice_end_index_len_fail17h2a7a625b26924207E>
	...

00000000802039b6 <.LBB34_35>:
    802039b6:	00007517          	auipc	a0,0x7
    802039ba:	dd250513          	addi	a0,a0,-558 # 8020a788 <anon.bf7a0ff72bf9233d02a3eee62e40ea5e.7.llvm.10543462675162236961>

00000000802039be <.LBB34_36>:
    802039be:	00007617          	auipc	a2,0x7
    802039c2:	e0a60613          	addi	a2,a2,-502 # 8020a7c8 <anon.bf7a0ff72bf9233d02a3eee62e40ea5e.8.llvm.10543462675162236961>
    802039c6:	03a00593          	li	a1,58
    802039ca:	00001097          	auipc	ra,0x1
    802039ce:	a04080e7          	jalr	-1532(ra) # 802043ce <_ZN4core9panicking5panic17h968d2b6b541ffadfE>
	...

00000000802039d4 <.LBB34_37>:
    802039d4:	00007517          	auipc	a0,0x7
    802039d8:	cce50513          	addi	a0,a0,-818 # 8020a6a2 <anon.bf7a0ff72bf9233d02a3eee62e40ea5e.1.llvm.10543462675162236961>

00000000802039dc <.LBB34_38>:
    802039dc:	00007617          	auipc	a2,0x7
    802039e0:	cf460613          	addi	a2,a2,-780 # 8020a6d0 <anon.bf7a0ff72bf9233d02a3eee62e40ea5e.2.llvm.10543462675162236961>
    802039e4:	02b00593          	li	a1,43
    802039e8:	00001097          	auipc	ra,0x1
    802039ec:	9e6080e7          	jalr	-1562(ra) # 802043ce <_ZN4core9panicking5panic17h968d2b6b541ffadfE>
	...

00000000802039f2 <.LBB34_39>:
    802039f2:	00007517          	auipc	a0,0x7
    802039f6:	cf650513          	addi	a0,a0,-778 # 8020a6e8 <anon.bf7a0ff72bf9233d02a3eee62e40ea5e.3.llvm.10543462675162236961>

00000000802039fa <.LBB34_40>:
    802039fa:	00007617          	auipc	a2,0x7
    802039fe:	d2660613          	addi	a2,a2,-730 # 8020a720 <anon.bf7a0ff72bf9233d02a3eee62e40ea5e.4.llvm.10543462675162236961>
    80203a02:	03800593          	li	a1,56
    80203a06:	00001097          	auipc	ra,0x1
    80203a0a:	9c8080e7          	jalr	-1592(ra) # 802043ce <_ZN4core9panicking5panic17h968d2b6b541ffadfE>
	...

0000000080203a10 <_ZN8xmas_elf7program15ProgramHeader648raw_data17hb6ba20c9cac48809E>:
    80203a10:	1141                	addi	sp,sp,-16
    80203a12:	e406                	sd	ra,8(sp)
    80203a14:	e022                	sd	s0,0(sp)
    80203a16:	0800                	addi	s0,sp,16
    80203a18:	4110                	lw	a2,0(a0)
    80203a1a:	fff60693          	addi	a3,a2,-1
    80203a1e:	471d                	li	a4,7
    80203a20:	02e6f363          	bgeu	a3,a4,80203a46 <_ZN8xmas_elf7program15ProgramHeader648raw_data17hb6ba20c9cac48809E+0x36>
    80203a24:	651c                	ld	a5,8(a0)
    80203a26:	7118                	ld	a4,32(a0)
    80203a28:	00f706b3          	add	a3,a4,a5
    80203a2c:	04e6ee63          	bltu	a3,a4,80203a88 <.LBB35_12>
    80203a30:	0085b803          	ld	a6,8(a1) # 70000008 <.Lline_table_start0+0x6ffd49fd>
    80203a34:	06d86563          	bltu	a6,a3,80203a9e <.LBB35_13>
    80203a38:	6188                	ld	a0,0(a1)
    80203a3a:	953e                	add	a0,a0,a5
    80203a3c:	85ba                	mv	a1,a4
    80203a3e:	60a2                	ld	ra,8(sp)
    80203a40:	6402                	ld	s0,0(sp)
    80203a42:	0141                	addi	sp,sp,16
    80203a44:	8082                	ret
    80203a46:	6474e6b7          	lui	a3,0x6474e
    80203a4a:	5526869b          	addiw	a3,a3,1362
    80203a4e:	fcd60be3          	beq	a2,a3,80203a24 <_ZN8xmas_elf7program15ProgramHeader648raw_data17hb6ba20c9cac48809E+0x14>
    80203a52:	ce01                	beqz	a2,80203a6a <.LBB35_10>
    80203a54:	01c6569b          	srliw	a3,a2,0x1c
    80203a58:	16e9                	addi	a3,a3,-6
    80203a5a:	00d036b3          	snez	a3,a3
    80203a5e:	70000737          	lui	a4,0x70000
    80203a62:	00e62633          	slt	a2,a2,a4
    80203a66:	8e75                	and	a2,a2,a3
    80203a68:	de55                	beqz	a2,80203a24 <_ZN8xmas_elf7program15ProgramHeader648raw_data17hb6ba20c9cac48809E+0x14>

0000000080203a6a <.LBB35_10>:
    80203a6a:	00007517          	auipc	a0,0x7
    80203a6e:	b7d50513          	addi	a0,a0,-1155 # 8020a5e7 <.Lanon.61dd278ed6969a248983b75b1bbdfe03.46>

0000000080203a72 <.LBB35_11>:
    80203a72:	00007617          	auipc	a2,0x7
    80203a76:	bc660613          	addi	a2,a2,-1082 # 8020a638 <.Lanon.61dd278ed6969a248983b75b1bbdfe03.66>
    80203a7a:	04f00593          	li	a1,79
    80203a7e:	00001097          	auipc	ra,0x1
    80203a82:	950080e7          	jalr	-1712(ra) # 802043ce <_ZN4core9panicking5panic17h968d2b6b541ffadfE>
	...

0000000080203a88 <.LBB35_12>:
    80203a88:	00007617          	auipc	a2,0x7
    80203a8c:	bb060613          	addi	a2,a2,-1104 # 8020a638 <.Lanon.61dd278ed6969a248983b75b1bbdfe03.66>
    80203a90:	853e                	mv	a0,a5
    80203a92:	85b6                	mv	a1,a3
    80203a94:	00002097          	auipc	ra,0x2
    80203a98:	09a080e7          	jalr	154(ra) # 80205b2e <_ZN4core5slice5index22slice_index_order_fail17h5e40dbaf83b6bef2E>
	...

0000000080203a9e <.LBB35_13>:
    80203a9e:	00007617          	auipc	a2,0x7
    80203aa2:	b9a60613          	addi	a2,a2,-1126 # 8020a638 <.Lanon.61dd278ed6969a248983b75b1bbdfe03.66>
    80203aa6:	8536                	mv	a0,a3
    80203aa8:	85c2                	mv	a1,a6
    80203aaa:	00002097          	auipc	ra,0x2
    80203aae:	036080e7          	jalr	54(ra) # 80205ae0 <_ZN4core5slice5index24slice_end_index_len_fail17h2a7a625b26924207E>
	...

0000000080203ab4 <_ZN8xmas_elf7ElfFile3new17h5c5a888c7f0fc68cE>:
    80203ab4:	1141                	addi	sp,sp,-16
    80203ab6:	e406                	sd	ra,8(sp)
    80203ab8:	e022                	sd	s0,0(sp)
    80203aba:	0800                	addi	s0,sp,16
    80203abc:	46c1                	li	a3,16
    80203abe:	00d67963          	bgeu	a2,a3,80203ad0 <.LBB2_17+0xe>

0000000080203ac2 <.LBB2_17>:
    80203ac2:	00007597          	auipc	a1,0x7
    80203ac6:	80658593          	addi	a1,a1,-2042 # 8020a2c8 <anon.3793b15d9f7c53951c4f5e0ed0b9053f.1.llvm.16085513694687458960>
    80203aca:	02e00613          	li	a2,46
    80203ace:	a075                	j	80203b7a <.LBB2_21+0xa>
    80203ad0:	0015c803          	lbu	a6,1(a1)
    80203ad4:	0005c883          	lbu	a7,0(a1)
    80203ad8:	00358783          	lb	a5,3(a1)
    80203adc:	0025c683          	lbu	a3,2(a1)
    80203ae0:	00881713          	slli	a4,a6,0x8
    80203ae4:	01176733          	or	a4,a4,a7
    80203ae8:	07a2                	slli	a5,a5,0x8
    80203aea:	8edd                	or	a3,a3,a5
    80203aec:	06c2                	slli	a3,a3,0x10
    80203aee:	8ed9                	or	a3,a3,a4
    80203af0:	464c4737          	lui	a4,0x464c4
    80203af4:	57f7071b          	addiw	a4,a4,1407
    80203af8:	02e69d63          	bne	a3,a4,80203b32 <.LBB2_18>
    80203afc:	0045c683          	lbu	a3,4(a1)
    80203b00:	4709                	li	a4,2
    80203b02:	02e68e63          	beq	a3,a4,80203b3e <.LBB2_18+0xc>
    80203b06:	4705                	li	a4,1
    80203b08:	06e69463          	bne	a3,a4,80203b70 <.LBB2_21>
    80203b0c:	03300693          	li	a3,51
    80203b10:	06c6fd63          	bgeu	a3,a2,80203b8a <.LBB2_22>
    80203b14:	01058693          	addi	a3,a1,16
    80203b18:	0036f793          	andi	a5,a3,3
    80203b1c:	4701                	li	a4,0
    80203b1e:	eb95                	bnez	a5,80203b52 <.LBB2_19>
    80203b20:	e918                	sd	a4,16(a0)
    80203b22:	ed14                	sd	a3,24(a0)
    80203b24:	f10c                	sd	a1,32(a0)
    80203b26:	e10c                	sd	a1,0(a0)
    80203b28:	e510                	sd	a2,8(a0)
    80203b2a:	60a2                	ld	ra,8(sp)
    80203b2c:	6402                	ld	s0,0(sp)
    80203b2e:	0141                	addi	sp,sp,16
    80203b30:	8082                	ret

0000000080203b32 <.LBB2_18>:
    80203b32:	00007597          	auipc	a1,0x7
    80203b36:	81d58593          	addi	a1,a1,-2019 # 8020a34f <anon.3793b15d9f7c53951c4f5e0ed0b9053f.4.llvm.16085513694687458960>
    80203b3a:	4675                	li	a2,29
    80203b3c:	a83d                	j	80203b7a <.LBB2_21+0xa>
    80203b3e:	03f00693          	li	a3,63
    80203b42:	04c6fb63          	bgeu	a3,a2,80203b98 <.LBB2_23>
    80203b46:	01058693          	addi	a3,a1,16
    80203b4a:	0076f793          	andi	a5,a3,7
    80203b4e:	4705                	li	a4,1
    80203b50:	dbe1                	beqz	a5,80203b20 <.LBB2_17+0x5e>

0000000080203b52 <.LBB2_19>:
    80203b52:	00007517          	auipc	a0,0x7
    80203b56:	c3650513          	addi	a0,a0,-970 # 8020a788 <anon.bf7a0ff72bf9233d02a3eee62e40ea5e.7.llvm.10543462675162236961>

0000000080203b5a <.LBB2_20>:
    80203b5a:	00007617          	auipc	a2,0x7
    80203b5e:	c6e60613          	addi	a2,a2,-914 # 8020a7c8 <anon.bf7a0ff72bf9233d02a3eee62e40ea5e.8.llvm.10543462675162236961>
    80203b62:	03a00593          	li	a1,58
    80203b66:	00001097          	auipc	ra,0x1
    80203b6a:	868080e7          	jalr	-1944(ra) # 802043ce <_ZN4core9panicking5panic17h968d2b6b541ffadfE>
	...

0000000080203b70 <.LBB2_21>:
    80203b70:	00007597          	auipc	a1,0x7
    80203b74:	83058593          	addi	a1,a1,-2000 # 8020a3a0 <anon.3793b15d9f7c53951c4f5e0ed0b9053f.7.llvm.16085513694687458960>
    80203b78:	4645                	li	a2,17
    80203b7a:	e10c                	sd	a1,0(a0)
    80203b7c:	e510                	sd	a2,8(a0)
    80203b7e:	4589                	li	a1,2
    80203b80:	e90c                	sd	a1,16(a0)
    80203b82:	60a2                	ld	ra,8(sp)
    80203b84:	6402                	ld	s0,0(sp)
    80203b86:	0141                	addi	sp,sp,16
    80203b88:	8082                	ret

0000000080203b8a <.LBB2_22>:
    80203b8a:	00006697          	auipc	a3,0x6
    80203b8e:	7fe68693          	addi	a3,a3,2046 # 8020a388 <anon.3793b15d9f7c53951c4f5e0ed0b9053f.6.llvm.16085513694687458960>
    80203b92:	03400513          	li	a0,52
    80203b96:	a039                	j	80203ba4 <.LBB2_23+0xc>

0000000080203b98 <.LBB2_23>:
    80203b98:	00006697          	auipc	a3,0x6
    80203b9c:	7d868693          	addi	a3,a3,2008 # 8020a370 <anon.3793b15d9f7c53951c4f5e0ed0b9053f.5.llvm.16085513694687458960>
    80203ba0:	04000513          	li	a0,64
    80203ba4:	85b2                	mv	a1,a2
    80203ba6:	8636                	mv	a2,a3
    80203ba8:	00002097          	auipc	ra,0x2
    80203bac:	f38080e7          	jalr	-200(ra) # 80205ae0 <_ZN4core5slice5index24slice_end_index_len_fail17h2a7a625b26924207E>
	...

0000000080203bb2 <_ZN8xmas_elf7ElfFile14program_header17hac0ec53fa1ea03ccE>:
    80203bb2:	7179                	addi	sp,sp,-48
    80203bb4:	f406                	sd	ra,40(sp)
    80203bb6:	f022                	sd	s0,32(sp)
    80203bb8:	1800                	addi	s0,sp,48
    80203bba:	8832                	mv	a6,a2
    80203bbc:	0005b883          	ld	a7,0(a1)
    80203bc0:	7194                	ld	a3,32(a1)
    80203bc2:	6d98                	ld	a4,24(a1)
    80203bc4:	699c                	ld	a5,16(a1)
    80203bc6:	6590                	ld	a2,8(a1)
    80203bc8:	fed43423          	sd	a3,-24(s0)
    80203bcc:	fee43023          	sd	a4,-32(s0)
    80203bd0:	fcf43c23          	sd	a5,-40(s0)
    80203bd4:	fd840693          	addi	a3,s0,-40
    80203bd8:	85c6                	mv	a1,a7
    80203bda:	8742                	mv	a4,a6
    80203bdc:	fffff097          	auipc	ra,0xfffff
    80203be0:	7a4080e7          	jalr	1956(ra) # 80203380 <_ZN8xmas_elf7program20parse_program_header17h47a2716c54fa876fE>
    80203be4:	70a2                	ld	ra,40(sp)
    80203be6:	7402                	ld	s0,32(sp)
    80203be8:	6145                	addi	sp,sp,48
    80203bea:	8082                	ret

0000000080203bec <_ZN22buddy_system_allocator4Heap4init17h096a9c186af21a8bE>:
    80203bec:	1141                	addi	sp,sp,-16
    80203bee:	e406                	sd	ra,8(sp)
    80203bf0:	e022                	sd	s0,0(sp)
    80203bf2:	0800                	addi	s0,sp,16
    80203bf4:	962e                	add	a2,a2,a1
    80203bf6:	059d                	addi	a1,a1,7
    80203bf8:	99e1                	andi	a1,a1,-8
    80203bfa:	ff867e93          	andi	t4,a2,-8
    80203bfe:	12beeb63          	bltu	t4,a1,80203d34 <.LBB5_20>
    80203c02:	4701                	li	a4,0
    80203c04:	00858613          	addi	a2,a1,8
    80203c08:	10cee163          	bltu	t4,a2,80203d0a <.LBB5_18+0xda>

0000000080203c0c <.LBB5_15>:
    80203c0c:	00003617          	auipc	a2,0x3
    80203c10:	46c60613          	addi	a2,a2,1132 # 80207078 <.LCPI5_0>
    80203c14:	00063803          	ld	a6,0(a2)

0000000080203c18 <.LBB5_16>:
    80203c18:	00003617          	auipc	a2,0x3
    80203c1c:	46860613          	addi	a2,a2,1128 # 80207080 <.LCPI5_1>
    80203c20:	00063f03          	ld	t5,0(a2)

0000000080203c24 <.LBB5_17>:
    80203c24:	00003617          	auipc	a2,0x3
    80203c28:	46460613          	addi	a2,a2,1124 # 80207088 <.LCPI5_2>
    80203c2c:	00063883          	ld	a7,0(a2)

0000000080203c30 <.LBB5_18>:
    80203c30:	00003617          	auipc	a2,0x3
    80203c34:	46060613          	addi	a2,a2,1120 # 80207090 <.LCPI5_3>
    80203c38:	00063283          	ld	t0,0(a2)
    80203c3c:	03f00313          	li	t1,63
    80203c40:	4385                	li	t2,1
    80203c42:	4e7d                	li	t3,31
    80203c44:	40be8633          	sub	a2,t4,a1
    80203c48:	ca31                	beqz	a2,80203c9c <.LBB5_18+0x6c>
    80203c4a:	00165693          	srli	a3,a2,0x1
    80203c4e:	8e55                	or	a2,a2,a3
    80203c50:	00265693          	srli	a3,a2,0x2
    80203c54:	8e55                	or	a2,a2,a3
    80203c56:	00465693          	srli	a3,a2,0x4
    80203c5a:	8e55                	or	a2,a2,a3
    80203c5c:	00865693          	srli	a3,a2,0x8
    80203c60:	8e55                	or	a2,a2,a3
    80203c62:	01065693          	srli	a3,a2,0x10
    80203c66:	8e55                	or	a2,a2,a3
    80203c68:	02065693          	srli	a3,a2,0x20
    80203c6c:	8e55                	or	a2,a2,a3
    80203c6e:	fff64613          	not	a2,a2
    80203c72:	00165693          	srli	a3,a2,0x1
    80203c76:	0106f6b3          	and	a3,a3,a6
    80203c7a:	8e15                	sub	a2,a2,a3
    80203c7c:	01e676b3          	and	a3,a2,t5
    80203c80:	8209                	srli	a2,a2,0x2
    80203c82:	01e67633          	and	a2,a2,t5
    80203c86:	9636                	add	a2,a2,a3
    80203c88:	00465693          	srli	a3,a2,0x4
    80203c8c:	9636                	add	a2,a2,a3
    80203c8e:	01167633          	and	a2,a2,a7
    80203c92:	02560633          	mul	a2,a2,t0
    80203c96:	03865693          	srli	a3,a2,0x38
    80203c9a:	a019                	j	80203ca0 <.LBB5_18+0x70>
    80203c9c:	04000693          	li	a3,64
    80203ca0:	40b00633          	neg	a2,a1
    80203ca4:	8e6d                	and	a2,a2,a1
    80203ca6:	40d306b3          	sub	a3,t1,a3
    80203caa:	00d396b3          	sll	a3,t2,a3
    80203cae:	00d66363          	bltu	a2,a3,80203cb4 <.LBB5_18+0x84>
    80203cb2:	8636                	mv	a2,a3
    80203cb4:	ce05                	beqz	a2,80203cec <.LBB5_18+0xbc>
    80203cb6:	fff60693          	addi	a3,a2,-1
    80203cba:	fff64793          	not	a5,a2
    80203cbe:	8efd                	and	a3,a3,a5
    80203cc0:	0016d793          	srli	a5,a3,0x1
    80203cc4:	0107f7b3          	and	a5,a5,a6
    80203cc8:	8e9d                	sub	a3,a3,a5
    80203cca:	01e6f7b3          	and	a5,a3,t5
    80203cce:	8289                	srli	a3,a3,0x2
    80203cd0:	01e6f6b3          	and	a3,a3,t5
    80203cd4:	96be                	add	a3,a3,a5
    80203cd6:	0046d793          	srli	a5,a3,0x4
    80203cda:	96be                	add	a3,a3,a5
    80203cdc:	0116f6b3          	and	a3,a3,a7
    80203ce0:	025686b3          	mul	a3,a3,t0
    80203ce4:	92e1                	srli	a3,a3,0x38
    80203ce6:	00de7763          	bgeu	t3,a3,80203cf4 <.LBB5_18+0xc4>
    80203cea:	a80d                	j	80203d1c <.LBB5_19>
    80203cec:	04000693          	li	a3,64
    80203cf0:	02de6663          	bltu	t3,a3,80203d1c <.LBB5_19>
    80203cf4:	068e                	slli	a3,a3,0x3
    80203cf6:	96aa                	add	a3,a3,a0
    80203cf8:	629c                	ld	a5,0(a3)
    80203cfa:	e19c                	sd	a5,0(a1)
    80203cfc:	e28c                	sd	a1,0(a3)
    80203cfe:	95b2                	add	a1,a1,a2
    80203d00:	00858693          	addi	a3,a1,8
    80203d04:	9732                	add	a4,a4,a2
    80203d06:	f2deffe3          	bgeu	t4,a3,80203c44 <.LBB5_18+0x14>
    80203d0a:	11053583          	ld	a1,272(a0)
    80203d0e:	95ba                	add	a1,a1,a4
    80203d10:	10b53823          	sd	a1,272(a0)
    80203d14:	60a2                	ld	ra,8(sp)
    80203d16:	6402                	ld	s0,0(sp)
    80203d18:	0141                	addi	sp,sp,16
    80203d1a:	8082                	ret

0000000080203d1c <.LBB5_19>:
    80203d1c:	00007617          	auipc	a2,0x7
    80203d20:	b6460613          	addi	a2,a2,-1180 # 8020a880 <.Lanon.5ff63f546c367859a8a259c546cee8d5.3>
    80203d24:	02000593          	li	a1,32
    80203d28:	8536                	mv	a0,a3
    80203d2a:	00000097          	auipc	ra,0x0
    80203d2e:	718080e7          	jalr	1816(ra) # 80204442 <_ZN4core9panicking18panic_bounds_check17h03ed6527cd415bf9E>
	...

0000000080203d34 <.LBB5_20>:
    80203d34:	00007517          	auipc	a0,0x7
    80203d38:	aac50513          	addi	a0,a0,-1364 # 8020a7e0 <.Lanon.5ff63f546c367859a8a259c546cee8d5.0>

0000000080203d3c <.LBB5_21>:
    80203d3c:	00007617          	auipc	a2,0x7
    80203d40:	b2c60613          	addi	a2,a2,-1236 # 8020a868 <.Lanon.5ff63f546c367859a8a259c546cee8d5.2>
    80203d44:	45f9                	li	a1,30
    80203d46:	00000097          	auipc	ra,0x0
    80203d4a:	688080e7          	jalr	1672(ra) # 802043ce <_ZN4core9panicking5panic17h968d2b6b541ffadfE>
	...

0000000080203d50 <_ZN22buddy_system_allocator4Heap5alloc17hf05baaf2c83be7a0E>:
    80203d50:	1141                	addi	sp,sp,-16
    80203d52:	e406                	sd	ra,8(sp)
    80203d54:	e022                	sd	s0,0(sp)
    80203d56:	0800                	addi	s0,sp,16
    80203d58:	4705                	li	a4,1
    80203d5a:	4789                	li	a5,2

0000000080203d5c <.LBB6_28>:
    80203d5c:	00003317          	auipc	t1,0x3
    80203d60:	33c30313          	addi	t1,t1,828 # 80207098 <.LCPI6_0>

0000000080203d64 <.LBB6_29>:
    80203d64:	00003297          	auipc	t0,0x3
    80203d68:	33c28293          	addi	t0,t0,828 # 802070a0 <.LCPI6_1>

0000000080203d6c <.LBB6_30>:
    80203d6c:	00003897          	auipc	a7,0x3
    80203d70:	33c88893          	addi	a7,a7,828 # 802070a8 <.LCPI6_2>

0000000080203d74 <.LBB6_31>:
    80203d74:	00003817          	auipc	a6,0x3
    80203d78:	33c80813          	addi	a6,a6,828 # 802070b0 <.LCPI6_3>
    80203d7c:	0ef5fc63          	bgeu	a1,a5,80203e74 <.LBB6_31+0x100>
    80203d80:	16c77163          	bgeu	a4,a2,80203ee2 <.LBB6_31+0x16e>
    80203d84:	46a1                	li	a3,8
    80203d86:	16c6f263          	bgeu	a3,a2,80203eea <.LBB6_31+0x176>
    80203d8a:	16060363          	beqz	a2,80203ef0 <.LBB6_31+0x17c>
    80203d8e:	fff60693          	addi	a3,a2,-1
    80203d92:	fff64713          	not	a4,a2
    80203d96:	00033303          	ld	t1,0(t1)
    80203d9a:	8ef9                	and	a3,a3,a4
    80203d9c:	0002b703          	ld	a4,0(t0)
    80203da0:	0016d793          	srli	a5,a3,0x1
    80203da4:	0067f7b3          	and	a5,a5,t1
    80203da8:	8e9d                	sub	a3,a3,a5
    80203daa:	00e6f7b3          	and	a5,a3,a4
    80203dae:	8289                	srli	a3,a3,0x2
    80203db0:	8ef9                	and	a3,a3,a4
    80203db2:	96be                	add	a3,a3,a5
    80203db4:	0008b883          	ld	a7,0(a7)
    80203db8:	00083783          	ld	a5,0(a6)
    80203dbc:	0046d713          	srli	a4,a3,0x4
    80203dc0:	96ba                	add	a3,a3,a4
    80203dc2:	0116f6b3          	and	a3,a3,a7
    80203dc6:	02f686b3          	mul	a3,a3,a5
    80203dca:	0386d893          	srli	a7,a3,0x38
    80203dce:	02000693          	li	a3,32
    80203dd2:	82c6                	mv	t0,a7
    80203dd4:	0116e463          	bltu	a3,a7,80203ddc <.LBB6_31+0x68>
    80203dd8:	02000293          	li	t0,32
    80203ddc:	00389693          	slli	a3,a7,0x3
    80203de0:	00a68833          	add	a6,a3,a0
    80203de4:	ff080793          	addi	a5,a6,-16
    80203de8:	86c6                	mv	a3,a7
    80203dea:	06d28f63          	beq	t0,a3,80203e68 <.LBB6_31+0xf4>
    80203dee:	0107bf03          	ld	t5,16(a5)
    80203df2:	0685                	addi	a3,a3,1
    80203df4:	07a1                	addi	a5,a5,8
    80203df6:	fe0f0ae3          	beqz	t5,80203dea <.LBB6_31+0x76>
    80203dfa:	fff68713          	addi	a4,a3,-1
    80203dfe:	02e8ff63          	bgeu	a7,a4,80203e3c <.LBB6_31+0xc8>
    80203e02:	00188293          	addi	t0,a7,1
    80203e06:	02000313          	li	t1,32
    80203e0a:	43fd                	li	t2,31
    80203e0c:	4e05                	li	t3,1
    80203e0e:	fff68e93          	addi	t4,a3,-1
    80203e12:	0e6ef763          	bgeu	t4,t1,80203f00 <.LBB6_31+0x18c>
    80203e16:	000f3703          	ld	a4,0(t5)
    80203e1a:	16f9                	addi	a3,a3,-2
    80203e1c:	e798                	sd	a4,8(a5)
    80203e1e:	0ed3e863          	bltu	t2,a3,80203f0e <.LBB6_33>
    80203e22:	6398                	ld	a4,0(a5)
    80203e24:	00de16b3          	sll	a3,t3,a3
    80203e28:	96fa                	add	a3,a3,t5
    80203e2a:	e298                	sd	a4,0(a3)
    80203e2c:	00df3023          	sd	a3,0(t5)
    80203e30:	01e7b023          	sd	t5,0(a5)
    80203e34:	17e1                	addi	a5,a5,-8
    80203e36:	86f6                	mv	a3,t4
    80203e38:	fdd2ebe3          	bltu	t0,t4,80203e0e <.LBB6_31+0x9a>
    80203e3c:	02000693          	li	a3,32
    80203e40:	0ed8f363          	bgeu	a7,a3,80203f26 <.LBB6_34>
    80203e44:	00083683          	ld	a3,0(a6)
    80203e48:	cafd                	beqz	a3,80203f3e <.LBB6_35>
    80203e4a:	6298                	ld	a4,0(a3)
    80203e4c:	00e83023          	sd	a4,0(a6)
    80203e50:	10053703          	ld	a4,256(a0)
    80203e54:	10853783          	ld	a5,264(a0)
    80203e58:	95ba                	add	a1,a1,a4
    80203e5a:	10b53023          	sd	a1,256(a0)
    80203e5e:	00c785b3          	add	a1,a5,a2
    80203e62:	10b53423          	sd	a1,264(a0)
    80203e66:	a011                	j	80203e6a <.LBB6_31+0xf6>
    80203e68:	4681                	li	a3,0
    80203e6a:	8536                	mv	a0,a3
    80203e6c:	60a2                	ld	ra,8(sp)
    80203e6e:	6402                	ld	s0,0(sp)
    80203e70:	0141                	addi	sp,sp,16
    80203e72:	8082                	ret
    80203e74:	fff58713          	addi	a4,a1,-1
    80203e78:	00175793          	srli	a5,a4,0x1
    80203e7c:	8f5d                	or	a4,a4,a5
    80203e7e:	00275793          	srli	a5,a4,0x2
    80203e82:	8f5d                	or	a4,a4,a5
    80203e84:	00475793          	srli	a5,a4,0x4
    80203e88:	8f5d                	or	a4,a4,a5
    80203e8a:	00875793          	srli	a5,a4,0x8
    80203e8e:	8f5d                	or	a4,a4,a5
    80203e90:	01075793          	srli	a5,a4,0x10
    80203e94:	8f5d                	or	a4,a4,a5
    80203e96:	02075793          	srli	a5,a4,0x20
    80203e9a:	8f5d                	or	a4,a4,a5
    80203e9c:	00033383          	ld	t2,0(t1)
    80203ea0:	fff74713          	not	a4,a4
    80203ea4:	0002b683          	ld	a3,0(t0)
    80203ea8:	00175793          	srli	a5,a4,0x1
    80203eac:	0077f7b3          	and	a5,a5,t2
    80203eb0:	8f1d                	sub	a4,a4,a5
    80203eb2:	00d777b3          	and	a5,a4,a3
    80203eb6:	8309                	srli	a4,a4,0x2
    80203eb8:	8ef9                	and	a3,a3,a4
    80203eba:	96be                	add	a3,a3,a5
    80203ebc:	0008b383          	ld	t2,0(a7)
    80203ec0:	00083783          	ld	a5,0(a6)
    80203ec4:	0046d713          	srli	a4,a3,0x4
    80203ec8:	96ba                	add	a3,a3,a4
    80203eca:	0076f6b3          	and	a3,a3,t2
    80203ece:	02f686b3          	mul	a3,a3,a5
    80203ed2:	92e1                	srli	a3,a3,0x38
    80203ed4:	577d                	li	a4,-1
    80203ed6:	00d756b3          	srl	a3,a4,a3
    80203eda:	00168713          	addi	a4,a3,1
    80203ede:	eac763e3          	bltu	a4,a2,80203d84 <.LBB6_31+0x10>
    80203ee2:	863a                	mv	a2,a4
    80203ee4:	46a1                	li	a3,8
    80203ee6:	eac6e2e3          	bltu	a3,a2,80203d8a <.LBB6_31+0x16>
    80203eea:	4621                	li	a2,8
    80203eec:	ea0611e3          	bnez	a2,80203d8e <.LBB6_31+0x1a>
    80203ef0:	04000893          	li	a7,64
    80203ef4:	02000693          	li	a3,32
    80203ef8:	82c6                	mv	t0,a7
    80203efa:	ed16ffe3          	bgeu	a3,a7,80203dd8 <.LBB6_31+0x64>
    80203efe:	bdf9                	j	80203ddc <.LBB6_31+0x68>
    80203f00:	fff68513          	addi	a0,a3,-1

0000000080203f04 <.LBB6_32>:
    80203f04:	00007617          	auipc	a2,0x7
    80203f08:	99460613          	addi	a2,a2,-1644 # 8020a898 <.Lanon.5ff63f546c367859a8a259c546cee8d5.4>
    80203f0c:	a031                	j	80203f18 <.LBB6_33+0xa>

0000000080203f0e <.LBB6_33>:
    80203f0e:	00007617          	auipc	a2,0x7
    80203f12:	9a260613          	addi	a2,a2,-1630 # 8020a8b0 <.Lanon.5ff63f546c367859a8a259c546cee8d5.5>
    80203f16:	557d                	li	a0,-1
    80203f18:	02000593          	li	a1,32
    80203f1c:	00000097          	auipc	ra,0x0
    80203f20:	526080e7          	jalr	1318(ra) # 80204442 <_ZN4core9panicking18panic_bounds_check17h03ed6527cd415bf9E>
	...

0000000080203f26 <.LBB6_34>:
    80203f26:	00007617          	auipc	a2,0x7
    80203f2a:	9a260613          	addi	a2,a2,-1630 # 8020a8c8 <.Lanon.5ff63f546c367859a8a259c546cee8d5.6>
    80203f2e:	02000593          	li	a1,32
    80203f32:	8546                	mv	a0,a7
    80203f34:	00000097          	auipc	ra,0x0
    80203f38:	50e080e7          	jalr	1294(ra) # 80204442 <_ZN4core9panicking18panic_bounds_check17h03ed6527cd415bf9E>
	...

0000000080203f3e <.LBB6_35>:
    80203f3e:	00007517          	auipc	a0,0x7
    80203f42:	9a250513          	addi	a0,a0,-1630 # 8020a8e0 <.Lanon.5ff63f546c367859a8a259c546cee8d5.7>

0000000080203f46 <.LBB6_36>:
    80203f46:	00007617          	auipc	a2,0x7
    80203f4a:	98260613          	addi	a2,a2,-1662 # 8020a8c8 <.Lanon.5ff63f546c367859a8a259c546cee8d5.6>
    80203f4e:	02800593          	li	a1,40
    80203f52:	00000097          	auipc	ra,0x0
    80203f56:	438080e7          	jalr	1080(ra) # 8020438a <_ZN4core6option13expect_failed17h7e81b10b1a12193cE>
	...

0000000080203f5c <_ZN22buddy_system_allocator4Heap7dealloc17h5c5bb6edc7877f64E>:
    80203f5c:	1141                	addi	sp,sp,-16
    80203f5e:	e406                	sd	ra,8(sp)
    80203f60:	e022                	sd	s0,0(sp)
    80203f62:	0800                	addi	s0,sp,16
    80203f64:	4705                	li	a4,1
    80203f66:	4789                	li	a5,2

0000000080203f68 <.LBB7_22>:
    80203f68:	00003317          	auipc	t1,0x3
    80203f6c:	15030313          	addi	t1,t1,336 # 802070b8 <.LCPI7_0>

0000000080203f70 <.LBB7_23>:
    80203f70:	00003297          	auipc	t0,0x3
    80203f74:	15028293          	addi	t0,t0,336 # 802070c0 <.LCPI7_1>

0000000080203f78 <.LBB7_24>:
    80203f78:	00003897          	auipc	a7,0x3
    80203f7c:	15088893          	addi	a7,a7,336 # 802070c8 <.LCPI7_2>

0000000080203f80 <.LBB7_25>:
    80203f80:	00003817          	auipc	a6,0x3
    80203f84:	15080813          	addi	a6,a6,336 # 802070d0 <.LCPI7_3>
    80203f88:	0cf67d63          	bgeu	a2,a5,80204062 <.LBB7_25+0xe2>
    80203f8c:	14d77263          	bgeu	a4,a3,802040d0 <.LBB7_25+0x150>
    80203f90:	4721                	li	a4,8
    80203f92:	14d77363          	bgeu	a4,a3,802040d8 <.LBB7_25+0x158>
    80203f96:	14068463          	beqz	a3,802040de <.LBB7_25+0x15e>
    80203f9a:	fff68393          	addi	t2,a3,-1
    80203f9e:	fff6c793          	not	a5,a3
    80203fa2:	00033303          	ld	t1,0(t1)
    80203fa6:	0077f3b3          	and	t2,a5,t2
    80203faa:	0002b703          	ld	a4,0(t0)
    80203fae:	0013d793          	srli	a5,t2,0x1
    80203fb2:	0067f7b3          	and	a5,a5,t1
    80203fb6:	40f387b3          	sub	a5,t2,a5
    80203fba:	00e7f2b3          	and	t0,a5,a4
    80203fbe:	8389                	srli	a5,a5,0x2
    80203fc0:	8f7d                	and	a4,a4,a5
    80203fc2:	9716                	add	a4,a4,t0
    80203fc4:	0008b883          	ld	a7,0(a7)
    80203fc8:	00083803          	ld	a6,0(a6)
    80203fcc:	00475793          	srli	a5,a4,0x4
    80203fd0:	973e                	add	a4,a4,a5
    80203fd2:	01177733          	and	a4,a4,a7
    80203fd6:	03070733          	mul	a4,a4,a6
    80203fda:	03875313          	srli	t1,a4,0x38
    80203fde:	487d                	li	a6,31
    80203fe0:	10686463          	bltu	a6,t1,802040e8 <.LBB7_26>
    80203fe4:	00331713          	slli	a4,t1,0x3
    80203fe8:	972a                	add	a4,a4,a0
    80203fea:	631c                	ld	a5,0(a4)
    80203fec:	e19c                	sd	a5,0(a1)
    80203fee:	e30c                	sd	a1,0(a4)
    80203ff0:	4885                	li	a7,1
    80203ff2:	82ae                	mv	t0,a1
    80203ff4:	00689733          	sll	a4,a7,t1
    80203ff8:	00331793          	slli	a5,t1,0x3
    80203ffc:	00f503b3          	add	t2,a0,a5
    80204000:	00574e33          	xor	t3,a4,t0
    80204004:	871e                	mv	a4,t2
    80204006:	cd9d                	beqz	a1,80204044 <.LBB7_25+0xc4>
    80204008:	87ae                	mv	a5,a1
    8020400a:	8eba                	mv	t4,a4
    8020400c:	618c                	ld	a1,0(a1)
    8020400e:	873e                	mv	a4,a5
    80204010:	fefe1be3          	bne	t3,a5,80204006 <.LBB7_25+0x86>
    80204014:	00beb023          	sd	a1,0(t4)
    80204018:	0003b583          	ld	a1,0(t2)
    8020401c:	c581                	beqz	a1,80204024 <.LBB7_25+0xa4>
    8020401e:	618c                	ld	a1,0(a1)
    80204020:	00b3b023          	sd	a1,0(t2)
    80204024:	0d030e63          	beq	t1,a6,80204100 <.LBB7_27>
    80204028:	01c2e363          	bltu	t0,t3,8020402e <.LBB7_25+0xae>
    8020402c:	82f2                	mv	t0,t3
    8020402e:	0305                	addi	t1,t1,1
    80204030:	00331593          	slli	a1,t1,0x3
    80204034:	95aa                	add	a1,a1,a0
    80204036:	6198                	ld	a4,0(a1)
    80204038:	00e2b023          	sd	a4,0(t0)
    8020403c:	0055b023          	sd	t0,0(a1)
    80204040:	8596                	mv	a1,t0
    80204042:	bf4d                	j	80203ff4 <.LBB7_25+0x74>
    80204044:	10053583          	ld	a1,256(a0)
    80204048:	10853703          	ld	a4,264(a0)
    8020404c:	8d91                	sub	a1,a1,a2
    8020404e:	10b53023          	sd	a1,256(a0)
    80204052:	40d705b3          	sub	a1,a4,a3
    80204056:	10b53423          	sd	a1,264(a0)
    8020405a:	60a2                	ld	ra,8(sp)
    8020405c:	6402                	ld	s0,0(sp)
    8020405e:	0141                	addi	sp,sp,16
    80204060:	8082                	ret
    80204062:	fff60713          	addi	a4,a2,-1
    80204066:	00175793          	srli	a5,a4,0x1
    8020406a:	8f5d                	or	a4,a4,a5
    8020406c:	00275793          	srli	a5,a4,0x2
    80204070:	8f5d                	or	a4,a4,a5
    80204072:	00475793          	srli	a5,a4,0x4
    80204076:	8f5d                	or	a4,a4,a5
    80204078:	00875793          	srli	a5,a4,0x8
    8020407c:	8f5d                	or	a4,a4,a5
    8020407e:	01075793          	srli	a5,a4,0x10
    80204082:	8f5d                	or	a4,a4,a5
    80204084:	02075793          	srli	a5,a4,0x20
    80204088:	8f5d                	or	a4,a4,a5
    8020408a:	00033383          	ld	t2,0(t1)
    8020408e:	fff74e13          	not	t3,a4
    80204092:	0002b783          	ld	a5,0(t0)
    80204096:	001e5713          	srli	a4,t3,0x1
    8020409a:	00777733          	and	a4,a4,t2
    8020409e:	40ee0733          	sub	a4,t3,a4
    802040a2:	00f773b3          	and	t2,a4,a5
    802040a6:	8309                	srli	a4,a4,0x2
    802040a8:	8f7d                	and	a4,a4,a5
    802040aa:	971e                	add	a4,a4,t2
    802040ac:	0008b383          	ld	t2,0(a7)
    802040b0:	00083e03          	ld	t3,0(a6)
    802040b4:	00475793          	srli	a5,a4,0x4
    802040b8:	973e                	add	a4,a4,a5
    802040ba:	00777733          	and	a4,a4,t2
    802040be:	03c70733          	mul	a4,a4,t3
    802040c2:	9361                	srli	a4,a4,0x38
    802040c4:	57fd                	li	a5,-1
    802040c6:	00e7d733          	srl	a4,a5,a4
    802040ca:	0705                	addi	a4,a4,1
    802040cc:	ecd762e3          	bltu	a4,a3,80203f90 <.LBB7_25+0x10>
    802040d0:	86ba                	mv	a3,a4
    802040d2:	4721                	li	a4,8
    802040d4:	ecd761e3          	bltu	a4,a3,80203f96 <.LBB7_25+0x16>
    802040d8:	46a1                	li	a3,8
    802040da:	ec0690e3          	bnez	a3,80203f9a <.LBB7_25+0x1a>
    802040de:	04000313          	li	t1,64
    802040e2:	487d                	li	a6,31
    802040e4:	f06870e3          	bgeu	a6,t1,80203fe4 <.LBB7_25+0x64>

00000000802040e8 <.LBB7_26>:
    802040e8:	00007617          	auipc	a2,0x7
    802040ec:	82060613          	addi	a2,a2,-2016 # 8020a908 <.Lanon.5ff63f546c367859a8a259c546cee8d5.8>
    802040f0:	02000593          	li	a1,32
    802040f4:	851a                	mv	a0,t1
    802040f6:	00000097          	auipc	ra,0x0
    802040fa:	34c080e7          	jalr	844(ra) # 80204442 <_ZN4core9panicking18panic_bounds_check17h03ed6527cd415bf9E>
	...

0000000080204100 <.LBB7_27>:
    80204100:	00007617          	auipc	a2,0x7
    80204104:	82060613          	addi	a2,a2,-2016 # 8020a920 <.Lanon.5ff63f546c367859a8a259c546cee8d5.9>
    80204108:	02000513          	li	a0,32
    8020410c:	02000593          	li	a1,32
    80204110:	00000097          	auipc	ra,0x0
    80204114:	332080e7          	jalr	818(ra) # 80204442 <_ZN4core9panicking18panic_bounds_check17h03ed6527cd415bf9E>
	...

000000008020411a <_ZN78_$LT$buddy_system_allocator..LockedHeap$u20$as$u20$core..ops..deref..Deref$GT$5deref17h2474381731d24de7E>:
    8020411a:	1141                	addi	sp,sp,-16
    8020411c:	e406                	sd	ra,8(sp)
    8020411e:	e022                	sd	s0,0(sp)
    80204120:	0800                	addi	s0,sp,16
    80204122:	60a2                	ld	ra,8(sp)
    80204124:	6402                	ld	s0,0(sp)
    80204126:	0141                	addi	sp,sp,16
    80204128:	8082                	ret

000000008020412a <_ZN87_$LT$buddy_system_allocator..LockedHeap$u20$as$u20$core..alloc..global..GlobalAlloc$GT$5alloc17haa7e9017b26f4174E>:
    8020412a:	1101                	addi	sp,sp,-32
    8020412c:	ec06                	sd	ra,24(sp)
    8020412e:	e822                	sd	s0,16(sp)
    80204130:	e426                	sd	s1,8(sp)
    80204132:	e04a                	sd	s2,0(sp)
    80204134:	1000                	addi	s0,sp,32
    80204136:	84aa                	mv	s1,a0
    80204138:	4505                	li	a0,1
    8020413a:	00a4b92f          	amoadd.d	s2,a0,(s1)
    8020413e:	6488                	ld	a0,8(s1)
    80204140:	0230000f          	fence	r,rw
    80204144:	01250963          	beq	a0,s2,80204156 <_ZN87_$LT$buddy_system_allocator..LockedHeap$u20$as$u20$core..alloc..global..GlobalAlloc$GT$5alloc17haa7e9017b26f4174E+0x2c>
    80204148:	0100000f          	fence	w,unknown
    8020414c:	6488                	ld	a0,8(s1)
    8020414e:	0230000f          	fence	r,rw
    80204152:	ff251be3          	bne	a0,s2,80204148 <_ZN87_$LT$buddy_system_allocator..LockedHeap$u20$as$u20$core..alloc..global..GlobalAlloc$GT$5alloc17haa7e9017b26f4174E+0x1e>
    80204156:	01048513          	addi	a0,s1,16
    8020415a:	00000097          	auipc	ra,0x0
    8020415e:	bf6080e7          	jalr	-1034(ra) # 80203d50 <_ZN22buddy_system_allocator4Heap5alloc17hf05baaf2c83be7a0E>
    80204162:	00190593          	addi	a1,s2,1
    80204166:	0310000f          	fence	rw,w
    8020416a:	e48c                	sd	a1,8(s1)
    8020416c:	60e2                	ld	ra,24(sp)
    8020416e:	6442                	ld	s0,16(sp)
    80204170:	64a2                	ld	s1,8(sp)
    80204172:	6902                	ld	s2,0(sp)
    80204174:	6105                	addi	sp,sp,32
    80204176:	8082                	ret

0000000080204178 <_ZN87_$LT$buddy_system_allocator..LockedHeap$u20$as$u20$core..alloc..global..GlobalAlloc$GT$7dealloc17ha5c23284bbaeea22E>:
    80204178:	1101                	addi	sp,sp,-32
    8020417a:	ec06                	sd	ra,24(sp)
    8020417c:	e822                	sd	s0,16(sp)
    8020417e:	e426                	sd	s1,8(sp)
    80204180:	e04a                	sd	s2,0(sp)
    80204182:	1000                	addi	s0,sp,32
    80204184:	84aa                	mv	s1,a0
    80204186:	4505                	li	a0,1
    80204188:	00a4b92f          	amoadd.d	s2,a0,(s1)
    8020418c:	6488                	ld	a0,8(s1)
    8020418e:	0230000f          	fence	r,rw
    80204192:	01250963          	beq	a0,s2,802041a4 <_ZN87_$LT$buddy_system_allocator..LockedHeap$u20$as$u20$core..alloc..global..GlobalAlloc$GT$7dealloc17ha5c23284bbaeea22E+0x2c>
    80204196:	0100000f          	fence	w,unknown
    8020419a:	6488                	ld	a0,8(s1)
    8020419c:	0230000f          	fence	r,rw
    802041a0:	ff251be3          	bne	a0,s2,80204196 <_ZN87_$LT$buddy_system_allocator..LockedHeap$u20$as$u20$core..alloc..global..GlobalAlloc$GT$7dealloc17ha5c23284bbaeea22E+0x1e>
    802041a4:	01048513          	addi	a0,s1,16
    802041a8:	00000097          	auipc	ra,0x0
    802041ac:	db4080e7          	jalr	-588(ra) # 80203f5c <_ZN22buddy_system_allocator4Heap7dealloc17h5c5bb6edc7877f64E>
    802041b0:	00190513          	addi	a0,s2,1
    802041b4:	0310000f          	fence	rw,w
    802041b8:	e488                	sd	a0,8(s1)
    802041ba:	60e2                	ld	ra,24(sp)
    802041bc:	6442                	ld	s0,16(sp)
    802041be:	64a2                	ld	s1,8(sp)
    802041c0:	6902                	ld	s2,0(sp)
    802041c2:	6105                	addi	sp,sp,32
    802041c4:	8082                	ret

00000000802041c6 <_ZN5alloc5alloc18handle_alloc_error17h88ccbda11633eef3E>:
    802041c6:	1141                	addi	sp,sp,-16
    802041c8:	e406                	sd	ra,8(sp)
    802041ca:	00000097          	auipc	ra,0x0
    802041ce:	00a080e7          	jalr	10(ra) # 802041d4 <_ZN5alloc5alloc18handle_alloc_error8rt_error17h642dc338afec6fe5E>
	...

00000000802041d4 <_ZN5alloc5alloc18handle_alloc_error8rt_error17h642dc338afec6fe5E>:
    802041d4:	1141                	addi	sp,sp,-16
    802041d6:	e406                	sd	ra,8(sp)
    802041d8:	fffff097          	auipc	ra,0xfffff
    802041dc:	15a080e7          	jalr	346(ra) # 80203332 <__rust_alloc_error_handler>
	...

00000000802041e2 <_ZN4core3ptr32drop_in_place$LT$$RF$$RF$str$GT$17haf40bd6c1d91ab3bE>:
    802041e2:	1141                	addi	sp,sp,-16
    802041e4:	e406                	sd	ra,8(sp)
    802041e6:	e022                	sd	s0,0(sp)
    802041e8:	0800                	addi	s0,sp,16
    802041ea:	60a2                	ld	ra,8(sp)
    802041ec:	6402                	ld	s0,0(sp)
    802041ee:	0141                	addi	sp,sp,16
    802041f0:	8082                	ret

00000000802041f2 <_ZN43_$LT$log..NopLogger$u20$as$u20$log..Log$GT$7enabled17h1a2bf1c29409faa0E>:
    802041f2:	1141                	addi	sp,sp,-16
    802041f4:	e406                	sd	ra,8(sp)
    802041f6:	e022                	sd	s0,0(sp)
    802041f8:	0800                	addi	s0,sp,16
    802041fa:	4501                	li	a0,0
    802041fc:	60a2                	ld	ra,8(sp)
    802041fe:	6402                	ld	s0,0(sp)
    80204200:	0141                	addi	sp,sp,16
    80204202:	8082                	ret

0000000080204204 <_ZN43_$LT$log..NopLogger$u20$as$u20$log..Log$GT$3log17haafec08b3a927984E>:
    80204204:	1141                	addi	sp,sp,-16
    80204206:	e406                	sd	ra,8(sp)
    80204208:	e022                	sd	s0,0(sp)
    8020420a:	0800                	addi	s0,sp,16
    8020420c:	60a2                	ld	ra,8(sp)
    8020420e:	6402                	ld	s0,0(sp)
    80204210:	0141                	addi	sp,sp,16
    80204212:	8082                	ret

0000000080204214 <_ZN43_$LT$log..NopLogger$u20$as$u20$log..Log$GT$5flush17h246837124c246afbE>:
    80204214:	1141                	addi	sp,sp,-16
    80204216:	e406                	sd	ra,8(sp)
    80204218:	e022                	sd	s0,0(sp)
    8020421a:	0800                	addi	s0,sp,16
    8020421c:	60a2                	ld	ra,8(sp)
    8020421e:	6402                	ld	s0,0(sp)
    80204220:	0141                	addi	sp,sp,16
    80204222:	8082                	ret

0000000080204224 <_ZN3log17__private_api_log17he4dfcaf7e9ba9ed4E>:
    80204224:	7135                	addi	sp,sp,-160
    80204226:	ed06                	sd	ra,152(sp)
    80204228:	e922                	sd	s0,144(sp)
    8020422a:	e526                	sd	s1,136(sp)
    8020422c:	1100                	addi	s0,sp,160
    8020422e:	e6e1                	bnez	a3,802042f6 <.LBB24_11>
    80204230:	872a                	mv	a4,a0
    80204232:	03062803          	lw	a6,48(a2)
    80204236:	02863883          	ld	a7,40(a2)
    8020423a:	02063283          	ld	t0,32(a2)
    8020423e:	01863303          	ld	t1,24(a2)
    80204242:	01063383          	ld	t2,16(a2)
    80204246:	00863e83          	ld	t4,8(a2)
    8020424a:	00063f03          	ld	t5,0(a2)
    8020424e:	0330000f          	fence	rw,rw

0000000080204252 <.LBB24_6>:
    80204252:	00003517          	auipc	a0,0x3
    80204256:	18e50513          	addi	a0,a0,398 # 802073e0 <_ZN3log5STATE17hd58b9a1e68eda7d7E>
    8020425a:	6108                	ld	a0,0(a0)
    8020425c:	4609                	li	a2,2
    8020425e:	0230000f          	fence	r,rw
    80204262:	00c50b63          	beq	a0,a2,80204278 <.LBB24_9>

0000000080204266 <.LBB24_7>:
    80204266:	00006e17          	auipc	t3,0x6
    8020426a:	6eae0e13          	addi	t3,t3,1770 # 8020a950 <.Lanon.a44757146d3c77b8c9277b1d28193ef0.4>

000000008020426e <.LBB24_8>:
    8020426e:	00006517          	auipc	a0,0x6
    80204272:	6ca50513          	addi	a0,a0,1738 # 8020a938 <.Lanon.a44757146d3c77b8c9277b1d28193ef0.3>
    80204276:	a821                	j	8020428e <.LBB24_10+0xc>

0000000080204278 <.LBB24_9>:
    80204278:	00003517          	auipc	a0,0x3
    8020427c:	e8050513          	addi	a0,a0,-384 # 802070f8 <_ZN3log6LOGGER17h2f214fa2c0414d9fE.0>
    80204280:	6108                	ld	a0,0(a0)

0000000080204282 <.LBB24_10>:
    80204282:	00003617          	auipc	a2,0x3
    80204286:	e7e60613          	addi	a2,a2,-386 # 80207100 <_ZN3log6LOGGER17h2f214fa2c0414d9fE.1>
    8020428a:	00063e03          	ld	t3,0(a2)
    8020428e:	6310                	ld	a2,0(a4)
    80204290:	671c                	ld	a5,8(a4)
    80204292:	6b14                	ld	a3,16(a4)
    80204294:	01873f83          	ld	t6,24(a4) # 464c4018 <.Lline_table_start0+0x46498a0d>
    80204298:	7304                	ld	s1,32(a4)
    8020429a:	7718                	ld	a4,40(a4)
    8020429c:	fbe43023          	sd	t5,-96(s0)
    802042a0:	fbd43423          	sd	t4,-88(s0)
    802042a4:	fab43823          	sd	a1,-80(s0)
    802042a8:	f6c43423          	sd	a2,-152(s0)
    802042ac:	f6f43823          	sd	a5,-144(s0)
    802042b0:	f6d43c23          	sd	a3,-136(s0)
    802042b4:	f9f43023          	sd	t6,-128(s0)
    802042b8:	f8943423          	sd	s1,-120(s0)
    802042bc:	f8e43823          	sd	a4,-112(s0)
    802042c0:	fa043c23          	sd	zero,-72(s0)
    802042c4:	fc743023          	sd	t2,-64(s0)
    802042c8:	fc643423          	sd	t1,-56(s0)
    802042cc:	fc043823          	sd	zero,-48(s0)
    802042d0:	fc543c23          	sd	t0,-40(s0)
    802042d4:	ff143023          	sd	a7,-32(s0)
    802042d8:	4585                	li	a1,1
    802042da:	f8b42c23          	sw	a1,-104(s0)
    802042de:	f9042e23          	sw	a6,-100(s0)
    802042e2:	028e3603          	ld	a2,40(t3)
    802042e6:	f6840593          	addi	a1,s0,-152
    802042ea:	9602                	jalr	a2
    802042ec:	60ea                	ld	ra,152(sp)
    802042ee:	644a                	ld	s0,144(sp)
    802042f0:	64aa                	ld	s1,136(sp)
    802042f2:	610d                	addi	sp,sp,160
    802042f4:	8082                	ret

00000000802042f6 <.LBB24_11>:
    802042f6:	00006517          	auipc	a0,0x6
    802042fa:	6e450513          	addi	a0,a0,1764 # 8020a9da <.Lanon.a44757146d3c77b8c9277b1d28193ef0.19>

00000000802042fe <.LBB24_12>:
    802042fe:	00006617          	auipc	a2,0x6
    80204302:	73260613          	addi	a2,a2,1842 # 8020aa30 <.Lanon.a44757146d3c77b8c9277b1d28193ef0.20>
    80204306:	05500593          	li	a1,85
    8020430a:	00000097          	auipc	ra,0x0
    8020430e:	0c4080e7          	jalr	196(ra) # 802043ce <_ZN4core9panicking5panic17h968d2b6b541ffadfE>
	...

0000000080204314 <_ZN4core3ops8function6FnOnce9call_once17hfd3303d23173549bE>:
    80204314:	6108                	ld	a0,0(a0)
    80204316:	a001                	j	80204316 <_ZN4core3ops8function6FnOnce9call_once17hfd3303d23173549bE+0x2>

0000000080204318 <_ZN4core3ptr102drop_in_place$LT$$RF$core..iter..adapters..copied..Copied$LT$core..slice..iter..Iter$LT$u8$GT$$GT$$GT$17h53befd6046d0b90eE>:
    80204318:	8082                	ret

000000008020431a <_ZN71_$LT$core..ops..range..Range$LT$Idx$GT$$u20$as$u20$core..fmt..Debug$GT$3fmt17he17a1c8d256887c6E>:
    8020431a:	715d                	addi	sp,sp,-80
    8020431c:	e486                	sd	ra,72(sp)
    8020431e:	e0a2                	sd	s0,64(sp)
    80204320:	fc26                	sd	s1,56(sp)
    80204322:	842e                	mv	s0,a1
    80204324:	84aa                	mv	s1,a0
    80204326:	00002097          	auipc	ra,0x2
    8020432a:	466080e7          	jalr	1126(ra) # 8020678c <_ZN4core3fmt3num52_$LT$impl$u20$core..fmt..Debug$u20$for$u20$usize$GT$3fmt17h7d8d90efa1f76e4dE>
    8020432e:	e51d                	bnez	a0,8020435c <.LBB96_5+0x18>
    80204330:	6008                	ld	a0,0(s0)
    80204332:	640c                	ld	a1,8(s0)
    80204334:	e402                	sd	zero,8(sp)

0000000080204336 <.LBB96_4>:
    80204336:	00007617          	auipc	a2,0x7
    8020433a:	a3a60613          	addi	a2,a2,-1478 # 8020ad70 <.Lanon.5d7b72655c03d3be6c233dc0a6aa27b8.164>
    8020433e:	ec32                	sd	a2,24(sp)
    80204340:	4605                	li	a2,1
    80204342:	f032                	sd	a2,32(sp)

0000000080204344 <.LBB96_5>:
    80204344:	00007617          	auipc	a2,0x7
    80204348:	9bc60613          	addi	a2,a2,-1604 # 8020ad00 <.Lanon.5d7b72655c03d3be6c233dc0a6aa27b8.94>
    8020434c:	f432                	sd	a2,40(sp)
    8020434e:	f802                	sd	zero,48(sp)
    80204350:	0030                	addi	a2,sp,8
    80204352:	00001097          	auipc	ra,0x1
    80204356:	9c0080e7          	jalr	-1600(ra) # 80204d12 <_ZN4core3fmt5write17h42fcd7b837de3f75E>
    8020435a:	c519                	beqz	a0,80204368 <.LBB96_5+0x24>
    8020435c:	4505                	li	a0,1
    8020435e:	60a6                	ld	ra,72(sp)
    80204360:	6406                	ld	s0,64(sp)
    80204362:	74e2                	ld	s1,56(sp)
    80204364:	6161                	addi	sp,sp,80
    80204366:	8082                	ret
    80204368:	00848513          	addi	a0,s1,8
    8020436c:	85a2                	mv	a1,s0
    8020436e:	60a6                	ld	ra,72(sp)
    80204370:	6406                	ld	s0,64(sp)
    80204372:	74e2                	ld	s1,56(sp)
    80204374:	6161                	addi	sp,sp,80
    80204376:	00002317          	auipc	t1,0x2
    8020437a:	41630067          	jr	1046(t1) # 8020678c <_ZN4core3fmt3num52_$LT$impl$u20$core..fmt..Debug$u20$for$u20$usize$GT$3fmt17h7d8d90efa1f76e4dE>

000000008020437e <_ZN36_$LT$T$u20$as$u20$core..any..Any$GT$7type_id17hf7601e0e4f62b400E>:
    8020437e:	00003517          	auipc	a0,0x3
    80204382:	e7250513          	addi	a0,a0,-398 # 802071f0 <.LCPI97_0>
    80204386:	6108                	ld	a0,0(a0)
    80204388:	8082                	ret

000000008020438a <_ZN4core6option13expect_failed17h7e81b10b1a12193cE>:
    8020438a:	1141                	addi	sp,sp,-16
    8020438c:	e406                	sd	ra,8(sp)
    8020438e:	00000097          	auipc	ra,0x0
    80204392:	06c080e7          	jalr	108(ra) # 802043fa <_ZN4core9panicking9panic_str17hf3d278dfd8d7da7cE>
	...

0000000080204398 <_ZN4core5panic10panic_info9PanicInfo7message17hcb7a5a3e466be904E>:
    80204398:	6908                	ld	a0,16(a0)
    8020439a:	8082                	ret

000000008020439c <_ZN4core5panic10panic_info9PanicInfo8location17h43d8a14288f989fbE>:
    8020439c:	6d08                	ld	a0,24(a0)
    8020439e:	8082                	ret

00000000802043a0 <_ZN4core9panicking9panic_fmt17h09608ae52bd0d3adE>:
    802043a0:	7179                	addi	sp,sp,-48
    802043a2:	f406                	sd	ra,40(sp)

00000000802043a4 <.LBB169_1>:
    802043a4:	00007617          	auipc	a2,0x7
    802043a8:	95c60613          	addi	a2,a2,-1700 # 8020ad00 <.Lanon.5d7b72655c03d3be6c233dc0a6aa27b8.94>
    802043ac:	e032                	sd	a2,0(sp)

00000000802043ae <.LBB169_2>:
    802043ae:	00007617          	auipc	a2,0x7
    802043b2:	a0a60613          	addi	a2,a2,-1526 # 8020adb8 <.Lanon.5d7b72655c03d3be6c233dc0a6aa27b8.231>
    802043b6:	e432                	sd	a2,8(sp)
    802043b8:	e82a                	sd	a0,16(sp)
    802043ba:	ec2e                	sd	a1,24(sp)
    802043bc:	4505                	li	a0,1
    802043be:	02a10023          	sb	a0,32(sp)
    802043c2:	850a                	mv	a0,sp
    802043c4:	ffffd097          	auipc	ra,0xffffd
    802043c8:	fee080e7          	jalr	-18(ra) # 802013b2 <rust_begin_unwind>
	...

00000000802043ce <_ZN4core9panicking5panic17h968d2b6b541ffadfE>:
    802043ce:	715d                	addi	sp,sp,-80
    802043d0:	e486                	sd	ra,72(sp)
    802043d2:	fc2a                	sd	a0,56(sp)
    802043d4:	e0ae                	sd	a1,64(sp)
    802043d6:	1828                	addi	a0,sp,56
    802043d8:	ec2a                	sd	a0,24(sp)
    802043da:	4505                	li	a0,1
    802043dc:	f02a                	sd	a0,32(sp)
    802043de:	e402                	sd	zero,8(sp)

00000000802043e0 <.LBB171_1>:
    802043e0:	00007517          	auipc	a0,0x7
    802043e4:	92050513          	addi	a0,a0,-1760 # 8020ad00 <.Lanon.5d7b72655c03d3be6c233dc0a6aa27b8.94>
    802043e8:	f42a                	sd	a0,40(sp)
    802043ea:	f802                	sd	zero,48(sp)
    802043ec:	0028                	addi	a0,sp,8
    802043ee:	85b2                	mv	a1,a2
    802043f0:	00000097          	auipc	ra,0x0
    802043f4:	fb0080e7          	jalr	-80(ra) # 802043a0 <_ZN4core9panicking9panic_fmt17h09608ae52bd0d3adE>
	...

00000000802043fa <_ZN4core9panicking9panic_str17hf3d278dfd8d7da7cE>:
    802043fa:	1101                	addi	sp,sp,-32
    802043fc:	ec06                	sd	ra,24(sp)
    802043fe:	e42a                	sd	a0,8(sp)
    80204400:	e82e                	sd	a1,16(sp)
    80204402:	0028                	addi	a0,sp,8
    80204404:	85b2                	mv	a1,a2
    80204406:	00000097          	auipc	ra,0x0
    8020440a:	00a080e7          	jalr	10(ra) # 80204410 <_ZN4core9panicking13panic_display17hd0da7ced0f366d83E>
	...

0000000080204410 <_ZN4core9panicking13panic_display17hd0da7ced0f366d83E>:
    80204410:	715d                	addi	sp,sp,-80
    80204412:	e486                	sd	ra,72(sp)
    80204414:	fc2a                	sd	a0,56(sp)

0000000080204416 <.LBB173_1>:
    80204416:	00002517          	auipc	a0,0x2
    8020441a:	7a650513          	addi	a0,a0,1958 # 80206bbc <_ZN44_$LT$$RF$T$u20$as$u20$core..fmt..Display$GT$3fmt17hcf3c30afa59af89fE>
    8020441e:	e0aa                	sd	a0,64(sp)

0000000080204420 <.LBB173_2>:
    80204420:	00007517          	auipc	a0,0x7
    80204424:	9b850513          	addi	a0,a0,-1608 # 8020add8 <.Lanon.5d7b72655c03d3be6c233dc0a6aa27b8.234>
    80204428:	ec2a                	sd	a0,24(sp)
    8020442a:	4505                	li	a0,1
    8020442c:	f02a                	sd	a0,32(sp)
    8020442e:	e402                	sd	zero,8(sp)
    80204430:	1830                	addi	a2,sp,56
    80204432:	f432                	sd	a2,40(sp)
    80204434:	f82a                	sd	a0,48(sp)
    80204436:	0028                	addi	a0,sp,8
    80204438:	00000097          	auipc	ra,0x0
    8020443c:	f68080e7          	jalr	-152(ra) # 802043a0 <_ZN4core9panicking9panic_fmt17h09608ae52bd0d3adE>
	...

0000000080204442 <_ZN4core9panicking18panic_bounds_check17h03ed6527cd415bf9E>:
    80204442:	7159                	addi	sp,sp,-112
    80204444:	f486                	sd	ra,104(sp)
    80204446:	e42a                	sd	a0,8(sp)
    80204448:	e82e                	sd	a1,16(sp)
    8020444a:	0808                	addi	a0,sp,16
    8020444c:	e4aa                	sd	a0,72(sp)

000000008020444e <.LBB174_1>:
    8020444e:	00002517          	auipc	a0,0x2
    80204452:	5c450513          	addi	a0,a0,1476 # 80206a12 <_ZN4core3fmt3num3imp52_$LT$impl$u20$core..fmt..Display$u20$for$u20$u64$GT$3fmt17h77ff5d762b7f8e58E>
    80204456:	e8aa                	sd	a0,80(sp)
    80204458:	002c                	addi	a1,sp,8
    8020445a:	ecae                	sd	a1,88(sp)
    8020445c:	f0aa                	sd	a0,96(sp)

000000008020445e <.LBB174_2>:
    8020445e:	00007517          	auipc	a0,0x7
    80204462:	93a50513          	addi	a0,a0,-1734 # 8020ad98 <.Lanon.5d7b72655c03d3be6c233dc0a6aa27b8.206>
    80204466:	f42a                	sd	a0,40(sp)
    80204468:	4509                	li	a0,2
    8020446a:	f82a                	sd	a0,48(sp)
    8020446c:	ec02                	sd	zero,24(sp)
    8020446e:	00ac                	addi	a1,sp,72
    80204470:	fc2e                	sd	a1,56(sp)
    80204472:	e0aa                	sd	a0,64(sp)
    80204474:	0828                	addi	a0,sp,24
    80204476:	85b2                	mv	a1,a2
    80204478:	00000097          	auipc	ra,0x0
    8020447c:	f28080e7          	jalr	-216(ra) # 802043a0 <_ZN4core9panicking9panic_fmt17h09608ae52bd0d3adE>
	...

0000000080204482 <_ZN4core9panicking19assert_failed_inner17h5d69d533fd27ec6dE>:
    80204482:	7115                	addi	sp,sp,-224
    80204484:	ed86                	sd	ra,216(sp)
    80204486:	e42e                	sd	a1,8(sp)
    80204488:	e832                	sd	a2,16(sp)
    8020448a:	ec36                	sd	a3,24(sp)
    8020448c:	0ff57513          	andi	a0,a0,255
    80204490:	f03a                	sd	a4,32(sp)
    80204492:	c909                	beqz	a0,802044a4 <.LBB180_10>
    80204494:	4585                	li	a1,1
    80204496:	04b51d63          	bne	a0,a1,802044f0 <.LBB180_14>

000000008020449a <.LBB180_9>:
    8020449a:	00007517          	auipc	a0,0x7
    8020449e:	97550513          	addi	a0,a0,-1675 # 8020ae0f <.Lanon.5d7b72655c03d3be6c233dc0a6aa27b8.240>
    802044a2:	a029                	j	802044ac <.LBB180_10+0x8>

00000000802044a4 <.LBB180_10>:
    802044a4:	00007517          	auipc	a0,0x7
    802044a8:	96d50513          	addi	a0,a0,-1683 # 8020ae11 <.Lanon.5d7b72655c03d3be6c233dc0a6aa27b8.241>
    802044ac:	f42a                	sd	a0,40(sp)
    802044ae:	4509                	li	a0,2
    802044b0:	6b8c                	ld	a1,16(a5)
    802044b2:	f82a                	sd	a0,48(sp)
    802044b4:	e5b9                	bnez	a1,80204502 <.LBB180_14+0x12>
    802044b6:	1028                	addi	a0,sp,40
    802044b8:	f4aa                	sd	a0,104(sp)

00000000802044ba <.LBB180_11>:
    802044ba:	00002517          	auipc	a0,0x2
    802044be:	70250513          	addi	a0,a0,1794 # 80206bbc <_ZN44_$LT$$RF$T$u20$as$u20$core..fmt..Display$GT$3fmt17hcf3c30afa59af89fE>
    802044c2:	f8aa                	sd	a0,112(sp)
    802044c4:	0028                	addi	a0,sp,8
    802044c6:	fcaa                	sd	a0,120(sp)

00000000802044c8 <.LBB180_12>:
    802044c8:	00002517          	auipc	a0,0x2
    802044cc:	6e250513          	addi	a0,a0,1762 # 80206baa <_ZN42_$LT$$RF$T$u20$as$u20$core..fmt..Debug$GT$3fmt17hcb8bce5ca6b6d1baE>
    802044d0:	e12a                	sd	a0,128(sp)
    802044d2:	082c                	addi	a1,sp,24
    802044d4:	e52e                	sd	a1,136(sp)
    802044d6:	e92a                	sd	a0,144(sp)

00000000802044d8 <.LBB180_13>:
    802044d8:	00007517          	auipc	a0,0x7
    802044dc:	9c050513          	addi	a0,a0,-1600 # 8020ae98 <.Lanon.5d7b72655c03d3be6c233dc0a6aa27b8.248>
    802044e0:	fd2a                	sd	a0,184(sp)
    802044e2:	4511                	li	a0,4
    802044e4:	e1aa                	sd	a0,192(sp)
    802044e6:	f502                	sd	zero,168(sp)
    802044e8:	10a8                	addi	a0,sp,104
    802044ea:	e5aa                	sd	a0,200(sp)
    802044ec:	450d                	li	a0,3
    802044ee:	a885                	j	8020455e <.LBB180_18+0x14>

00000000802044f0 <.LBB180_14>:
    802044f0:	00007517          	auipc	a0,0x7
    802044f4:	91850513          	addi	a0,a0,-1768 # 8020ae08 <.Lanon.5d7b72655c03d3be6c233dc0a6aa27b8.239>
    802044f8:	f42a                	sd	a0,40(sp)
    802044fa:	451d                	li	a0,7
    802044fc:	6b8c                	ld	a1,16(a5)
    802044fe:	f82a                	sd	a0,48(sp)
    80204500:	d9dd                	beqz	a1,802044b6 <.LBB180_10+0x12>
    80204502:	7788                	ld	a0,40(a5)
    80204504:	738c                	ld	a1,32(a5)
    80204506:	f0aa                	sd	a0,96(sp)
    80204508:	ecae                	sd	a1,88(sp)
    8020450a:	6f88                	ld	a0,24(a5)
    8020450c:	6b8c                	ld	a1,16(a5)
    8020450e:	6790                	ld	a2,8(a5)
    80204510:	6394                	ld	a3,0(a5)
    80204512:	e8aa                	sd	a0,80(sp)
    80204514:	e4ae                	sd	a1,72(sp)
    80204516:	e0b2                	sd	a2,64(sp)
    80204518:	fc36                	sd	a3,56(sp)
    8020451a:	1028                	addi	a0,sp,40
    8020451c:	f4aa                	sd	a0,104(sp)

000000008020451e <.LBB180_15>:
    8020451e:	00002517          	auipc	a0,0x2
    80204522:	69e50513          	addi	a0,a0,1694 # 80206bbc <_ZN44_$LT$$RF$T$u20$as$u20$core..fmt..Display$GT$3fmt17hcf3c30afa59af89fE>
    80204526:	f8aa                	sd	a0,112(sp)
    80204528:	0028                	addi	a0,sp,8
    8020452a:	fcaa                	sd	a0,120(sp)

000000008020452c <.LBB180_16>:
    8020452c:	00002517          	auipc	a0,0x2
    80204530:	67e50513          	addi	a0,a0,1662 # 80206baa <_ZN42_$LT$$RF$T$u20$as$u20$core..fmt..Debug$GT$3fmt17hcb8bce5ca6b6d1baE>
    80204534:	e12a                	sd	a0,128(sp)
    80204536:	082c                	addi	a1,sp,24
    80204538:	e52e                	sd	a1,136(sp)
    8020453a:	e92a                	sd	a0,144(sp)
    8020453c:	1828                	addi	a0,sp,56
    8020453e:	ed2a                	sd	a0,152(sp)

0000000080204540 <.LBB180_17>:
    80204540:	00000517          	auipc	a0,0x0
    80204544:	7a050513          	addi	a0,a0,1952 # 80204ce0 <_ZN59_$LT$core..fmt..Arguments$u20$as$u20$core..fmt..Display$GT$3fmt17h14b26a2a8d914ef0E>
    80204548:	f12a                	sd	a0,160(sp)

000000008020454a <.LBB180_18>:
    8020454a:	00007517          	auipc	a0,0x7
    8020454e:	90650513          	addi	a0,a0,-1786 # 8020ae50 <.Lanon.5d7b72655c03d3be6c233dc0a6aa27b8.246>
    80204552:	fd2a                	sd	a0,184(sp)
    80204554:	4511                	li	a0,4
    80204556:	e1aa                	sd	a0,192(sp)
    80204558:	f502                	sd	zero,168(sp)
    8020455a:	10ac                	addi	a1,sp,104
    8020455c:	e5ae                	sd	a1,200(sp)
    8020455e:	e9aa                	sd	a0,208(sp)
    80204560:	1128                	addi	a0,sp,168
    80204562:	85c2                	mv	a1,a6
    80204564:	00000097          	auipc	ra,0x0
    80204568:	e3c080e7          	jalr	-452(ra) # 802043a0 <_ZN4core9panicking9panic_fmt17h09608ae52bd0d3adE>
	...

000000008020456e <_ZN4core6result13unwrap_failed17h93c501911315d321E>:
    8020456e:	7119                	addi	sp,sp,-128
    80204570:	fc86                	sd	ra,120(sp)
    80204572:	e42a                	sd	a0,8(sp)
    80204574:	e82e                	sd	a1,16(sp)
    80204576:	ec32                	sd	a2,24(sp)
    80204578:	f036                	sd	a3,32(sp)
    8020457a:	0028                	addi	a0,sp,8
    8020457c:	ecaa                	sd	a0,88(sp)

000000008020457e <.LBB181_1>:
    8020457e:	00002517          	auipc	a0,0x2
    80204582:	63e50513          	addi	a0,a0,1598 # 80206bbc <_ZN44_$LT$$RF$T$u20$as$u20$core..fmt..Display$GT$3fmt17hcf3c30afa59af89fE>
    80204586:	f0aa                	sd	a0,96(sp)
    80204588:	0828                	addi	a0,sp,24
    8020458a:	f4aa                	sd	a0,104(sp)

000000008020458c <.LBB181_2>:
    8020458c:	00002517          	auipc	a0,0x2
    80204590:	61e50513          	addi	a0,a0,1566 # 80206baa <_ZN42_$LT$$RF$T$u20$as$u20$core..fmt..Debug$GT$3fmt17hcb8bce5ca6b6d1baE>
    80204594:	f8aa                	sd	a0,112(sp)

0000000080204596 <.LBB181_3>:
    80204596:	00007517          	auipc	a0,0x7
    8020459a:	94a50513          	addi	a0,a0,-1718 # 8020aee0 <.Lanon.5d7b72655c03d3be6c233dc0a6aa27b8.250>
    8020459e:	fc2a                	sd	a0,56(sp)
    802045a0:	4509                	li	a0,2
    802045a2:	e0aa                	sd	a0,64(sp)
    802045a4:	f402                	sd	zero,40(sp)
    802045a6:	08ac                	addi	a1,sp,88
    802045a8:	e4ae                	sd	a1,72(sp)
    802045aa:	e8aa                	sd	a0,80(sp)
    802045ac:	1028                	addi	a0,sp,40
    802045ae:	85ba                	mv	a1,a4
    802045b0:	00000097          	auipc	ra,0x0
    802045b4:	df0080e7          	jalr	-528(ra) # 802043a0 <_ZN4core9panicking9panic_fmt17h09608ae52bd0d3adE>
	...

00000000802045ba <_ZN68_$LT$core..fmt..builders..PadAdapter$u20$as$u20$core..fmt..Write$GT$9write_str17h00c12acf7478cdceE>:
    802045ba:	7131                	addi	sp,sp,-192
    802045bc:	fd06                	sd	ra,184(sp)
    802045be:	f922                	sd	s0,176(sp)
    802045c0:	f526                	sd	s1,168(sp)
    802045c2:	f14a                	sd	s2,160(sp)
    802045c4:	ed4e                	sd	s3,152(sp)
    802045c6:	e952                	sd	s4,144(sp)
    802045c8:	e556                	sd	s5,136(sp)
    802045ca:	e15a                	sd	s6,128(sp)
    802045cc:	fcde                	sd	s7,120(sp)
    802045ce:	f8e2                	sd	s8,112(sp)
    802045d0:	f4e6                	sd	s9,104(sp)
    802045d2:	f0ea                	sd	s10,96(sp)
    802045d4:	ecee                	sd	s11,88(sp)
    802045d6:	84b2                	mv	s1,a2
    802045d8:	8a2e                	mv	s4,a1
    802045da:	4981                	li	s3,0
    802045dc:	4401                	li	s0,0
    802045de:	4d81                	li	s11,0
    802045e0:	e82e                	sd	a1,16(sp)
    802045e2:	ec32                	sd	a2,24(sp)
    802045e4:	f002                	sd	zero,32(sp)
    802045e6:	f432                	sd	a2,40(sp)
    802045e8:	4a85                	li	s5,1
    802045ea:	f856                	sd	s5,48(sp)
    802045ec:	4b29                	li	s6,10
    802045ee:	01053b83          	ld	s7,16(a0)
    802045f2:	00053903          	ld	s2,0(a0)
    802045f6:	6508                	ld	a0,8(a0)
    802045f8:	e42a                	sd	a0,8(sp)
    802045fa:	dc5a                	sw	s6,56(sp)

00000000802045fc <.LBB183_26>:
    802045fc:	00005517          	auipc	a0,0x5
    80204600:	aec50513          	addi	a0,a0,-1300 # 802090e8 <.Lanon.c25a22bef176e972515b110aecca08c8.11+0x18>
    80204604:	e02a                	sd	a0,0(sp)
    80204606:	4cc1                	li	s9,16
    80204608:	a005                	j	80204628 <.LBB183_26+0x2c>
    8020460a:	00b60533          	add	a0,a2,a1
    8020460e:	fff54503          	lbu	a0,-1(a0)
    80204612:	1559                	addi	a0,a0,-10
    80204614:	00153513          	seqz	a0,a0
    80204618:	00ab8023          	sb	a0,0(s7)
    8020461c:	6522                	ld	a0,8(sp)
    8020461e:	6d14                	ld	a3,24(a0)
    80204620:	854a                	mv	a0,s2
    80204622:	9682                	jalr	a3
    80204624:	89ea                	mv	s3,s10
    80204626:	e179                	bnez	a0,802046ec <.LBB183_26+0xf0>
    80204628:	0ffdf513          	andi	a0,s11,255
    8020462c:	ed55                	bnez	a0,802046e8 <.LBB183_26+0xec>
    8020462e:	0284fb63          	bgeu	s1,s0,80204664 <.LBB183_26+0x68>
    80204632:	4d85                	li	s11,1
    80204634:	8d4e                	mv	s10,s3
    80204636:	8c26                	mv	s8,s1
    80204638:	0a998863          	beq	s3,s1,802046e8 <.LBB183_26+0xec>
    8020463c:	000bc503          	lbu	a0,0(s7)
    80204640:	c901                	beqz	a0,80204650 <.LBB183_26+0x54>
    80204642:	6522                	ld	a0,8(sp)
    80204644:	6d14                	ld	a3,24(a0)
    80204646:	4611                	li	a2,4
    80204648:	854a                	mv	a0,s2
    8020464a:	6582                	ld	a1,0(sp)
    8020464c:	9682                	jalr	a3
    8020464e:	ed59                	bnez	a0,802046ec <.LBB183_26+0xf0>
    80204650:	413c0633          	sub	a2,s8,s3
    80204654:	013a05b3          	add	a1,s4,s3
    80204658:	fb3c19e3          	bne	s8,s3,8020460a <.LBB183_26+0xe>
    8020465c:	4501                	li	a0,0
    8020465e:	bf6d                	j	80204618 <.LBB183_26+0x1c>
    80204660:	fc84e9e3          	bltu	s1,s0,80204632 <.LBB183_26+0x36>
    80204664:	40848633          	sub	a2,s1,s0
    80204668:	008a06b3          	add	a3,s4,s0
    8020466c:	03967263          	bgeu	a2,s9,80204690 <.LBB183_26+0x94>
    80204670:	4581                	li	a1,0
    80204672:	ca05                	beqz	a2,802046a2 <.LBB183_26+0xa6>
    80204674:	00b68533          	add	a0,a3,a1
    80204678:	00054503          	lbu	a0,0(a0)
    8020467c:	03650763          	beq	a0,s6,802046aa <.LBB183_26+0xae>
    80204680:	0585                	addi	a1,a1,1
    80204682:	feb619e3          	bne	a2,a1,80204674 <.LBB183_26+0x78>
    80204686:	4501                	li	a0,0
    80204688:	85b2                	mv	a1,a2
    8020468a:	03550363          	beq	a0,s5,802046b0 <.LBB183_26+0xb4>
    8020468e:	a0b9                	j	802046dc <.LBB183_26+0xe0>
    80204690:	4529                	li	a0,10
    80204692:	85b6                	mv	a1,a3
    80204694:	00001097          	auipc	ra,0x1
    80204698:	31c080e7          	jalr	796(ra) # 802059b0 <_ZN4core5slice6memchr14memchr_aligned17hb7cb49aaa6ca698aE>
    8020469c:	01550a63          	beq	a0,s5,802046b0 <.LBB183_26+0xb4>
    802046a0:	a835                	j	802046dc <.LBB183_26+0xe0>
    802046a2:	4501                	li	a0,0
    802046a4:	01550663          	beq	a0,s5,802046b0 <.LBB183_26+0xb4>
    802046a8:	a815                	j	802046dc <.LBB183_26+0xe0>
    802046aa:	4505                	li	a0,1
    802046ac:	03551863          	bne	a0,s5,802046dc <.LBB183_26+0xe0>
    802046b0:	00b40533          	add	a0,s0,a1
    802046b4:	00150413          	addi	s0,a0,1
    802046b8:	00143593          	seqz	a1,s0
    802046bc:	0084b633          	sltu	a2,s1,s0
    802046c0:	8dd1                	or	a1,a1,a2
    802046c2:	fdd9                	bnez	a1,80204660 <.LBB183_26+0x64>
    802046c4:	9552                	add	a0,a0,s4
    802046c6:	00054503          	lbu	a0,0(a0)
    802046ca:	f9651be3          	bne	a0,s6,80204660 <.LBB183_26+0x64>
    802046ce:	4d81                	li	s11,0
    802046d0:	8d22                	mv	s10,s0
    802046d2:	8c22                	mv	s8,s0
    802046d4:	000bc503          	lbu	a0,0(s7)
    802046d8:	f52d                	bnez	a0,80204642 <.LBB183_26+0x46>
    802046da:	bf9d                	j	80204650 <.LBB183_26+0x54>
    802046dc:	8426                	mv	s0,s1
    802046de:	4d85                	li	s11,1
    802046e0:	8d4e                	mv	s10,s3
    802046e2:	8c26                	mv	s8,s1
    802046e4:	f4999ce3          	bne	s3,s1,8020463c <.LBB183_26+0x40>
    802046e8:	4501                	li	a0,0
    802046ea:	a011                	j	802046ee <.LBB183_26+0xf2>
    802046ec:	4505                	li	a0,1
    802046ee:	70ea                	ld	ra,184(sp)
    802046f0:	744a                	ld	s0,176(sp)
    802046f2:	74aa                	ld	s1,168(sp)
    802046f4:	790a                	ld	s2,160(sp)
    802046f6:	69ea                	ld	s3,152(sp)
    802046f8:	6a4a                	ld	s4,144(sp)
    802046fa:	6aaa                	ld	s5,136(sp)
    802046fc:	6b0a                	ld	s6,128(sp)
    802046fe:	7be6                	ld	s7,120(sp)
    80204700:	7c46                	ld	s8,112(sp)
    80204702:	7ca6                	ld	s9,104(sp)
    80204704:	7d06                	ld	s10,96(sp)
    80204706:	6de6                	ld	s11,88(sp)
    80204708:	6129                	addi	sp,sp,192
    8020470a:	8082                	ret

000000008020470c <_ZN4core3fmt8builders11DebugStruct5field17ha0e83fa7747a7c74E>:
    8020470c:	7171                	addi	sp,sp,-176
    8020470e:	f506                	sd	ra,168(sp)
    80204710:	f122                	sd	s0,160(sp)
    80204712:	ed26                	sd	s1,152(sp)
    80204714:	e94a                	sd	s2,144(sp)
    80204716:	e54e                	sd	s3,136(sp)
    80204718:	e152                	sd	s4,128(sp)
    8020471a:	fcd6                	sd	s5,120(sp)
    8020471c:	f8da                	sd	s6,112(sp)
    8020471e:	f4de                	sd	s7,104(sp)
    80204720:	842a                	mv	s0,a0
    80204722:	00854503          	lbu	a0,8(a0)
    80204726:	4b85                	li	s7,1
    80204728:	4485                	li	s1,1
    8020472a:	c10d                	beqz	a0,8020474c <_ZN4core3fmt8builders11DebugStruct5field17ha0e83fa7747a7c74E+0x40>
    8020472c:	00940423          	sb	s1,8(s0)
    80204730:	017404a3          	sb	s7,9(s0)
    80204734:	8522                	mv	a0,s0
    80204736:	70aa                	ld	ra,168(sp)
    80204738:	740a                	ld	s0,160(sp)
    8020473a:	64ea                	ld	s1,152(sp)
    8020473c:	694a                	ld	s2,144(sp)
    8020473e:	69aa                	ld	s3,136(sp)
    80204740:	6a0a                	ld	s4,128(sp)
    80204742:	7ae6                	ld	s5,120(sp)
    80204744:	7b46                	ld	s6,112(sp)
    80204746:	7ba6                	ld	s7,104(sp)
    80204748:	614d                	addi	sp,sp,176
    8020474a:	8082                	ret
    8020474c:	89ba                	mv	s3,a4
    8020474e:	8936                	mv	s2,a3
    80204750:	8a32                	mv	s4,a2
    80204752:	8aae                	mv	s5,a1
    80204754:	00043b03          	ld	s6,0(s0)
    80204758:	030b6503          	lwu	a0,48(s6)
    8020475c:	00944583          	lbu	a1,9(s0)
    80204760:	00457613          	andi	a2,a0,4
    80204764:	ea09                	bnez	a2,80204776 <.LBB184_18+0xa>
    80204766:	0015b613          	seqz	a2,a1
    8020476a:	c1e1                	beqz	a1,8020482a <.LBB184_23>

000000008020476c <.LBB184_18>:
    8020476c:	00006597          	auipc	a1,0x6
    80204770:	7c958593          	addi	a1,a1,1993 # 8020af35 <.Lanon.5d7b72655c03d3be6c233dc0a6aa27b8.255>
    80204774:	a87d                	j	80204832 <.LBB184_23+0x8>
    80204776:	e185                	bnez	a1,80204796 <.LBB184_19+0x14>
    80204778:	008b3583          	ld	a1,8(s6)
    8020477c:	000b3503          	ld	a0,0(s6)
    80204780:	6d94                	ld	a3,24(a1)

0000000080204782 <.LBB184_19>:
    80204782:	00006597          	auipc	a1,0x6
    80204786:	7ae58593          	addi	a1,a1,1966 # 8020af30 <.Lanon.5d7b72655c03d3be6c233dc0a6aa27b8.253>
    8020478a:	460d                	li	a2,3
    8020478c:	9682                	jalr	a3
    8020478e:	4485                	li	s1,1
    80204790:	fd51                	bnez	a0,8020472c <_ZN4core3fmt8builders11DebugStruct5field17ha0e83fa7747a7c74E+0x20>
    80204792:	030b2503          	lw	a0,48(s6)
    80204796:	4485                	li	s1,1
    80204798:	029103a3          	sb	s1,39(sp)
    8020479c:	000b3583          	ld	a1,0(s6)
    802047a0:	008b3603          	ld	a2,8(s6)
    802047a4:	e42e                	sd	a1,8(sp)
    802047a6:	e832                	sd	a2,16(sp)
    802047a8:	02710593          	addi	a1,sp,39
    802047ac:	ec2e                	sd	a1,24(sp)
    802047ae:	034b2583          	lw	a1,52(s6)
    802047b2:	038b0603          	lb	a2,56(s6)
    802047b6:	010b3683          	ld	a3,16(s6)
    802047ba:	018b3703          	ld	a4,24(s6)
    802047be:	020b3783          	ld	a5,32(s6)
    802047c2:	028b3803          	ld	a6,40(s6)
    802047c6:	ccaa                	sw	a0,88(sp)
    802047c8:	ceae                	sw	a1,92(sp)
    802047ca:	06c10023          	sb	a2,96(sp)
    802047ce:	fc36                	sd	a3,56(sp)
    802047d0:	e0ba                	sd	a4,64(sp)
    802047d2:	e4be                	sd	a5,72(sp)
    802047d4:	e8c2                	sd	a6,80(sp)
    802047d6:	0028                	addi	a0,sp,8
    802047d8:	f42a                	sd	a0,40(sp)

00000000802047da <.LBB184_20>:
    802047da:	00006517          	auipc	a0,0x6
    802047de:	72650513          	addi	a0,a0,1830 # 8020af00 <.Lanon.5d7b72655c03d3be6c233dc0a6aa27b8.251>
    802047e2:	f82a                	sd	a0,48(sp)
    802047e4:	0028                	addi	a0,sp,8
    802047e6:	85d6                	mv	a1,s5
    802047e8:	8652                	mv	a2,s4
    802047ea:	00000097          	auipc	ra,0x0
    802047ee:	dd0080e7          	jalr	-560(ra) # 802045ba <_ZN68_$LT$core..fmt..builders..PadAdapter$u20$as$u20$core..fmt..Write$GT$9write_str17h00c12acf7478cdceE>
    802047f2:	fd0d                	bnez	a0,8020472c <_ZN4core3fmt8builders11DebugStruct5field17ha0e83fa7747a7c74E+0x20>

00000000802047f4 <.LBB184_21>:
    802047f4:	00006597          	auipc	a1,0x6
    802047f8:	6e458593          	addi	a1,a1,1764 # 8020aed8 <.Lanon.5d7b72655c03d3be6c233dc0a6aa27b8.249>
    802047fc:	0028                	addi	a0,sp,8
    802047fe:	4609                	li	a2,2
    80204800:	00000097          	auipc	ra,0x0
    80204804:	dba080e7          	jalr	-582(ra) # 802045ba <_ZN68_$LT$core..fmt..builders..PadAdapter$u20$as$u20$core..fmt..Write$GT$9write_str17h00c12acf7478cdceE>
    80204808:	f115                	bnez	a0,8020472c <_ZN4core3fmt8builders11DebugStruct5field17ha0e83fa7747a7c74E+0x20>
    8020480a:	0189b603          	ld	a2,24(s3)
    8020480e:	102c                	addi	a1,sp,40
    80204810:	854a                	mv	a0,s2
    80204812:	9602                	jalr	a2
    80204814:	fd01                	bnez	a0,8020472c <_ZN4core3fmt8builders11DebugStruct5field17ha0e83fa7747a7c74E+0x20>
    80204816:	75c2                	ld	a1,48(sp)
    80204818:	7522                	ld	a0,40(sp)
    8020481a:	6d94                	ld	a3,24(a1)

000000008020481c <.LBB184_22>:
    8020481c:	00006597          	auipc	a1,0x6
    80204820:	71758593          	addi	a1,a1,1815 # 8020af33 <.Lanon.5d7b72655c03d3be6c233dc0a6aa27b8.254>
    80204824:	4609                	li	a2,2
    80204826:	9682                	jalr	a3
    80204828:	a8b1                	j	80204884 <.LBB184_24+0x1c>

000000008020482a <.LBB184_23>:
    8020482a:	00006597          	auipc	a1,0x6
    8020482e:	70d58593          	addi	a1,a1,1805 # 8020af37 <.Lanon.5d7b72655c03d3be6c233dc0a6aa27b8.256>
    80204832:	008b3683          	ld	a3,8(s6)
    80204836:	000b3503          	ld	a0,0(s6)
    8020483a:	6e94                	ld	a3,24(a3)
    8020483c:	00266613          	ori	a2,a2,2
    80204840:	9682                	jalr	a3
    80204842:	4485                	li	s1,1
    80204844:	ee0514e3          	bnez	a0,8020472c <_ZN4core3fmt8builders11DebugStruct5field17ha0e83fa7747a7c74E+0x20>
    80204848:	008b3583          	ld	a1,8(s6)
    8020484c:	000b3503          	ld	a0,0(s6)
    80204850:	6d94                	ld	a3,24(a1)
    80204852:	85d6                	mv	a1,s5
    80204854:	8652                	mv	a2,s4
    80204856:	9682                	jalr	a3
    80204858:	4485                	li	s1,1
    8020485a:	ec0519e3          	bnez	a0,8020472c <_ZN4core3fmt8builders11DebugStruct5field17ha0e83fa7747a7c74E+0x20>
    8020485e:	008b3583          	ld	a1,8(s6)
    80204862:	000b3503          	ld	a0,0(s6)
    80204866:	6d94                	ld	a3,24(a1)

0000000080204868 <.LBB184_24>:
    80204868:	00006597          	auipc	a1,0x6
    8020486c:	67058593          	addi	a1,a1,1648 # 8020aed8 <.Lanon.5d7b72655c03d3be6c233dc0a6aa27b8.249>
    80204870:	4609                	li	a2,2
    80204872:	9682                	jalr	a3
    80204874:	4485                	li	s1,1
    80204876:	ea051be3          	bnez	a0,8020472c <_ZN4core3fmt8builders11DebugStruct5field17ha0e83fa7747a7c74E+0x20>
    8020487a:	0189b603          	ld	a2,24(s3)
    8020487e:	854a                	mv	a0,s2
    80204880:	85da                	mv	a1,s6
    80204882:	9602                	jalr	a2
    80204884:	84aa                	mv	s1,a0
    80204886:	b55d                	j	8020472c <_ZN4core3fmt8builders11DebugStruct5field17ha0e83fa7747a7c74E+0x20>

0000000080204888 <_ZN4core3fmt8builders10DebugTuple5field17h677b7d6bf29f0a1bE>:
    80204888:	7135                	addi	sp,sp,-160
    8020488a:	ed06                	sd	ra,152(sp)
    8020488c:	e922                	sd	s0,144(sp)
    8020488e:	e526                	sd	s1,136(sp)
    80204890:	e14a                	sd	s2,128(sp)
    80204892:	fcce                	sd	s3,120(sp)
    80204894:	f8d2                	sd	s4,112(sp)
    80204896:	f4d6                	sd	s5,104(sp)
    80204898:	842a                	mv	s0,a0
    8020489a:	01054503          	lbu	a0,16(a0)
    8020489e:	c509                	beqz	a0,802048a8 <_ZN4core3fmt8builders10DebugTuple5field17h677b7d6bf29f0a1bE+0x20>
    802048a0:	00043a83          	ld	s5,0(s0)
    802048a4:	4485                	li	s1,1
    802048a6:	a0e5                	j	8020498e <.LBB187_20+0xe>
    802048a8:	89b2                	mv	s3,a2
    802048aa:	892e                	mv	s2,a1
    802048ac:	00843a03          	ld	s4,8(s0)
    802048b0:	030a6503          	lwu	a0,48(s4)
    802048b4:	00043a83          	ld	s5,0(s0)
    802048b8:	00457593          	andi	a1,a0,4
    802048bc:	e991                	bnez	a1,802048d0 <.LBB187_16+0xa>
    802048be:	001ab613          	seqz	a2,s5
    802048c2:	020a8863          	beqz	s5,802048f2 <.LBB187_18>

00000000802048c6 <.LBB187_16>:
    802048c6:	00006597          	auipc	a1,0x6
    802048ca:	66f58593          	addi	a1,a1,1647 # 8020af35 <.Lanon.5d7b72655c03d3be6c233dc0a6aa27b8.255>
    802048ce:	a035                	j	802048fa <.LBB187_18+0x8>
    802048d0:	040a9863          	bnez	s5,80204920 <.LBB187_18+0x2e>
    802048d4:	008a3583          	ld	a1,8(s4)
    802048d8:	000a3503          	ld	a0,0(s4)
    802048dc:	6d94                	ld	a3,24(a1)

00000000802048de <.LBB187_17>:
    802048de:	00006597          	auipc	a1,0x6
    802048e2:	65f58593          	addi	a1,a1,1631 # 8020af3d <.Lanon.5d7b72655c03d3be6c233dc0a6aa27b8.262>
    802048e6:	4609                	li	a2,2
    802048e8:	9682                	jalr	a3
    802048ea:	c90d                	beqz	a0,8020491c <.LBB187_18+0x2a>
    802048ec:	4a81                	li	s5,0
    802048ee:	4485                	li	s1,1
    802048f0:	a879                	j	8020498e <.LBB187_20+0xe>

00000000802048f2 <.LBB187_18>:
    802048f2:	00006597          	auipc	a1,0x6
    802048f6:	64d58593          	addi	a1,a1,1613 # 8020af3f <.Lanon.5d7b72655c03d3be6c233dc0a6aa27b8.263>
    802048fa:	008a3683          	ld	a3,8(s4)
    802048fe:	000a3503          	ld	a0,0(s4)
    80204902:	6e94                	ld	a3,24(a3)
    80204904:	4709                	li	a4,2
    80204906:	40c70633          	sub	a2,a4,a2
    8020490a:	9682                	jalr	a3
    8020490c:	4485                	li	s1,1
    8020490e:	e141                	bnez	a0,8020498e <.LBB187_20+0xe>
    80204910:	0189b603          	ld	a2,24(s3)
    80204914:	854a                	mv	a0,s2
    80204916:	85d2                	mv	a1,s4
    80204918:	9602                	jalr	a2
    8020491a:	a88d                	j	8020498c <.LBB187_20+0xc>
    8020491c:	030a2503          	lw	a0,48(s4)
    80204920:	4485                	li	s1,1
    80204922:	029103a3          	sb	s1,39(sp)
    80204926:	000a3583          	ld	a1,0(s4)
    8020492a:	008a3603          	ld	a2,8(s4)
    8020492e:	e42e                	sd	a1,8(sp)
    80204930:	e832                	sd	a2,16(sp)
    80204932:	02710593          	addi	a1,sp,39
    80204936:	ec2e                	sd	a1,24(sp)
    80204938:	034a2583          	lw	a1,52(s4)
    8020493c:	038a0603          	lb	a2,56(s4)
    80204940:	010a3683          	ld	a3,16(s4)
    80204944:	018a3703          	ld	a4,24(s4)
    80204948:	020a3783          	ld	a5,32(s4)
    8020494c:	028a3803          	ld	a6,40(s4)
    80204950:	ccaa                	sw	a0,88(sp)
    80204952:	ceae                	sw	a1,92(sp)
    80204954:	06c10023          	sb	a2,96(sp)
    80204958:	fc36                	sd	a3,56(sp)
    8020495a:	e0ba                	sd	a4,64(sp)
    8020495c:	e4be                	sd	a5,72(sp)
    8020495e:	e8c2                	sd	a6,80(sp)
    80204960:	0028                	addi	a0,sp,8
    80204962:	0189b603          	ld	a2,24(s3)
    80204966:	f42a                	sd	a0,40(sp)

0000000080204968 <.LBB187_19>:
    80204968:	00006517          	auipc	a0,0x6
    8020496c:	59850513          	addi	a0,a0,1432 # 8020af00 <.Lanon.5d7b72655c03d3be6c233dc0a6aa27b8.251>
    80204970:	f82a                	sd	a0,48(sp)
    80204972:	102c                	addi	a1,sp,40
    80204974:	854a                	mv	a0,s2
    80204976:	9602                	jalr	a2
    80204978:	e919                	bnez	a0,8020498e <.LBB187_20+0xe>
    8020497a:	75c2                	ld	a1,48(sp)
    8020497c:	7522                	ld	a0,40(sp)
    8020497e:	6d94                	ld	a3,24(a1)

0000000080204980 <.LBB187_20>:
    80204980:	00006597          	auipc	a1,0x6
    80204984:	5b358593          	addi	a1,a1,1459 # 8020af33 <.Lanon.5d7b72655c03d3be6c233dc0a6aa27b8.254>
    80204988:	4609                	li	a2,2
    8020498a:	9682                	jalr	a3
    8020498c:	84aa                	mv	s1,a0
    8020498e:	00940823          	sb	s1,16(s0)
    80204992:	001a8513          	addi	a0,s5,1
    80204996:	e008                	sd	a0,0(s0)
    80204998:	8522                	mv	a0,s0
    8020499a:	60ea                	ld	ra,152(sp)
    8020499c:	644a                	ld	s0,144(sp)
    8020499e:	64aa                	ld	s1,136(sp)
    802049a0:	690a                	ld	s2,128(sp)
    802049a2:	79e6                	ld	s3,120(sp)
    802049a4:	7a46                	ld	s4,112(sp)
    802049a6:	7aa6                	ld	s5,104(sp)
    802049a8:	610d                	addi	sp,sp,160
    802049aa:	8082                	ret

00000000802049ac <_ZN4core3fmt8builders10DebugInner5entry17hdc2566941abf27d8E>:
    802049ac:	7135                	addi	sp,sp,-160
    802049ae:	ed06                	sd	ra,152(sp)
    802049b0:	e922                	sd	s0,144(sp)
    802049b2:	e526                	sd	s1,136(sp)
    802049b4:	e14a                	sd	s2,128(sp)
    802049b6:	fcce                	sd	s3,120(sp)
    802049b8:	f8d2                	sd	s4,112(sp)
    802049ba:	f4d6                	sd	s5,104(sp)
    802049bc:	842a                	mv	s0,a0
    802049be:	00854503          	lbu	a0,8(a0)
    802049c2:	4a85                	li	s5,1
    802049c4:	4485                	li	s1,1
    802049c6:	cd11                	beqz	a0,802049e2 <_ZN4core3fmt8builders10DebugInner5entry17hdc2566941abf27d8E+0x36>
    802049c8:	00940423          	sb	s1,8(s0)
    802049cc:	015404a3          	sb	s5,9(s0)
    802049d0:	60ea                	ld	ra,152(sp)
    802049d2:	644a                	ld	s0,144(sp)
    802049d4:	64aa                	ld	s1,136(sp)
    802049d6:	690a                	ld	s2,128(sp)
    802049d8:	79e6                	ld	s3,120(sp)
    802049da:	7a46                	ld	s4,112(sp)
    802049dc:	7aa6                	ld	s5,104(sp)
    802049de:	610d                	addi	sp,sp,160
    802049e0:	8082                	ret
    802049e2:	89b2                	mv	s3,a2
    802049e4:	892e                	mv	s2,a1
    802049e6:	00043a03          	ld	s4,0(s0)
    802049ea:	030a6503          	lwu	a0,48(s4)
    802049ee:	00944583          	lbu	a1,9(s0)
    802049f2:	00457613          	andi	a2,a0,4
    802049f6:	e615                	bnez	a2,80204a22 <.LBB189_11+0x1e>
    802049f8:	cd91                	beqz	a1,80204a14 <.LBB189_11+0x10>
    802049fa:	008a3583          	ld	a1,8(s4)
    802049fe:	000a3503          	ld	a0,0(s4)
    80204a02:	6d94                	ld	a3,24(a1)

0000000080204a04 <.LBB189_11>:
    80204a04:	00006597          	auipc	a1,0x6
    80204a08:	53158593          	addi	a1,a1,1329 # 8020af35 <.Lanon.5d7b72655c03d3be6c233dc0a6aa27b8.255>
    80204a0c:	4609                	li	a2,2
    80204a0e:	9682                	jalr	a3
    80204a10:	4485                	li	s1,1
    80204a12:	f95d                	bnez	a0,802049c8 <_ZN4core3fmt8builders10DebugInner5entry17hdc2566941abf27d8E+0x1c>
    80204a14:	0189b603          	ld	a2,24(s3)
    80204a18:	854a                	mv	a0,s2
    80204a1a:	85d2                	mv	a1,s4
    80204a1c:	9602                	jalr	a2
    80204a1e:	84aa                	mv	s1,a0
    80204a20:	b765                	j	802049c8 <_ZN4core3fmt8builders10DebugInner5entry17hdc2566941abf27d8E+0x1c>
    80204a22:	e185                	bnez	a1,80204a42 <.LBB189_12+0x14>
    80204a24:	008a3583          	ld	a1,8(s4)
    80204a28:	000a3503          	ld	a0,0(s4)
    80204a2c:	6d94                	ld	a3,24(a1)

0000000080204a2e <.LBB189_12>:
    80204a2e:	00006597          	auipc	a1,0x6
    80204a32:	51358593          	addi	a1,a1,1299 # 8020af41 <.Lanon.5d7b72655c03d3be6c233dc0a6aa27b8.265>
    80204a36:	4605                	li	a2,1
    80204a38:	4485                	li	s1,1
    80204a3a:	9682                	jalr	a3
    80204a3c:	f551                	bnez	a0,802049c8 <_ZN4core3fmt8builders10DebugInner5entry17hdc2566941abf27d8E+0x1c>
    80204a3e:	030a2503          	lw	a0,48(s4)
    80204a42:	4485                	li	s1,1
    80204a44:	029103a3          	sb	s1,39(sp)
    80204a48:	000a3583          	ld	a1,0(s4)
    80204a4c:	008a3603          	ld	a2,8(s4)
    80204a50:	e42e                	sd	a1,8(sp)
    80204a52:	e832                	sd	a2,16(sp)
    80204a54:	02710593          	addi	a1,sp,39
    80204a58:	ec2e                	sd	a1,24(sp)
    80204a5a:	034a2583          	lw	a1,52(s4)
    80204a5e:	038a0603          	lb	a2,56(s4)
    80204a62:	010a3683          	ld	a3,16(s4)
    80204a66:	018a3703          	ld	a4,24(s4)
    80204a6a:	020a3783          	ld	a5,32(s4)
    80204a6e:	028a3803          	ld	a6,40(s4)
    80204a72:	ccaa                	sw	a0,88(sp)
    80204a74:	ceae                	sw	a1,92(sp)
    80204a76:	06c10023          	sb	a2,96(sp)
    80204a7a:	fc36                	sd	a3,56(sp)
    80204a7c:	e0ba                	sd	a4,64(sp)
    80204a7e:	e4be                	sd	a5,72(sp)
    80204a80:	e8c2                	sd	a6,80(sp)
    80204a82:	0028                	addi	a0,sp,8
    80204a84:	0189b603          	ld	a2,24(s3)
    80204a88:	f42a                	sd	a0,40(sp)

0000000080204a8a <.LBB189_13>:
    80204a8a:	00006517          	auipc	a0,0x6
    80204a8e:	47650513          	addi	a0,a0,1142 # 8020af00 <.Lanon.5d7b72655c03d3be6c233dc0a6aa27b8.251>
    80204a92:	f82a                	sd	a0,48(sp)
    80204a94:	102c                	addi	a1,sp,40
    80204a96:	854a                	mv	a0,s2
    80204a98:	9602                	jalr	a2
    80204a9a:	f51d                	bnez	a0,802049c8 <_ZN4core3fmt8builders10DebugInner5entry17hdc2566941abf27d8E+0x1c>
    80204a9c:	75c2                	ld	a1,48(sp)
    80204a9e:	7522                	ld	a0,40(sp)
    80204aa0:	6d94                	ld	a3,24(a1)

0000000080204aa2 <.LBB189_14>:
    80204aa2:	00006597          	auipc	a1,0x6
    80204aa6:	49158593          	addi	a1,a1,1169 # 8020af33 <.Lanon.5d7b72655c03d3be6c233dc0a6aa27b8.254>
    80204aaa:	4609                	li	a2,2
    80204aac:	9682                	jalr	a3
    80204aae:	84aa                	mv	s1,a0
    80204ab0:	bf21                	j	802049c8 <_ZN4core3fmt8builders10DebugInner5entry17hdc2566941abf27d8E+0x1c>

0000000080204ab2 <_ZN4core3fmt8builders8DebugSet5entry17hc5f0804df0ae9f4cE>:
    80204ab2:	1141                	addi	sp,sp,-16
    80204ab4:	e406                	sd	ra,8(sp)
    80204ab6:	e022                	sd	s0,0(sp)
    80204ab8:	842a                	mv	s0,a0
    80204aba:	00000097          	auipc	ra,0x0
    80204abe:	ef2080e7          	jalr	-270(ra) # 802049ac <_ZN4core3fmt8builders10DebugInner5entry17hdc2566941abf27d8E>
    80204ac2:	8522                	mv	a0,s0
    80204ac4:	60a2                	ld	ra,8(sp)
    80204ac6:	6402                	ld	s0,0(sp)
    80204ac8:	0141                	addi	sp,sp,16
    80204aca:	8082                	ret

0000000080204acc <_ZN4core3fmt8builders9DebugList6finish17hcc956528ee4f94aaE>:
    80204acc:	00854583          	lbu	a1,8(a0)
    80204ad0:	c199                	beqz	a1,80204ad6 <_ZN4core3fmt8builders9DebugList6finish17hcc956528ee4f94aaE+0xa>
    80204ad2:	4505                	li	a0,1
    80204ad4:	8082                	ret
    80204ad6:	6108                	ld	a0,0(a0)
    80204ad8:	650c                	ld	a1,8(a0)
    80204ada:	6108                	ld	a0,0(a0)
    80204adc:	6d9c                	ld	a5,24(a1)

0000000080204ade <.LBB192_3>:
    80204ade:	00006597          	auipc	a1,0x6
    80204ae2:	48a58593          	addi	a1,a1,1162 # 8020af68 <.Lanon.5d7b72655c03d3be6c233dc0a6aa27b8.271>
    80204ae6:	4605                	li	a2,1
    80204ae8:	8782                	jr	a5

0000000080204aea <_ZN4core3fmt5Write10write_char17h0935c44e9832f7afE>:
    80204aea:	1141                	addi	sp,sp,-16
    80204aec:	e406                	sd	ra,8(sp)
    80204aee:	0005861b          	sext.w	a2,a1
    80204af2:	08000693          	li	a3,128
    80204af6:	c202                	sw	zero,4(sp)
    80204af8:	00d67663          	bgeu	a2,a3,80204b04 <_ZN4core3fmt5Write10write_char17h0935c44e9832f7afE+0x1a>
    80204afc:	00b10223          	sb	a1,4(sp)
    80204b00:	4605                	li	a2,1
    80204b02:	a851                	j	80204b96 <_ZN4core3fmt5Write10write_char17h0935c44e9832f7afE+0xac>
    80204b04:	00b5d61b          	srliw	a2,a1,0xb
    80204b08:	ee19                	bnez	a2,80204b26 <_ZN4core3fmt5Write10write_char17h0935c44e9832f7afE+0x3c>
    80204b0a:	0065d613          	srli	a2,a1,0x6
    80204b0e:	0c066613          	ori	a2,a2,192
    80204b12:	00c10223          	sb	a2,4(sp)
    80204b16:	03f5f593          	andi	a1,a1,63
    80204b1a:	0805e593          	ori	a1,a1,128
    80204b1e:	00b102a3          	sb	a1,5(sp)
    80204b22:	4609                	li	a2,2
    80204b24:	a88d                	j	80204b96 <_ZN4core3fmt5Write10write_char17h0935c44e9832f7afE+0xac>
    80204b26:	0105d61b          	srliw	a2,a1,0x10
    80204b2a:	ea05                	bnez	a2,80204b5a <_ZN4core3fmt5Write10write_char17h0935c44e9832f7afE+0x70>
    80204b2c:	02059613          	slli	a2,a1,0x20
    80204b30:	9201                	srli	a2,a2,0x20
    80204b32:	00c5d69b          	srliw	a3,a1,0xc
    80204b36:	0e06e693          	ori	a3,a3,224
    80204b3a:	00d10223          	sb	a3,4(sp)
    80204b3e:	1652                	slli	a2,a2,0x34
    80204b40:	9269                	srli	a2,a2,0x3a
    80204b42:	08066613          	ori	a2,a2,128
    80204b46:	00c102a3          	sb	a2,5(sp)
    80204b4a:	03f5f593          	andi	a1,a1,63
    80204b4e:	0805e593          	ori	a1,a1,128
    80204b52:	00b10323          	sb	a1,6(sp)
    80204b56:	460d                	li	a2,3
    80204b58:	a83d                	j	80204b96 <_ZN4core3fmt5Write10write_char17h0935c44e9832f7afE+0xac>
    80204b5a:	02059613          	slli	a2,a1,0x20
    80204b5e:	9201                	srli	a2,a2,0x20
    80204b60:	02b61693          	slli	a3,a2,0x2b
    80204b64:	92f5                	srli	a3,a3,0x3d
    80204b66:	0f06e693          	ori	a3,a3,240
    80204b6a:	00d10223          	sb	a3,4(sp)
    80204b6e:	02e61693          	slli	a3,a2,0x2e
    80204b72:	92e9                	srli	a3,a3,0x3a
    80204b74:	0806e693          	ori	a3,a3,128
    80204b78:	00d102a3          	sb	a3,5(sp)
    80204b7c:	1652                	slli	a2,a2,0x34
    80204b7e:	9269                	srli	a2,a2,0x3a
    80204b80:	08066613          	ori	a2,a2,128
    80204b84:	00c10323          	sb	a2,6(sp)
    80204b88:	03f5f593          	andi	a1,a1,63
    80204b8c:	0805e593          	ori	a1,a1,128
    80204b90:	00b103a3          	sb	a1,7(sp)
    80204b94:	4611                	li	a2,4
    80204b96:	004c                	addi	a1,sp,4
    80204b98:	00000097          	auipc	ra,0x0
    80204b9c:	a22080e7          	jalr	-1502(ra) # 802045ba <_ZN68_$LT$core..fmt..builders..PadAdapter$u20$as$u20$core..fmt..Write$GT$9write_str17h00c12acf7478cdceE>
    80204ba0:	60a2                	ld	ra,8(sp)
    80204ba2:	0141                	addi	sp,sp,16
    80204ba4:	8082                	ret

0000000080204ba6 <_ZN4core3fmt5Write9write_fmt17h034a4ff4b8bb18e2E>:
    80204ba6:	7139                	addi	sp,sp,-64
    80204ba8:	fc06                	sd	ra,56(sp)
    80204baa:	7590                	ld	a2,40(a1)
    80204bac:	7194                	ld	a3,32(a1)
    80204bae:	e02a                	sd	a0,0(sp)
    80204bb0:	f832                	sd	a2,48(sp)
    80204bb2:	f436                	sd	a3,40(sp)
    80204bb4:	6d88                	ld	a0,24(a1)
    80204bb6:	6990                	ld	a2,16(a1)
    80204bb8:	6594                	ld	a3,8(a1)
    80204bba:	618c                	ld	a1,0(a1)
    80204bbc:	f02a                	sd	a0,32(sp)
    80204bbe:	ec32                	sd	a2,24(sp)
    80204bc0:	e836                	sd	a3,16(sp)
    80204bc2:	e42e                	sd	a1,8(sp)

0000000080204bc4 <.LBB210_1>:
    80204bc4:	00006597          	auipc	a1,0x6
    80204bc8:	4ac58593          	addi	a1,a1,1196 # 8020b070 <.Lanon.5d7b72655c03d3be6c233dc0a6aa27b8.290>
    80204bcc:	850a                	mv	a0,sp
    80204bce:	0030                	addi	a2,sp,8
    80204bd0:	00000097          	auipc	ra,0x0
    80204bd4:	142080e7          	jalr	322(ra) # 80204d12 <_ZN4core3fmt5write17h42fcd7b837de3f75E>
    80204bd8:	70e2                	ld	ra,56(sp)
    80204bda:	6121                	addi	sp,sp,64
    80204bdc:	8082                	ret

0000000080204bde <_ZN50_$LT$$RF$mut$u20$W$u20$as$u20$core..fmt..Write$GT$9write_str17h6fc98956e2bba6c6E>:
    80204bde:	6108                	ld	a0,0(a0)
    80204be0:	00000317          	auipc	t1,0x0
    80204be4:	9da30067          	jr	-1574(t1) # 802045ba <_ZN68_$LT$core..fmt..builders..PadAdapter$u20$as$u20$core..fmt..Write$GT$9write_str17h00c12acf7478cdceE>

0000000080204be8 <_ZN50_$LT$$RF$mut$u20$W$u20$as$u20$core..fmt..Write$GT$10write_char17hd06c6dea4ceba69fE>:
    80204be8:	1141                	addi	sp,sp,-16
    80204bea:	e406                	sd	ra,8(sp)
    80204bec:	6108                	ld	a0,0(a0)
    80204bee:	0005861b          	sext.w	a2,a1
    80204bf2:	08000693          	li	a3,128
    80204bf6:	c202                	sw	zero,4(sp)
    80204bf8:	00d67663          	bgeu	a2,a3,80204c04 <_ZN50_$LT$$RF$mut$u20$W$u20$as$u20$core..fmt..Write$GT$10write_char17hd06c6dea4ceba69fE+0x1c>
    80204bfc:	00b10223          	sb	a1,4(sp)
    80204c00:	4605                	li	a2,1
    80204c02:	a851                	j	80204c96 <_ZN50_$LT$$RF$mut$u20$W$u20$as$u20$core..fmt..Write$GT$10write_char17hd06c6dea4ceba69fE+0xae>
    80204c04:	00b5d61b          	srliw	a2,a1,0xb
    80204c08:	ee19                	bnez	a2,80204c26 <_ZN50_$LT$$RF$mut$u20$W$u20$as$u20$core..fmt..Write$GT$10write_char17hd06c6dea4ceba69fE+0x3e>
    80204c0a:	0065d613          	srli	a2,a1,0x6
    80204c0e:	0c066613          	ori	a2,a2,192
    80204c12:	00c10223          	sb	a2,4(sp)
    80204c16:	03f5f593          	andi	a1,a1,63
    80204c1a:	0805e593          	ori	a1,a1,128
    80204c1e:	00b102a3          	sb	a1,5(sp)
    80204c22:	4609                	li	a2,2
    80204c24:	a88d                	j	80204c96 <_ZN50_$LT$$RF$mut$u20$W$u20$as$u20$core..fmt..Write$GT$10write_char17hd06c6dea4ceba69fE+0xae>
    80204c26:	0105d61b          	srliw	a2,a1,0x10
    80204c2a:	ea05                	bnez	a2,80204c5a <_ZN50_$LT$$RF$mut$u20$W$u20$as$u20$core..fmt..Write$GT$10write_char17hd06c6dea4ceba69fE+0x72>
    80204c2c:	02059613          	slli	a2,a1,0x20
    80204c30:	9201                	srli	a2,a2,0x20
    80204c32:	00c5d69b          	srliw	a3,a1,0xc
    80204c36:	0e06e693          	ori	a3,a3,224
    80204c3a:	00d10223          	sb	a3,4(sp)
    80204c3e:	1652                	slli	a2,a2,0x34
    80204c40:	9269                	srli	a2,a2,0x3a
    80204c42:	08066613          	ori	a2,a2,128
    80204c46:	00c102a3          	sb	a2,5(sp)
    80204c4a:	03f5f593          	andi	a1,a1,63
    80204c4e:	0805e593          	ori	a1,a1,128
    80204c52:	00b10323          	sb	a1,6(sp)
    80204c56:	460d                	li	a2,3
    80204c58:	a83d                	j	80204c96 <_ZN50_$LT$$RF$mut$u20$W$u20$as$u20$core..fmt..Write$GT$10write_char17hd06c6dea4ceba69fE+0xae>
    80204c5a:	02059613          	slli	a2,a1,0x20
    80204c5e:	9201                	srli	a2,a2,0x20
    80204c60:	02b61693          	slli	a3,a2,0x2b
    80204c64:	92f5                	srli	a3,a3,0x3d
    80204c66:	0f06e693          	ori	a3,a3,240
    80204c6a:	00d10223          	sb	a3,4(sp)
    80204c6e:	02e61693          	slli	a3,a2,0x2e
    80204c72:	92e9                	srli	a3,a3,0x3a
    80204c74:	0806e693          	ori	a3,a3,128
    80204c78:	00d102a3          	sb	a3,5(sp)
    80204c7c:	1652                	slli	a2,a2,0x34
    80204c7e:	9269                	srli	a2,a2,0x3a
    80204c80:	08066613          	ori	a2,a2,128
    80204c84:	00c10323          	sb	a2,6(sp)
    80204c88:	03f5f593          	andi	a1,a1,63
    80204c8c:	0805e593          	ori	a1,a1,128
    80204c90:	00b103a3          	sb	a1,7(sp)
    80204c94:	4611                	li	a2,4
    80204c96:	004c                	addi	a1,sp,4
    80204c98:	00000097          	auipc	ra,0x0
    80204c9c:	922080e7          	jalr	-1758(ra) # 802045ba <_ZN68_$LT$core..fmt..builders..PadAdapter$u20$as$u20$core..fmt..Write$GT$9write_str17h00c12acf7478cdceE>
    80204ca0:	60a2                	ld	ra,8(sp)
    80204ca2:	0141                	addi	sp,sp,16
    80204ca4:	8082                	ret

0000000080204ca6 <_ZN50_$LT$$RF$mut$u20$W$u20$as$u20$core..fmt..Write$GT$9write_fmt17h06062d83efbc924aE>:
    80204ca6:	7139                	addi	sp,sp,-64
    80204ca8:	fc06                	sd	ra,56(sp)
    80204caa:	6108                	ld	a0,0(a0)
    80204cac:	7590                	ld	a2,40(a1)
    80204cae:	7194                	ld	a3,32(a1)
    80204cb0:	e02a                	sd	a0,0(sp)
    80204cb2:	f832                	sd	a2,48(sp)
    80204cb4:	f436                	sd	a3,40(sp)
    80204cb6:	6d88                	ld	a0,24(a1)
    80204cb8:	6990                	ld	a2,16(a1)
    80204cba:	6594                	ld	a3,8(a1)
    80204cbc:	618c                	ld	a1,0(a1)
    80204cbe:	f02a                	sd	a0,32(sp)
    80204cc0:	ec32                	sd	a2,24(sp)
    80204cc2:	e836                	sd	a3,16(sp)
    80204cc4:	e42e                	sd	a1,8(sp)

0000000080204cc6 <.LBB213_1>:
    80204cc6:	00006597          	auipc	a1,0x6
    80204cca:	3aa58593          	addi	a1,a1,938 # 8020b070 <.Lanon.5d7b72655c03d3be6c233dc0a6aa27b8.290>
    80204cce:	850a                	mv	a0,sp
    80204cd0:	0030                	addi	a2,sp,8
    80204cd2:	00000097          	auipc	ra,0x0
    80204cd6:	040080e7          	jalr	64(ra) # 80204d12 <_ZN4core3fmt5write17h42fcd7b837de3f75E>
    80204cda:	70e2                	ld	ra,56(sp)
    80204cdc:	6121                	addi	sp,sp,64
    80204cde:	8082                	ret

0000000080204ce0 <_ZN59_$LT$core..fmt..Arguments$u20$as$u20$core..fmt..Display$GT$3fmt17h14b26a2a8d914ef0E>:
    80204ce0:	7139                	addi	sp,sp,-64
    80204ce2:	fc06                	sd	ra,56(sp)
    80204ce4:	7510                	ld	a2,40(a0)
    80204ce6:	7118                	ld	a4,32(a0)
    80204ce8:	6d1c                	ld	a5,24(a0)
    80204cea:	f832                	sd	a2,48(sp)
    80204cec:	6194                	ld	a3,0(a1)
    80204cee:	f43a                	sd	a4,40(sp)
    80204cf0:	f03e                	sd	a5,32(sp)
    80204cf2:	6910                	ld	a2,16(a0)
    80204cf4:	6518                	ld	a4,8(a0)
    80204cf6:	6108                	ld	a0,0(a0)
    80204cf8:	658c                	ld	a1,8(a1)
    80204cfa:	ec32                	sd	a2,24(sp)
    80204cfc:	e83a                	sd	a4,16(sp)
    80204cfe:	e42a                	sd	a0,8(sp)
    80204d00:	0030                	addi	a2,sp,8
    80204d02:	8536                	mv	a0,a3
    80204d04:	00000097          	auipc	ra,0x0
    80204d08:	00e080e7          	jalr	14(ra) # 80204d12 <_ZN4core3fmt5write17h42fcd7b837de3f75E>
    80204d0c:	70e2                	ld	ra,56(sp)
    80204d0e:	6121                	addi	sp,sp,64
    80204d10:	8082                	ret

0000000080204d12 <_ZN4core3fmt5write17h42fcd7b837de3f75E>:
    80204d12:	7119                	addi	sp,sp,-128
    80204d14:	fc86                	sd	ra,120(sp)
    80204d16:	f8a2                	sd	s0,112(sp)
    80204d18:	f4a6                	sd	s1,104(sp)
    80204d1a:	f0ca                	sd	s2,96(sp)
    80204d1c:	ecce                	sd	s3,88(sp)
    80204d1e:	e8d2                	sd	s4,80(sp)
    80204d20:	e4d6                	sd	s5,72(sp)
    80204d22:	e0da                	sd	s6,64(sp)
    80204d24:	89b2                	mv	s3,a2
    80204d26:	4605                	li	a2,1
    80204d28:	1616                	slli	a2,a2,0x25
    80204d2a:	f832                	sd	a2,48(sp)
    80204d2c:	460d                	li	a2,3
    80204d2e:	02c10c23          	sb	a2,56(sp)
    80204d32:	0009b603          	ld	a2,0(s3)
    80204d36:	e802                	sd	zero,16(sp)
    80204d38:	f002                	sd	zero,32(sp)
    80204d3a:	e02a                	sd	a0,0(sp)
    80204d3c:	e42e                	sd	a1,8(sp)
    80204d3e:	c669                	beqz	a2,80204e08 <.LBB218_31+0x9e>
    80204d40:	0089b503          	ld	a0,8(s3)
    80204d44:	10050e63          	beqz	a0,80204e60 <.LBB218_31+0xf6>
    80204d48:	0109b583          	ld	a1,16(s3)
    80204d4c:	fff50693          	addi	a3,a0,-1
    80204d50:	068e                	slli	a3,a3,0x3
    80204d52:	828d                	srli	a3,a3,0x3
    80204d54:	00168913          	addi	s2,a3,1
    80204d58:	00858493          	addi	s1,a1,8
    80204d5c:	03800593          	li	a1,56
    80204d60:	02b50a33          	mul	s4,a0,a1
    80204d64:	01860413          	addi	s0,a2,24
    80204d68:	4a85                	li	s5,1

0000000080204d6a <.LBB218_31>:
    80204d6a:	fffffb17          	auipc	s6,0xfffff
    80204d6e:	5aab0b13          	addi	s6,s6,1450 # 80204314 <_ZN4core3ops8function6FnOnce9call_once17hfd3303d23173549bE>
    80204d72:	6090                	ld	a2,0(s1)
    80204d74:	ca09                	beqz	a2,80204d86 <.LBB218_31+0x1c>
    80204d76:	66a2                	ld	a3,8(sp)
    80204d78:	6502                	ld	a0,0(sp)
    80204d7a:	ff84b583          	ld	a1,-8(s1)
    80204d7e:	6e94                	ld	a3,24(a3)
    80204d80:	9682                	jalr	a3
    80204d82:	10051163          	bnez	a0,80204e84 <.LBB218_31+0x11a>
    80204d86:	4448                	lw	a0,12(s0)
    80204d88:	da2a                	sw	a0,52(sp)
    80204d8a:	01040503          	lb	a0,16(s0)
    80204d8e:	02a10c23          	sb	a0,56(sp)
    80204d92:	440c                	lw	a1,8(s0)
    80204d94:	0209b503          	ld	a0,32(s3)
    80204d98:	d82e                	sw	a1,48(sp)
    80204d9a:	ff843683          	ld	a3,-8(s0)
    80204d9e:	600c                	ld	a1,0(s0)
    80204da0:	ce89                	beqz	a3,80204dba <.LBB218_31+0x50>
    80204da2:	4601                	li	a2,0
    80204da4:	01569c63          	bne	a3,s5,80204dbc <.LBB218_31+0x52>
    80204da8:	0592                	slli	a1,a1,0x4
    80204daa:	95aa                	add	a1,a1,a0
    80204dac:	6590                	ld	a2,8(a1)
    80204dae:	01660463          	beq	a2,s6,80204db6 <.LBB218_31+0x4c>
    80204db2:	4601                	li	a2,0
    80204db4:	a021                	j	80204dbc <.LBB218_31+0x52>
    80204db6:	618c                	ld	a1,0(a1)
    80204db8:	618c                	ld	a1,0(a1)
    80204dba:	4605                	li	a2,1
    80204dbc:	e832                	sd	a2,16(sp)
    80204dbe:	ec2e                	sd	a1,24(sp)
    80204dc0:	fe843683          	ld	a3,-24(s0)
    80204dc4:	ff043583          	ld	a1,-16(s0)
    80204dc8:	ce89                	beqz	a3,80204de2 <.LBB218_31+0x78>
    80204dca:	4601                	li	a2,0
    80204dcc:	01569c63          	bne	a3,s5,80204de4 <.LBB218_31+0x7a>
    80204dd0:	0592                	slli	a1,a1,0x4
    80204dd2:	95aa                	add	a1,a1,a0
    80204dd4:	6590                	ld	a2,8(a1)
    80204dd6:	01660463          	beq	a2,s6,80204dde <.LBB218_31+0x74>
    80204dda:	4601                	li	a2,0
    80204ddc:	a021                	j	80204de4 <.LBB218_31+0x7a>
    80204dde:	618c                	ld	a1,0(a1)
    80204de0:	618c                	ld	a1,0(a1)
    80204de2:	4605                	li	a2,1
    80204de4:	f032                	sd	a2,32(sp)
    80204de6:	f42e                	sd	a1,40(sp)
    80204de8:	6c0c                	ld	a1,24(s0)
    80204dea:	0592                	slli	a1,a1,0x4
    80204dec:	952e                	add	a0,a0,a1
    80204dee:	6510                	ld	a2,8(a0)
    80204df0:	6108                	ld	a0,0(a0)
    80204df2:	858a                	mv	a1,sp
    80204df4:	9602                	jalr	a2
    80204df6:	e559                	bnez	a0,80204e84 <.LBB218_31+0x11a>
    80204df8:	04c1                	addi	s1,s1,16
    80204dfa:	fc8a0a13          	addi	s4,s4,-56
    80204dfe:	03840413          	addi	s0,s0,56
    80204e02:	f60a18e3          	bnez	s4,80204d72 <.LBB218_31+0x8>
    80204e06:	a881                	j	80204e56 <.LBB218_31+0xec>
    80204e08:	0289b503          	ld	a0,40(s3)
    80204e0c:	c931                	beqz	a0,80204e60 <.LBB218_31+0xf6>
    80204e0e:	0209b583          	ld	a1,32(s3)
    80204e12:	0109b603          	ld	a2,16(s3)
    80204e16:	fff50693          	addi	a3,a0,-1
    80204e1a:	0692                	slli	a3,a3,0x4
    80204e1c:	8291                	srli	a3,a3,0x4
    80204e1e:	00168913          	addi	s2,a3,1
    80204e22:	00860413          	addi	s0,a2,8
    80204e26:	00451a13          	slli	s4,a0,0x4
    80204e2a:	00858493          	addi	s1,a1,8
    80204e2e:	6010                	ld	a2,0(s0)
    80204e30:	ca01                	beqz	a2,80204e40 <.LBB218_31+0xd6>
    80204e32:	66a2                	ld	a3,8(sp)
    80204e34:	6502                	ld	a0,0(sp)
    80204e36:	ff843583          	ld	a1,-8(s0)
    80204e3a:	6e94                	ld	a3,24(a3)
    80204e3c:	9682                	jalr	a3
    80204e3e:	e139                	bnez	a0,80204e84 <.LBB218_31+0x11a>
    80204e40:	6090                	ld	a2,0(s1)
    80204e42:	ff84b503          	ld	a0,-8(s1)
    80204e46:	858a                	mv	a1,sp
    80204e48:	9602                	jalr	a2
    80204e4a:	ed0d                	bnez	a0,80204e84 <.LBB218_31+0x11a>
    80204e4c:	0441                	addi	s0,s0,16
    80204e4e:	1a41                	addi	s4,s4,-16
    80204e50:	04c1                	addi	s1,s1,16
    80204e52:	fc0a1ee3          	bnez	s4,80204e2e <.LBB218_31+0xc4>
    80204e56:	0189b503          	ld	a0,24(s3)
    80204e5a:	00a96863          	bltu	s2,a0,80204e6a <.LBB218_31+0x100>
    80204e5e:	a02d                	j	80204e88 <.LBB218_31+0x11e>
    80204e60:	4901                	li	s2,0
    80204e62:	0189b503          	ld	a0,24(s3)
    80204e66:	02a97163          	bgeu	s2,a0,80204e88 <.LBB218_31+0x11e>
    80204e6a:	0109b503          	ld	a0,16(s3)
    80204e6e:	00491593          	slli	a1,s2,0x4
    80204e72:	00b50633          	add	a2,a0,a1
    80204e76:	66a2                	ld	a3,8(sp)
    80204e78:	6502                	ld	a0,0(sp)
    80204e7a:	620c                	ld	a1,0(a2)
    80204e7c:	6610                	ld	a2,8(a2)
    80204e7e:	6e94                	ld	a3,24(a3)
    80204e80:	9682                	jalr	a3
    80204e82:	c119                	beqz	a0,80204e88 <.LBB218_31+0x11e>
    80204e84:	4505                	li	a0,1
    80204e86:	a011                	j	80204e8a <.LBB218_31+0x120>
    80204e88:	4501                	li	a0,0
    80204e8a:	70e6                	ld	ra,120(sp)
    80204e8c:	7446                	ld	s0,112(sp)
    80204e8e:	74a6                	ld	s1,104(sp)
    80204e90:	7906                	ld	s2,96(sp)
    80204e92:	69e6                	ld	s3,88(sp)
    80204e94:	6a46                	ld	s4,80(sp)
    80204e96:	6aa6                	ld	s5,72(sp)
    80204e98:	6b06                	ld	s6,64(sp)
    80204e9a:	6109                	addi	sp,sp,128
    80204e9c:	8082                	ret

0000000080204e9e <_ZN4core3fmt9Formatter12pad_integral17h2910eee1e3128085E>:
    80204e9e:	7159                	addi	sp,sp,-112
    80204ea0:	f486                	sd	ra,104(sp)
    80204ea2:	f0a2                	sd	s0,96(sp)
    80204ea4:	eca6                	sd	s1,88(sp)
    80204ea6:	e8ca                	sd	s2,80(sp)
    80204ea8:	e4ce                	sd	s3,72(sp)
    80204eaa:	e0d2                	sd	s4,64(sp)
    80204eac:	fc56                	sd	s5,56(sp)
    80204eae:	f85a                	sd	s6,48(sp)
    80204eb0:	f45e                	sd	s7,40(sp)
    80204eb2:	f062                	sd	s8,32(sp)
    80204eb4:	ec66                	sd	s9,24(sp)
    80204eb6:	e86a                	sd	s10,16(sp)
    80204eb8:	e46e                	sd	s11,8(sp)
    80204eba:	89be                	mv	s3,a5
    80204ebc:	893a                	mv	s2,a4
    80204ebe:	8b36                	mv	s6,a3
    80204ec0:	8a32                	mv	s4,a2
    80204ec2:	8c2a                	mv	s8,a0
    80204ec4:	c1b9                	beqz	a1,80204f0a <_ZN4core3fmt9Formatter12pad_integral17h2910eee1e3128085E+0x6c>
    80204ec6:	030c6403          	lwu	s0,48(s8)
    80204eca:	00147513          	andi	a0,s0,1
    80204ece:	00110ab7          	lui	s5,0x110
    80204ed2:	c119                	beqz	a0,80204ed8 <_ZN4core3fmt9Formatter12pad_integral17h2910eee1e3128085E+0x3a>
    80204ed4:	02b00a93          	li	s5,43
    80204ed8:	01350cb3          	add	s9,a0,s3
    80204edc:	00447513          	andi	a0,s0,4
    80204ee0:	cd15                	beqz	a0,80204f1c <_ZN4core3fmt9Formatter12pad_integral17h2910eee1e3128085E+0x7e>
    80204ee2:	02000513          	li	a0,32
    80204ee6:	04ab7063          	bgeu	s6,a0,80204f26 <_ZN4core3fmt9Formatter12pad_integral17h2910eee1e3128085E+0x88>
    80204eea:	4501                	li	a0,0
    80204eec:	040b0363          	beqz	s6,80204f32 <_ZN4core3fmt9Formatter12pad_integral17h2910eee1e3128085E+0x94>
    80204ef0:	85da                	mv	a1,s6
    80204ef2:	8652                	mv	a2,s4
    80204ef4:	00060683          	lb	a3,0(a2)
    80204ef8:	0605                	addi	a2,a2,1
    80204efa:	fc06a693          	slti	a3,a3,-64
    80204efe:	0016c693          	xori	a3,a3,1
    80204f02:	15fd                	addi	a1,a1,-1
    80204f04:	9536                	add	a0,a0,a3
    80204f06:	f5fd                	bnez	a1,80204ef4 <_ZN4core3fmt9Formatter12pad_integral17h2910eee1e3128085E+0x56>
    80204f08:	a02d                	j	80204f32 <_ZN4core3fmt9Formatter12pad_integral17h2910eee1e3128085E+0x94>
    80204f0a:	030c2403          	lw	s0,48(s8)
    80204f0e:	00198c93          	addi	s9,s3,1
    80204f12:	02d00a93          	li	s5,45
    80204f16:	00447513          	andi	a0,s0,4
    80204f1a:	f561                	bnez	a0,80204ee2 <_ZN4core3fmt9Formatter12pad_integral17h2910eee1e3128085E+0x44>
    80204f1c:	4a01                	li	s4,0
    80204f1e:	010c3503          	ld	a0,16(s8)
    80204f22:	ed01                	bnez	a0,80204f3a <_ZN4core3fmt9Formatter12pad_integral17h2910eee1e3128085E+0x9c>
    80204f24:	a099                	j	80204f6a <_ZN4core3fmt9Formatter12pad_integral17h2910eee1e3128085E+0xcc>
    80204f26:	8552                	mv	a0,s4
    80204f28:	85da                	mv	a1,s6
    80204f2a:	00001097          	auipc	ra,0x1
    80204f2e:	e66080e7          	jalr	-410(ra) # 80205d90 <_ZN4core3str5count14do_count_chars17h75bffc8ce7e643c7E>
    80204f32:	9caa                	add	s9,s9,a0
    80204f34:	010c3503          	ld	a0,16(s8)
    80204f38:	c90d                	beqz	a0,80204f6a <_ZN4core3fmt9Formatter12pad_integral17h2910eee1e3128085E+0xcc>
    80204f3a:	018c3d03          	ld	s10,24(s8)
    80204f3e:	03acf663          	bgeu	s9,s10,80204f6a <_ZN4core3fmt9Formatter12pad_integral17h2910eee1e3128085E+0xcc>
    80204f42:	00847513          	andi	a0,s0,8
    80204f46:	e541                	bnez	a0,80204fce <_ZN4core3fmt9Formatter12pad_integral17h2910eee1e3128085E+0x130>
    80204f48:	038c4583          	lbu	a1,56(s8)
    80204f4c:	460d                	li	a2,3
    80204f4e:	4505                	li	a0,1
    80204f50:	00c58363          	beq	a1,a2,80204f56 <_ZN4core3fmt9Formatter12pad_integral17h2910eee1e3128085E+0xb8>
    80204f54:	852e                	mv	a0,a1
    80204f56:	00357593          	andi	a1,a0,3
    80204f5a:	419d0533          	sub	a0,s10,s9
    80204f5e:	c1e1                	beqz	a1,8020501e <_ZN4core3fmt9Formatter12pad_integral17h2910eee1e3128085E+0x180>
    80204f60:	4605                	li	a2,1
    80204f62:	0cc59163          	bne	a1,a2,80205024 <_ZN4core3fmt9Formatter12pad_integral17h2910eee1e3128085E+0x186>
    80204f66:	4d01                	li	s10,0
    80204f68:	a0d9                	j	8020502e <_ZN4core3fmt9Formatter12pad_integral17h2910eee1e3128085E+0x190>
    80204f6a:	000c3403          	ld	s0,0(s8)
    80204f6e:	008c3483          	ld	s1,8(s8)
    80204f72:	8522                	mv	a0,s0
    80204f74:	85a6                	mv	a1,s1
    80204f76:	8656                	mv	a2,s5
    80204f78:	86d2                	mv	a3,s4
    80204f7a:	875a                	mv	a4,s6
    80204f7c:	00000097          	auipc	ra,0x0
    80204f80:	140080e7          	jalr	320(ra) # 802050bc <_ZN4core3fmt9Formatter12pad_integral12write_prefix17h94560343c060f655E>
    80204f84:	4b85                	li	s7,1
    80204f86:	c10d                	beqz	a0,80204fa8 <_ZN4core3fmt9Formatter12pad_integral17h2910eee1e3128085E+0x10a>
    80204f88:	855e                	mv	a0,s7
    80204f8a:	70a6                	ld	ra,104(sp)
    80204f8c:	7406                	ld	s0,96(sp)
    80204f8e:	64e6                	ld	s1,88(sp)
    80204f90:	6946                	ld	s2,80(sp)
    80204f92:	69a6                	ld	s3,72(sp)
    80204f94:	6a06                	ld	s4,64(sp)
    80204f96:	7ae2                	ld	s5,56(sp)
    80204f98:	7b42                	ld	s6,48(sp)
    80204f9a:	7ba2                	ld	s7,40(sp)
    80204f9c:	7c02                	ld	s8,32(sp)
    80204f9e:	6ce2                	ld	s9,24(sp)
    80204fa0:	6d42                	ld	s10,16(sp)
    80204fa2:	6da2                	ld	s11,8(sp)
    80204fa4:	6165                	addi	sp,sp,112
    80204fa6:	8082                	ret
    80204fa8:	6c9c                	ld	a5,24(s1)
    80204faa:	8522                	mv	a0,s0
    80204fac:	85ca                	mv	a1,s2
    80204fae:	864e                	mv	a2,s3
    80204fb0:	70a6                	ld	ra,104(sp)
    80204fb2:	7406                	ld	s0,96(sp)
    80204fb4:	64e6                	ld	s1,88(sp)
    80204fb6:	6946                	ld	s2,80(sp)
    80204fb8:	69a6                	ld	s3,72(sp)
    80204fba:	6a06                	ld	s4,64(sp)
    80204fbc:	7ae2                	ld	s5,56(sp)
    80204fbe:	7b42                	ld	s6,48(sp)
    80204fc0:	7ba2                	ld	s7,40(sp)
    80204fc2:	7c02                	ld	s8,32(sp)
    80204fc4:	6ce2                	ld	s9,24(sp)
    80204fc6:	6d42                	ld	s10,16(sp)
    80204fc8:	6da2                	ld	s11,8(sp)
    80204fca:	6165                	addi	sp,sp,112
    80204fcc:	8782                	jr	a5
    80204fce:	034c2403          	lw	s0,52(s8)
    80204fd2:	03000513          	li	a0,48
    80204fd6:	038c4583          	lbu	a1,56(s8)
    80204fda:	e02e                	sd	a1,0(sp)
    80204fdc:	000c3d83          	ld	s11,0(s8)
    80204fe0:	008c3483          	ld	s1,8(s8)
    80204fe4:	02ac2a23          	sw	a0,52(s8)
    80204fe8:	4b85                	li	s7,1
    80204fea:	037c0c23          	sb	s7,56(s8)
    80204fee:	856e                	mv	a0,s11
    80204ff0:	85a6                	mv	a1,s1
    80204ff2:	8656                	mv	a2,s5
    80204ff4:	86d2                	mv	a3,s4
    80204ff6:	875a                	mv	a4,s6
    80204ff8:	00000097          	auipc	ra,0x0
    80204ffc:	0c4080e7          	jalr	196(ra) # 802050bc <_ZN4core3fmt9Formatter12pad_integral12write_prefix17h94560343c060f655E>
    80205000:	f541                	bnez	a0,80204f88 <_ZN4core3fmt9Formatter12pad_integral17h2910eee1e3128085E+0xea>
    80205002:	8a22                	mv	s4,s0
    80205004:	419d0533          	sub	a0,s10,s9
    80205008:	00150413          	addi	s0,a0,1
    8020500c:	147d                	addi	s0,s0,-1
    8020500e:	c449                	beqz	s0,80205098 <_ZN4core3fmt9Formatter12pad_integral17h2910eee1e3128085E+0x1fa>
    80205010:	7090                	ld	a2,32(s1)
    80205012:	03000593          	li	a1,48
    80205016:	856e                	mv	a0,s11
    80205018:	9602                	jalr	a2
    8020501a:	d96d                	beqz	a0,8020500c <_ZN4core3fmt9Formatter12pad_integral17h2910eee1e3128085E+0x16e>
    8020501c:	b7b5                	j	80204f88 <_ZN4core3fmt9Formatter12pad_integral17h2910eee1e3128085E+0xea>
    8020501e:	8d2a                	mv	s10,a0
    80205020:	852e                	mv	a0,a1
    80205022:	a031                	j	8020502e <_ZN4core3fmt9Formatter12pad_integral17h2910eee1e3128085E+0x190>
    80205024:	00150593          	addi	a1,a0,1
    80205028:	8105                	srli	a0,a0,0x1
    8020502a:	0015dd13          	srli	s10,a1,0x1
    8020502e:	000c3c83          	ld	s9,0(s8)
    80205032:	008c3d83          	ld	s11,8(s8)
    80205036:	034c2403          	lw	s0,52(s8)
    8020503a:	00150493          	addi	s1,a0,1
    8020503e:	14fd                	addi	s1,s1,-1
    80205040:	c889                	beqz	s1,80205052 <_ZN4core3fmt9Formatter12pad_integral17h2910eee1e3128085E+0x1b4>
    80205042:	020db603          	ld	a2,32(s11)
    80205046:	8566                	mv	a0,s9
    80205048:	85a2                	mv	a1,s0
    8020504a:	9602                	jalr	a2
    8020504c:	d96d                	beqz	a0,8020503e <_ZN4core3fmt9Formatter12pad_integral17h2910eee1e3128085E+0x1a0>
    8020504e:	4b85                	li	s7,1
    80205050:	bf25                	j	80204f88 <_ZN4core3fmt9Formatter12pad_integral17h2910eee1e3128085E+0xea>
    80205052:	00110537          	lui	a0,0x110
    80205056:	4b85                	li	s7,1
    80205058:	f2a408e3          	beq	s0,a0,80204f88 <_ZN4core3fmt9Formatter12pad_integral17h2910eee1e3128085E+0xea>
    8020505c:	8566                	mv	a0,s9
    8020505e:	85ee                	mv	a1,s11
    80205060:	8656                	mv	a2,s5
    80205062:	86d2                	mv	a3,s4
    80205064:	875a                	mv	a4,s6
    80205066:	00000097          	auipc	ra,0x0
    8020506a:	056080e7          	jalr	86(ra) # 802050bc <_ZN4core3fmt9Formatter12pad_integral12write_prefix17h94560343c060f655E>
    8020506e:	fd09                	bnez	a0,80204f88 <_ZN4core3fmt9Formatter12pad_integral17h2910eee1e3128085E+0xea>
    80205070:	018db683          	ld	a3,24(s11)
    80205074:	8566                	mv	a0,s9
    80205076:	85ca                	mv	a1,s2
    80205078:	864e                	mv	a2,s3
    8020507a:	9682                	jalr	a3
    8020507c:	f511                	bnez	a0,80204f88 <_ZN4core3fmt9Formatter12pad_integral17h2910eee1e3128085E+0xea>
    8020507e:	4481                	li	s1,0
    80205080:	029d0a63          	beq	s10,s1,802050b4 <_ZN4core3fmt9Formatter12pad_integral17h2910eee1e3128085E+0x216>
    80205084:	020db603          	ld	a2,32(s11)
    80205088:	0485                	addi	s1,s1,1
    8020508a:	8566                	mv	a0,s9
    8020508c:	85a2                	mv	a1,s0
    8020508e:	9602                	jalr	a2
    80205090:	d965                	beqz	a0,80205080 <_ZN4core3fmt9Formatter12pad_integral17h2910eee1e3128085E+0x1e2>
    80205092:	fff48513          	addi	a0,s1,-1
    80205096:	a005                	j	802050b6 <_ZN4core3fmt9Formatter12pad_integral17h2910eee1e3128085E+0x218>
    80205098:	6c94                	ld	a3,24(s1)
    8020509a:	856e                	mv	a0,s11
    8020509c:	85ca                	mv	a1,s2
    8020509e:	864e                	mv	a2,s3
    802050a0:	9682                	jalr	a3
    802050a2:	ee0513e3          	bnez	a0,80204f88 <_ZN4core3fmt9Formatter12pad_integral17h2910eee1e3128085E+0xea>
    802050a6:	4b81                	li	s7,0
    802050a8:	034c2a23          	sw	s4,52(s8)
    802050ac:	6502                	ld	a0,0(sp)
    802050ae:	02ac0c23          	sb	a0,56(s8)
    802050b2:	bdd9                	j	80204f88 <_ZN4core3fmt9Formatter12pad_integral17h2910eee1e3128085E+0xea>
    802050b4:	856a                	mv	a0,s10
    802050b6:	01a53bb3          	sltu	s7,a0,s10
    802050ba:	b5f9                	j	80204f88 <_ZN4core3fmt9Formatter12pad_integral17h2910eee1e3128085E+0xea>

00000000802050bc <_ZN4core3fmt9Formatter12pad_integral12write_prefix17h94560343c060f655E>:
    802050bc:	7179                	addi	sp,sp,-48
    802050be:	f406                	sd	ra,40(sp)
    802050c0:	f022                	sd	s0,32(sp)
    802050c2:	ec26                	sd	s1,24(sp)
    802050c4:	e84a                	sd	s2,16(sp)
    802050c6:	e44e                	sd	s3,8(sp)
    802050c8:	0006079b          	sext.w	a5,a2
    802050cc:	00110837          	lui	a6,0x110
    802050d0:	893a                	mv	s2,a4
    802050d2:	84b6                	mv	s1,a3
    802050d4:	842e                	mv	s0,a1
    802050d6:	89aa                	mv	s3,a0
    802050d8:	01078963          	beq	a5,a6,802050ea <_ZN4core3fmt9Formatter12pad_integral12write_prefix17h94560343c060f655E+0x2e>
    802050dc:	7014                	ld	a3,32(s0)
    802050de:	854e                	mv	a0,s3
    802050e0:	85b2                	mv	a1,a2
    802050e2:	9682                	jalr	a3
    802050e4:	85aa                	mv	a1,a0
    802050e6:	4505                	li	a0,1
    802050e8:	ed91                	bnez	a1,80205104 <_ZN4core3fmt9Formatter12pad_integral12write_prefix17h94560343c060f655E+0x48>
    802050ea:	cc81                	beqz	s1,80205102 <_ZN4core3fmt9Formatter12pad_integral12write_prefix17h94560343c060f655E+0x46>
    802050ec:	6c1c                	ld	a5,24(s0)
    802050ee:	854e                	mv	a0,s3
    802050f0:	85a6                	mv	a1,s1
    802050f2:	864a                	mv	a2,s2
    802050f4:	70a2                	ld	ra,40(sp)
    802050f6:	7402                	ld	s0,32(sp)
    802050f8:	64e2                	ld	s1,24(sp)
    802050fa:	6942                	ld	s2,16(sp)
    802050fc:	69a2                	ld	s3,8(sp)
    802050fe:	6145                	addi	sp,sp,48
    80205100:	8782                	jr	a5
    80205102:	4501                	li	a0,0
    80205104:	70a2                	ld	ra,40(sp)
    80205106:	7402                	ld	s0,32(sp)
    80205108:	64e2                	ld	s1,24(sp)
    8020510a:	6942                	ld	s2,16(sp)
    8020510c:	69a2                	ld	s3,8(sp)
    8020510e:	6145                	addi	sp,sp,48
    80205110:	8082                	ret

0000000080205112 <_ZN4core3fmt9Formatter3pad17h4bb521065e6665e9E>:
    80205112:	715d                	addi	sp,sp,-80
    80205114:	e486                	sd	ra,72(sp)
    80205116:	e0a2                	sd	s0,64(sp)
    80205118:	fc26                	sd	s1,56(sp)
    8020511a:	f84a                	sd	s2,48(sp)
    8020511c:	f44e                	sd	s3,40(sp)
    8020511e:	f052                	sd	s4,32(sp)
    80205120:	ec56                	sd	s5,24(sp)
    80205122:	e85a                	sd	s6,16(sp)
    80205124:	e45e                	sd	s7,8(sp)
    80205126:	8a2a                	mv	s4,a0
    80205128:	01053283          	ld	t0,16(a0) # 110010 <.Lline_table_start0+0xe4a05>
    8020512c:	7108                	ld	a0,32(a0)
    8020512e:	fff28693          	addi	a3,t0,-1
    80205132:	00d036b3          	snez	a3,a3
    80205136:	fff50713          	addi	a4,a0,-1
    8020513a:	00e03733          	snez	a4,a4
    8020513e:	8ef9                	and	a3,a3,a4
    80205140:	89b2                	mv	s3,a2
    80205142:	892e                	mv	s2,a1
    80205144:	16069d63          	bnez	a3,802052be <_ZN4core3fmt9Formatter3pad17h4bb521065e6665e9E+0x1ac>
    80205148:	4585                	li	a1,1
    8020514a:	10b51863          	bne	a0,a1,8020525a <_ZN4core3fmt9Formatter3pad17h4bb521065e6665e9E+0x148>
    8020514e:	028a3503          	ld	a0,40(s4)
    80205152:	4581                	li	a1,0
    80205154:	013906b3          	add	a3,s2,s3
    80205158:	00150713          	addi	a4,a0,1
    8020515c:	00110337          	lui	t1,0x110
    80205160:	0df00893          	li	a7,223
    80205164:	0f000813          	li	a6,240
    80205168:	864a                	mv	a2,s2
    8020516a:	a801                	j	8020517a <_ZN4core3fmt9Formatter3pad17h4bb521065e6665e9E+0x68>
    8020516c:	00160513          	addi	a0,a2,1
    80205170:	8d91                	sub	a1,a1,a2
    80205172:	95aa                	add	a1,a1,a0
    80205174:	862a                	mv	a2,a0
    80205176:	0e640263          	beq	s0,t1,8020525a <_ZN4core3fmt9Formatter3pad17h4bb521065e6665e9E+0x148>
    8020517a:	177d                	addi	a4,a4,-1
    8020517c:	c725                	beqz	a4,802051e4 <_ZN4core3fmt9Formatter3pad17h4bb521065e6665e9E+0xd2>
    8020517e:	0cd60e63          	beq	a2,a3,8020525a <_ZN4core3fmt9Formatter3pad17h4bb521065e6665e9E+0x148>
    80205182:	00060503          	lb	a0,0(a2)
    80205186:	0ff57413          	andi	s0,a0,255
    8020518a:	fe0551e3          	bgez	a0,8020516c <_ZN4core3fmt9Formatter3pad17h4bb521065e6665e9E+0x5a>
    8020518e:	00164503          	lbu	a0,1(a2)
    80205192:	01f47793          	andi	a5,s0,31
    80205196:	03f57493          	andi	s1,a0,63
    8020519a:	0288f963          	bgeu	a7,s0,802051cc <_ZN4core3fmt9Formatter3pad17h4bb521065e6665e9E+0xba>
    8020519e:	00264503          	lbu	a0,2(a2)
    802051a2:	049a                	slli	s1,s1,0x6
    802051a4:	03f57513          	andi	a0,a0,63
    802051a8:	8cc9                	or	s1,s1,a0
    802051aa:	03046763          	bltu	s0,a6,802051d8 <_ZN4core3fmt9Formatter3pad17h4bb521065e6665e9E+0xc6>
    802051ae:	00364503          	lbu	a0,3(a2)
    802051b2:	17f6                	slli	a5,a5,0x3d
    802051b4:	93ad                	srli	a5,a5,0x2b
    802051b6:	049a                	slli	s1,s1,0x6
    802051b8:	03f57513          	andi	a0,a0,63
    802051bc:	8d45                	or	a0,a0,s1
    802051be:	00f56433          	or	s0,a0,a5
    802051c2:	08640c63          	beq	s0,t1,8020525a <_ZN4core3fmt9Formatter3pad17h4bb521065e6665e9E+0x148>
    802051c6:	00460513          	addi	a0,a2,4
    802051ca:	b75d                	j	80205170 <_ZN4core3fmt9Formatter3pad17h4bb521065e6665e9E+0x5e>
    802051cc:	00260513          	addi	a0,a2,2
    802051d0:	079a                	slli	a5,a5,0x6
    802051d2:	0097e433          	or	s0,a5,s1
    802051d6:	bf69                	j	80205170 <_ZN4core3fmt9Formatter3pad17h4bb521065e6665e9E+0x5e>
    802051d8:	00360513          	addi	a0,a2,3
    802051dc:	07b2                	slli	a5,a5,0xc
    802051de:	00f4e433          	or	s0,s1,a5
    802051e2:	b779                	j	80205170 <_ZN4core3fmt9Formatter3pad17h4bb521065e6665e9E+0x5e>
    802051e4:	06d60b63          	beq	a2,a3,8020525a <_ZN4core3fmt9Formatter3pad17h4bb521065e6665e9E+0x148>
    802051e8:	00060503          	lb	a0,0(a2)
    802051ec:	04055363          	bgez	a0,80205232 <_ZN4core3fmt9Formatter3pad17h4bb521065e6665e9E+0x120>
    802051f0:	0ff57513          	andi	a0,a0,255
    802051f4:	0e000693          	li	a3,224
    802051f8:	02d56d63          	bltu	a0,a3,80205232 <_ZN4core3fmt9Formatter3pad17h4bb521065e6665e9E+0x120>
    802051fc:	0f000693          	li	a3,240
    80205200:	02d56963          	bltu	a0,a3,80205232 <_ZN4core3fmt9Formatter3pad17h4bb521065e6665e9E+0x120>
    80205204:	00164683          	lbu	a3,1(a2)
    80205208:	00264703          	lbu	a4,2(a2)
    8020520c:	03f6f693          	andi	a3,a3,63
    80205210:	03f77713          	andi	a4,a4,63
    80205214:	00364603          	lbu	a2,3(a2)
    80205218:	1576                	slli	a0,a0,0x3d
    8020521a:	912d                	srli	a0,a0,0x2b
    8020521c:	06b2                	slli	a3,a3,0xc
    8020521e:	071a                	slli	a4,a4,0x6
    80205220:	8ed9                	or	a3,a3,a4
    80205222:	03f67613          	andi	a2,a2,63
    80205226:	8e55                	or	a2,a2,a3
    80205228:	8d51                	or	a0,a0,a2
    8020522a:	00110637          	lui	a2,0x110
    8020522e:	02c50663          	beq	a0,a2,8020525a <_ZN4core3fmt9Formatter3pad17h4bb521065e6665e9E+0x148>
    80205232:	c185                	beqz	a1,80205252 <_ZN4core3fmt9Formatter3pad17h4bb521065e6665e9E+0x140>
    80205234:	0135fd63          	bgeu	a1,s3,8020524e <_ZN4core3fmt9Formatter3pad17h4bb521065e6665e9E+0x13c>
    80205238:	00b90533          	add	a0,s2,a1
    8020523c:	00050503          	lb	a0,0(a0)
    80205240:	fc000613          	li	a2,-64
    80205244:	00c55763          	bge	a0,a2,80205252 <_ZN4core3fmt9Formatter3pad17h4bb521065e6665e9E+0x140>
    80205248:	4501                	li	a0,0
    8020524a:	e511                	bnez	a0,80205256 <_ZN4core3fmt9Formatter3pad17h4bb521065e6665e9E+0x144>
    8020524c:	a039                	j	8020525a <_ZN4core3fmt9Formatter3pad17h4bb521065e6665e9E+0x148>
    8020524e:	ff359de3          	bne	a1,s3,80205248 <_ZN4core3fmt9Formatter3pad17h4bb521065e6665e9E+0x136>
    80205252:	854a                	mv	a0,s2
    80205254:	c119                	beqz	a0,8020525a <_ZN4core3fmt9Formatter3pad17h4bb521065e6665e9E+0x148>
    80205256:	89ae                	mv	s3,a1
    80205258:	892a                	mv	s2,a0
    8020525a:	06028263          	beqz	t0,802052be <_ZN4core3fmt9Formatter3pad17h4bb521065e6665e9E+0x1ac>
    8020525e:	018a3403          	ld	s0,24(s4)
    80205262:	02000513          	li	a0,32
    80205266:	04a9f463          	bgeu	s3,a0,802052ae <_ZN4core3fmt9Formatter3pad17h4bb521065e6665e9E+0x19c>
    8020526a:	4501                	li	a0,0
    8020526c:	00098e63          	beqz	s3,80205288 <_ZN4core3fmt9Formatter3pad17h4bb521065e6665e9E+0x176>
    80205270:	85ce                	mv	a1,s3
    80205272:	864a                	mv	a2,s2
    80205274:	00060683          	lb	a3,0(a2) # 110000 <.Lline_table_start0+0xe49f5>
    80205278:	0605                	addi	a2,a2,1
    8020527a:	fc06a693          	slti	a3,a3,-64
    8020527e:	0016c693          	xori	a3,a3,1
    80205282:	15fd                	addi	a1,a1,-1
    80205284:	9536                	add	a0,a0,a3
    80205286:	f5fd                	bnez	a1,80205274 <_ZN4core3fmt9Formatter3pad17h4bb521065e6665e9E+0x162>
    80205288:	02857b63          	bgeu	a0,s0,802052be <_ZN4core3fmt9Formatter3pad17h4bb521065e6665e9E+0x1ac>
    8020528c:	038a4583          	lbu	a1,56(s4)
    80205290:	468d                	li	a3,3
    80205292:	4601                	li	a2,0
    80205294:	00d58363          	beq	a1,a3,8020529a <_ZN4core3fmt9Formatter3pad17h4bb521065e6665e9E+0x188>
    80205298:	862e                	mv	a2,a1
    8020529a:	00367593          	andi	a1,a2,3
    8020529e:	40a40533          	sub	a0,s0,a0
    802052a2:	c1a1                	beqz	a1,802052e2 <_ZN4core3fmt9Formatter3pad17h4bb521065e6665e9E+0x1d0>
    802052a4:	4605                	li	a2,1
    802052a6:	04c59163          	bne	a1,a2,802052e8 <_ZN4core3fmt9Formatter3pad17h4bb521065e6665e9E+0x1d6>
    802052aa:	4a81                	li	s5,0
    802052ac:	a099                	j	802052f2 <_ZN4core3fmt9Formatter3pad17h4bb521065e6665e9E+0x1e0>
    802052ae:	854a                	mv	a0,s2
    802052b0:	85ce                	mv	a1,s3
    802052b2:	00001097          	auipc	ra,0x1
    802052b6:	ade080e7          	jalr	-1314(ra) # 80205d90 <_ZN4core3str5count14do_count_chars17h75bffc8ce7e643c7E>
    802052ba:	fc8569e3          	bltu	a0,s0,8020528c <_ZN4core3fmt9Formatter3pad17h4bb521065e6665e9E+0x17a>
    802052be:	008a3583          	ld	a1,8(s4)
    802052c2:	000a3503          	ld	a0,0(s4)
    802052c6:	6d9c                	ld	a5,24(a1)
    802052c8:	85ca                	mv	a1,s2
    802052ca:	864e                	mv	a2,s3
    802052cc:	60a6                	ld	ra,72(sp)
    802052ce:	6406                	ld	s0,64(sp)
    802052d0:	74e2                	ld	s1,56(sp)
    802052d2:	7942                	ld	s2,48(sp)
    802052d4:	79a2                	ld	s3,40(sp)
    802052d6:	7a02                	ld	s4,32(sp)
    802052d8:	6ae2                	ld	s5,24(sp)
    802052da:	6b42                	ld	s6,16(sp)
    802052dc:	6ba2                	ld	s7,8(sp)
    802052de:	6161                	addi	sp,sp,80
    802052e0:	8782                	jr	a5
    802052e2:	8aaa                	mv	s5,a0
    802052e4:	852e                	mv	a0,a1
    802052e6:	a031                	j	802052f2 <_ZN4core3fmt9Formatter3pad17h4bb521065e6665e9E+0x1e0>
    802052e8:	00150593          	addi	a1,a0,1
    802052ec:	8105                	srli	a0,a0,0x1
    802052ee:	0015da93          	srli	s5,a1,0x1
    802052f2:	000a3b03          	ld	s6,0(s4)
    802052f6:	008a3b83          	ld	s7,8(s4)
    802052fa:	034a2483          	lw	s1,52(s4)
    802052fe:	00150413          	addi	s0,a0,1
    80205302:	147d                	addi	s0,s0,-1
    80205304:	c809                	beqz	s0,80205316 <_ZN4core3fmt9Formatter3pad17h4bb521065e6665e9E+0x204>
    80205306:	020bb603          	ld	a2,32(s7)
    8020530a:	855a                	mv	a0,s6
    8020530c:	85a6                	mv	a1,s1
    8020530e:	9602                	jalr	a2
    80205310:	d96d                	beqz	a0,80205302 <_ZN4core3fmt9Formatter3pad17h4bb521065e6665e9E+0x1f0>
    80205312:	4a05                	li	s4,1
    80205314:	a82d                	j	8020534e <_ZN4core3fmt9Formatter3pad17h4bb521065e6665e9E+0x23c>
    80205316:	00110537          	lui	a0,0x110
    8020531a:	4a05                	li	s4,1
    8020531c:	02a48963          	beq	s1,a0,8020534e <_ZN4core3fmt9Formatter3pad17h4bb521065e6665e9E+0x23c>
    80205320:	018bb683          	ld	a3,24(s7)
    80205324:	855a                	mv	a0,s6
    80205326:	85ca                	mv	a1,s2
    80205328:	864e                	mv	a2,s3
    8020532a:	9682                	jalr	a3
    8020532c:	e10d                	bnez	a0,8020534e <_ZN4core3fmt9Formatter3pad17h4bb521065e6665e9E+0x23c>
    8020532e:	4401                	li	s0,0
    80205330:	008a8c63          	beq	s5,s0,80205348 <_ZN4core3fmt9Formatter3pad17h4bb521065e6665e9E+0x236>
    80205334:	020bb603          	ld	a2,32(s7)
    80205338:	0405                	addi	s0,s0,1
    8020533a:	855a                	mv	a0,s6
    8020533c:	85a6                	mv	a1,s1
    8020533e:	9602                	jalr	a2
    80205340:	d965                	beqz	a0,80205330 <_ZN4core3fmt9Formatter3pad17h4bb521065e6665e9E+0x21e>
    80205342:	fff40513          	addi	a0,s0,-1
    80205346:	a011                	j	8020534a <_ZN4core3fmt9Formatter3pad17h4bb521065e6665e9E+0x238>
    80205348:	8556                	mv	a0,s5
    8020534a:	01553a33          	sltu	s4,a0,s5
    8020534e:	8552                	mv	a0,s4
    80205350:	60a6                	ld	ra,72(sp)
    80205352:	6406                	ld	s0,64(sp)
    80205354:	74e2                	ld	s1,56(sp)
    80205356:	7942                	ld	s2,48(sp)
    80205358:	79a2                	ld	s3,40(sp)
    8020535a:	7a02                	ld	s4,32(sp)
    8020535c:	6ae2                	ld	s5,24(sp)
    8020535e:	6b42                	ld	s6,16(sp)
    80205360:	6ba2                	ld	s7,8(sp)
    80205362:	6161                	addi	sp,sp,80
    80205364:	8082                	ret

0000000080205366 <_ZN4core3fmt9Formatter15debug_lower_hex17hd83a264955057277E>:
    80205366:	03054503          	lbu	a0,48(a0) # 110030 <.Lline_table_start0+0xe4a25>
    8020536a:	156e                	slli	a0,a0,0x3b
    8020536c:	917d                	srli	a0,a0,0x3f
    8020536e:	8082                	ret

0000000080205370 <_ZN4core3fmt9Formatter15debug_upper_hex17h0837e66bcb51e2eeE>:
    80205370:	03054503          	lbu	a0,48(a0)
    80205374:	156a                	slli	a0,a0,0x3a
    80205376:	917d                	srli	a0,a0,0x3f
    80205378:	8082                	ret

000000008020537a <_ZN4core3fmt9Formatter10debug_list17h4014e2d68e0d92f8E>:
    8020537a:	1101                	addi	sp,sp,-32
    8020537c:	ec06                	sd	ra,24(sp)
    8020537e:	e822                	sd	s0,16(sp)
    80205380:	e426                	sd	s1,8(sp)
    80205382:	842e                	mv	s0,a1
    80205384:	658c                	ld	a1,8(a1)
    80205386:	6014                	ld	a3,0(s0)
    80205388:	6d98                	ld	a4,24(a1)
    8020538a:	84aa                	mv	s1,a0

000000008020538c <.LBB251_1>:
    8020538c:	00006597          	auipc	a1,0x6
    80205390:	bb658593          	addi	a1,a1,-1098 # 8020af42 <.Lanon.5d7b72655c03d3be6c233dc0a6aa27b8.267>
    80205394:	4605                	li	a2,1
    80205396:	8536                	mv	a0,a3
    80205398:	9702                	jalr	a4
    8020539a:	e080                	sd	s0,0(s1)
    8020539c:	00a48423          	sb	a0,8(s1)
    802053a0:	000484a3          	sb	zero,9(s1)
    802053a4:	60e2                	ld	ra,24(sp)
    802053a6:	6442                	ld	s0,16(sp)
    802053a8:	64a2                	ld	s1,8(sp)
    802053aa:	6105                	addi	sp,sp,32
    802053ac:	8082                	ret

00000000802053ae <_ZN43_$LT$bool$u20$as$u20$core..fmt..Display$GT$3fmt17h215c37b64054281aE>:
    802053ae:	00054603          	lbu	a2,0(a0)
    802053b2:	852e                	mv	a0,a1
    802053b4:	ca11                	beqz	a2,802053c8 <.LBB258_4>

00000000802053b6 <.LBB258_3>:
    802053b6:	00004597          	auipc	a1,0x4
    802053ba:	d4658593          	addi	a1,a1,-698 # 802090fc <.Lanon.c25a22bef176e972515b110aecca08c8.11+0x2c>
    802053be:	4611                	li	a2,4
    802053c0:	00000317          	auipc	t1,0x0
    802053c4:	d5230067          	jr	-686(t1) # 80205112 <_ZN4core3fmt9Formatter3pad17h4bb521065e6665e9E>

00000000802053c8 <.LBB258_4>:
    802053c8:	00006597          	auipc	a1,0x6
    802053cc:	cf358593          	addi	a1,a1,-781 # 8020b0bb <.Lanon.5d7b72655c03d3be6c233dc0a6aa27b8.298>
    802053d0:	4615                	li	a2,5
    802053d2:	00000317          	auipc	t1,0x0
    802053d6:	d4030067          	jr	-704(t1) # 80205112 <_ZN4core3fmt9Formatter3pad17h4bb521065e6665e9E>

00000000802053da <_ZN40_$LT$str$u20$as$u20$core..fmt..Debug$GT$3fmt17hc9f165820743b80bE>:
    802053da:	7131                	addi	sp,sp,-192
    802053dc:	fd06                	sd	ra,184(sp)
    802053de:	f922                	sd	s0,176(sp)
    802053e0:	f526                	sd	s1,168(sp)
    802053e2:	f14a                	sd	s2,160(sp)
    802053e4:	ed4e                	sd	s3,152(sp)
    802053e6:	e952                	sd	s4,144(sp)
    802053e8:	e556                	sd	s5,136(sp)
    802053ea:	e15a                	sd	s6,128(sp)
    802053ec:	fcde                	sd	s7,120(sp)
    802053ee:	f8e2                	sd	s8,112(sp)
    802053f0:	f4e6                	sd	s9,104(sp)
    802053f2:	f0ea                	sd	s10,96(sp)
    802053f4:	ecee                	sd	s11,88(sp)
    802053f6:	6614                	ld	a3,8(a2)
    802053f8:	6200                	ld	s0,0(a2)
    802053fa:	fc36                	sd	a3,56(sp)
    802053fc:	729c                	ld	a5,32(a3)
    802053fe:	e0ae                	sd	a1,64(sp)
    80205400:	e4aa                	sd	a0,72(sp)
    80205402:	02200593          	li	a1,34
    80205406:	8522                	mv	a0,s0
    80205408:	e8be                	sd	a5,80(sp)
    8020540a:	9782                	jalr	a5
    8020540c:	c10d                	beqz	a0,8020542e <_ZN40_$LT$str$u20$as$u20$core..fmt..Debug$GT$3fmt17hc9f165820743b80bE+0x54>
    8020540e:	4505                	li	a0,1
    80205410:	70ea                	ld	ra,184(sp)
    80205412:	744a                	ld	s0,176(sp)
    80205414:	74aa                	ld	s1,168(sp)
    80205416:	790a                	ld	s2,160(sp)
    80205418:	69ea                	ld	s3,152(sp)
    8020541a:	6a4a                	ld	s4,144(sp)
    8020541c:	6aaa                	ld	s5,136(sp)
    8020541e:	6b0a                	ld	s6,128(sp)
    80205420:	7be6                	ld	s7,120(sp)
    80205422:	7c46                	ld	s8,112(sp)
    80205424:	7ca6                	ld	s9,104(sp)
    80205426:	7d06                	ld	s10,96(sp)
    80205428:	6de6                	ld	s11,88(sp)
    8020542a:	6129                	addi	sp,sp,192
    8020542c:	8082                	ret
    8020542e:	6786                	ld	a5,64(sp)
    80205430:	2e078563          	beqz	a5,8020571a <.LBB259_66+0x1a>
    80205434:	4481                	li	s1,0
    80205436:	4a01                	li	s4,0
    80205438:	65a6                	ld	a1,72(sp)
    8020543a:	00f58533          	add	a0,a1,a5
    8020543e:	f82a                	sd	a0,48(sp)
    80205440:	00110537          	lui	a0,0x110
    80205444:	0025069b          	addiw	a3,a0,2
    80205448:	02200713          	li	a4,34
    8020544c:	4d41                	li	s10,16
    8020544e:	0015099b          	addiw	s3,a0,1
    80205452:	4b85                	li	s7,1
    80205454:	4c89                	li	s9,2
    80205456:	55555537          	lui	a0,0x55555
    8020545a:	5555051b          	addiw	a0,a0,1365
    8020545e:	f02a                	sd	a0,32(sp)
    80205460:	33333537          	lui	a0,0x33333
    80205464:	3335051b          	addiw	a0,a0,819
    80205468:	ec2a                	sd	a0,24(sp)
    8020546a:	0f0f1537          	lui	a0,0xf0f1
    8020546e:	f0f5051b          	addiw	a0,a0,-241
    80205472:	e82a                	sd	a0,16(sp)
    80205474:	01010537          	lui	a0,0x1010
    80205478:	1015051b          	addiw	a0,a0,257
    8020547c:	e42a                	sd	a0,8(sp)
    8020547e:	f436                	sd	a3,40(sp)
    80205480:	892e                	mv	s2,a1
    80205482:	00058503          	lb	a0,0(a1)
    80205486:	0ff57b13          	andi	s6,a0,255
    8020548a:	00054763          	bltz	a0,80205498 <_ZN40_$LT$str$u20$as$u20$core..fmt..Debug$GT$3fmt17hc9f165820743b80bE+0xbe>
    8020548e:	00190d93          	addi	s11,s2,1
    80205492:	07677363          	bgeu	a4,s6,802054f8 <_ZN40_$LT$str$u20$as$u20$core..fmt..Debug$GT$3fmt17hc9f165820743b80bE+0x11e>
    80205496:	a065                	j	8020553e <.LBB259_14+0x16>
    80205498:	00194583          	lbu	a1,1(s2)
    8020549c:	01fb7513          	andi	a0,s6,31
    802054a0:	03f5f593          	andi	a1,a1,63
    802054a4:	0df00613          	li	a2,223
    802054a8:	05667163          	bgeu	a2,s6,802054ea <_ZN40_$LT$str$u20$as$u20$core..fmt..Debug$GT$3fmt17hc9f165820743b80bE+0x110>
    802054ac:	00294603          	lbu	a2,2(s2)
    802054b0:	00390d93          	addi	s11,s2,3
    802054b4:	059a                	slli	a1,a1,0x6
    802054b6:	03f67613          	andi	a2,a2,63
    802054ba:	8dd1                	or	a1,a1,a2
    802054bc:	0f000613          	li	a2,240
    802054c0:	06cb6a63          	bltu	s6,a2,80205534 <.LBB259_14+0xc>
    802054c4:	000dc603          	lbu	a2,0(s11)
    802054c8:	1576                	slli	a0,a0,0x3d
    802054ca:	912d                	srli	a0,a0,0x2b
    802054cc:	059a                	slli	a1,a1,0x6
    802054ce:	03f67613          	andi	a2,a2,63
    802054d2:	8dd1                	or	a1,a1,a2
    802054d4:	00a5eb33          	or	s6,a1,a0
    802054d8:	00110537          	lui	a0,0x110
    802054dc:	26ab0e63          	beq	s6,a0,80205758 <.LBB259_66+0x58>
    802054e0:	00490d93          	addi	s11,s2,4
    802054e4:	01677a63          	bgeu	a4,s6,802054f8 <_ZN40_$LT$str$u20$as$u20$core..fmt..Debug$GT$3fmt17hc9f165820743b80bE+0x11e>
    802054e8:	a899                	j	8020553e <.LBB259_14+0x16>
    802054ea:	00290d93          	addi	s11,s2,2
    802054ee:	051a                	slli	a0,a0,0x6
    802054f0:	00b56b33          	or	s6,a0,a1
    802054f4:	05676563          	bltu	a4,s6,8020553e <.LBB259_14+0x16>
    802054f8:	003b1513          	slli	a0,s6,0x3

00000000802054fc <.LBB259_64>:
    802054fc:	00005597          	auipc	a1,0x5
    80205500:	54c58593          	addi	a1,a1,1356 # 8020aa48 <.LJTI259_0>
    80205504:	952e                	add	a0,a0,a1
    80205506:	6108                	ld	a0,0(a0)
    80205508:	03000a93          	li	s5,48
    8020550c:	8c36                	mv	s8,a3
    8020550e:	8502                	jr	a0

0000000080205510 <.LBB259_12>:
    80205510:	07400a93          	li	s5,116
    80205514:	8c36                	mv	s8,a3
    80205516:	029a7c63          	bgeu	s4,s1,8020554e <.LBB259_18+0x4>
    8020551a:	a2dd                	j	80205700 <.LBB259_66>

000000008020551c <.LBB259_13>:
    8020551c:	06e00a93          	li	s5,110
    80205520:	8c36                	mv	s8,a3
    80205522:	029a7663          	bgeu	s4,s1,8020554e <.LBB259_18+0x4>
    80205526:	aae9                	j	80205700 <.LBB259_66>

0000000080205528 <.LBB259_14>:
    80205528:	07200a93          	li	s5,114
    8020552c:	8c36                	mv	s8,a3
    8020552e:	029a7063          	bgeu	s4,s1,8020554e <.LBB259_18+0x4>
    80205532:	a2f9                	j	80205700 <.LBB259_66>
    80205534:	0532                	slli	a0,a0,0xc
    80205536:	00a5eb33          	or	s6,a1,a0
    8020553a:	fb677fe3          	bgeu	a4,s6,802054f8 <_ZN40_$LT$str$u20$as$u20$core..fmt..Debug$GT$3fmt17hc9f165820743b80bE+0x11e>
    8020553e:	05c00513          	li	a0,92
    80205542:	12ab1f63          	bne	s6,a0,80205680 <.LBB259_51>

0000000080205546 <.LBB259_17>:
    80205546:	8ada                	mv	s5,s6
    80205548:	8c36                	mv	s8,a3

000000008020554a <.LBB259_18>:
    8020554a:	1a9a6b63          	bltu	s4,s1,80205700 <.LBB259_66>
    8020554e:	6526                	ld	a0,72(sp)
    80205550:	009505b3          	add	a1,a0,s1
    80205554:	cc81                	beqz	s1,8020556c <.LBB259_18+0x22>
    80205556:	00f4f963          	bgeu	s1,a5,80205568 <.LBB259_18+0x1e>
    8020555a:	00058503          	lb	a0,0(a1)
    8020555e:	fc000613          	li	a2,-64
    80205562:	00c55563          	bge	a0,a2,8020556c <.LBB259_18+0x22>
    80205566:	aa69                	j	80205700 <.LBB259_66>
    80205568:	18f49c63          	bne	s1,a5,80205700 <.LBB259_66>
    8020556c:	000a0f63          	beqz	s4,8020558a <.LBB259_18+0x40>
    80205570:	00fa7b63          	bgeu	s4,a5,80205586 <.LBB259_18+0x3c>
    80205574:	6526                	ld	a0,72(sp)
    80205576:	9552                	add	a0,a0,s4
    80205578:	00050503          	lb	a0,0(a0) # 110000 <.Lline_table_start0+0xe49f5>
    8020557c:	fbf00613          	li	a2,-65
    80205580:	00a64563          	blt	a2,a0,8020558a <.LBB259_18+0x40>
    80205584:	aab5                	j	80205700 <.LBB259_66>
    80205586:	16fa1d63          	bne	s4,a5,80205700 <.LBB259_66>
    8020558a:	7562                	ld	a0,56(sp)
    8020558c:	6d14                	ld	a3,24(a0)
    8020558e:	409a0633          	sub	a2,s4,s1
    80205592:	8522                	mv	a0,s0
    80205594:	9682                	jalr	a3
    80205596:	e6051ce3          	bnez	a0,8020540e <_ZN40_$LT$str$u20$as$u20$core..fmt..Debug$GT$3fmt17hc9f165820743b80bE+0x34>
    8020559a:	4495                	li	s1,5
    8020559c:	a039                	j	802055aa <.LBB259_30+0xa>
    8020559e:	8c4e                	mv	s8,s3

00000000802055a0 <.LBB259_30>:
    802055a0:	8522                	mv	a0,s0
    802055a2:	67c6                	ld	a5,80(sp)
    802055a4:	9782                	jalr	a5
    802055a6:	e60514e3          	bnez	a0,8020540e <_ZN40_$LT$str$u20$as$u20$core..fmt..Debug$GT$3fmt17hc9f165820743b80bE+0x34>
    802055aa:	010c551b          	srliw	a0,s8,0x10
    802055ae:	04ad6e63          	bltu	s10,a0,8020560a <.LBB259_35+0x30>
    802055b2:	450d                	li	a0,3
    802055b4:	06abd163          	bge	s7,a0,80205616 <.LBB259_35+0x3c>
    802055b8:	05c00593          	li	a1,92
    802055bc:	ff9501e3          	beq	a0,s9,8020559e <.LBB259_18+0x54>
    802055c0:	0ff4f513          	andi	a0,s1,255
    802055c4:	050e                	slli	a0,a0,0x3

00000000802055c6 <.LBB259_65>:
    802055c6:	00005597          	auipc	a1,0x5
    802055ca:	59a58593          	addi	a1,a1,1434 # 8020ab60 <.LJTI259_1>
    802055ce:	952e                	add	a0,a0,a1
    802055d0:	6108                	ld	a0,0(a0)
    802055d2:	07d00593          	li	a1,125
    802055d6:	4481                	li	s1,0
    802055d8:	8502                	jr	a0

00000000802055da <.LBB259_35>:
    802055da:	002a951b          	slliw	a0,s5,0x2
    802055de:	00ac553b          	srlw	a0,s8,a0
    802055e2:	893d                	andi	a0,a0,15
    802055e4:	03000593          	li	a1,48
    802055e8:	4629                	li	a2,10
    802055ea:	00c56463          	bltu	a0,a2,802055f2 <.LBB259_35+0x18>
    802055ee:	05700593          	li	a1,87
    802055f2:	4601                	li	a2,0
    802055f4:	000a8463          	beqz	s5,802055fc <.LBB259_35+0x22>
    802055f8:	fffa8613          	addi	a2,s5,-1 # 10ffff <.Lline_table_start0+0xe49f4>
    802055fc:	95aa                	add	a1,a1,a0
    802055fe:	001ab513          	seqz	a0,s5
    80205602:	40ac84b3          	sub	s1,s9,a0
    80205606:	8ab2                	mv	s5,a2
    80205608:	bf61                	j	802055a0 <.LBB259_30>
    8020560a:	ffef0537          	lui	a0,0xffef0
    8020560e:	00ac053b          	addw	a0,s8,a0
    80205612:	faabc3e3          	blt	s7,a0,802055b8 <.LBB259_30+0x18>
    80205616:	03751663          	bne	a0,s7,80205642 <.LBB259_46>
    8020561a:	000a851b          	sext.w	a0,s5
    8020561e:	00110c37          	lui	s8,0x110
    80205622:	85d6                	mv	a1,s5
    80205624:	f7851ee3          	bne	a0,s8,802055a0 <.LBB259_30>
    80205628:	a829                	j	80205642 <.LBB259_46>

000000008020562a <.LBB259_43>:
    8020562a:	448d                	li	s1,3
    8020562c:	07500593          	li	a1,117
    80205630:	bf85                	j	802055a0 <.LBB259_30>

0000000080205632 <.LBB259_44>:
    80205632:	4489                	li	s1,2
    80205634:	07b00593          	li	a1,123
    80205638:	b7a5                	j	802055a0 <.LBB259_30>

000000008020563a <.LBB259_45>:
    8020563a:	4491                	li	s1,4
    8020563c:	05c00593          	li	a1,92
    80205640:	b785                	j	802055a0 <.LBB259_30>

0000000080205642 <.LBB259_46>:
    80205642:	4505                	li	a0,1
    80205644:	08000593          	li	a1,128
    80205648:	00bb6d63          	bltu	s6,a1,80205662 <.LBB259_46+0x20>
    8020564c:	00bb5593          	srli	a1,s6,0xb
    80205650:	4509                	li	a0,2
    80205652:	c981                	beqz	a1,80205662 <.LBB259_46+0x20>
    80205654:	010b5513          	srli	a0,s6,0x10
    80205658:	00153513          	seqz	a0,a0
    8020565c:	4591                	li	a1,4
    8020565e:	40a58533          	sub	a0,a1,a0
    80205662:	014504b3          	add	s1,a0,s4
    80205666:	6786                	ld	a5,64(sp)
    80205668:	76a2                	ld	a3,40(sp)
    8020566a:	02200713          	li	a4,34
    8020566e:	85ee                	mv	a1,s11
    80205670:	412a0533          	sub	a0,s4,s2
    80205674:	01b50a33          	add	s4,a0,s11
    80205678:	7542                	ld	a0,48(sp)
    8020567a:	e0ad93e3          	bne	s11,a0,80205480 <_ZN40_$LT$str$u20$as$u20$core..fmt..Debug$GT$3fmt17hc9f165820743b80bE+0xa6>
    8020567e:	a8e9                	j	80205758 <.LBB259_66+0x58>

0000000080205680 <.LBB259_51>:
    80205680:	855a                	mv	a0,s6
    80205682:	00001097          	auipc	ra,0x1
    80205686:	5fa080e7          	jalr	1530(ra) # 80206c7c <_ZN4core7unicode12unicode_data15grapheme_extend6lookup17h93f97eb994836bdeE>
    8020568a:	e519                	bnez	a0,80205698 <.LBB259_51+0x18>
    8020568c:	855a                	mv	a0,s6
    8020568e:	00001097          	auipc	ra,0x1
    80205692:	c62080e7          	jalr	-926(ra) # 802062f0 <_ZN4core7unicode9printable12is_printable17hce50a9789a4e08d5E>
    80205696:	f961                	bnez	a0,80205666 <.LBB259_46+0x24>
    80205698:	00110537          	lui	a0,0x110
    8020569c:	2505                	addiw	a0,a0,1
    8020569e:	fcab04e3          	beq	s6,a0,80205666 <.LBB259_46+0x24>
    802056a2:	001b6513          	ori	a0,s6,1
    802056a6:	00155593          	srli	a1,a0,0x1
    802056aa:	8d4d                	or	a0,a0,a1
    802056ac:	00255593          	srli	a1,a0,0x2
    802056b0:	8d4d                	or	a0,a0,a1
    802056b2:	00455593          	srli	a1,a0,0x4
    802056b6:	8d4d                	or	a0,a0,a1
    802056b8:	00855593          	srli	a1,a0,0x8
    802056bc:	8d4d                	or	a0,a0,a1
    802056be:	02151593          	slli	a1,a0,0x21
    802056c2:	91c5                	srli	a1,a1,0x31
    802056c4:	8d4d                	or	a0,a0,a1
    802056c6:	fff54513          	not	a0,a0
    802056ca:	00155593          	srli	a1,a0,0x1
    802056ce:	7602                	ld	a2,32(sp)
    802056d0:	8df1                	and	a1,a1,a2
    802056d2:	9d0d                	subw	a0,a0,a1
    802056d4:	6662                	ld	a2,24(sp)
    802056d6:	00c575b3          	and	a1,a0,a2
    802056da:	8109                	srli	a0,a0,0x2
    802056dc:	8d71                	and	a0,a0,a2
    802056de:	952e                	add	a0,a0,a1
    802056e0:	00455593          	srli	a1,a0,0x4
    802056e4:	952e                	add	a0,a0,a1
    802056e6:	65c2                	ld	a1,16(sp)
    802056e8:	8d6d                	and	a0,a0,a1
    802056ea:	65a2                	ld	a1,8(sp)
    802056ec:	02b5053b          	mulw	a0,a0,a1
    802056f0:	01a5551b          	srliw	a0,a0,0x1a
    802056f4:	00754a93          	xori	s5,a0,7
    802056f8:	8c5a                	mv	s8,s6
    802056fa:	6786                	ld	a5,64(sp)
    802056fc:	e49a79e3          	bgeu	s4,s1,8020554e <.LBB259_18+0x4>

0000000080205700 <.LBB259_66>:
    80205700:	00006717          	auipc	a4,0x6
    80205704:	9c070713          	addi	a4,a4,-1600 # 8020b0c0 <.Lanon.5d7b72655c03d3be6c233dc0a6aa27b8.299>
    80205708:	6526                	ld	a0,72(sp)
    8020570a:	85be                	mv	a1,a5
    8020570c:	8626                	mv	a2,s1
    8020570e:	86d2                	mv	a3,s4
    80205710:	00001097          	auipc	ra,0x1
    80205714:	826080e7          	jalr	-2010(ra) # 80205f36 <_ZN4core3str16slice_error_fail17h7fc1b29dd4a5b4e7E>
    80205718:	0000                	unimp
    8020571a:	4481                	li	s1,0
    8020571c:	7562                	ld	a0,56(sp)
    8020571e:	6d14                	ld	a3,24(a0)
    80205720:	6526                	ld	a0,72(sp)
    80205722:	009505b3          	add	a1,a0,s1
    80205726:	40978633          	sub	a2,a5,s1
    8020572a:	8522                	mv	a0,s0
    8020572c:	9682                	jalr	a3
    8020572e:	ce0510e3          	bnez	a0,8020540e <_ZN40_$LT$str$u20$as$u20$core..fmt..Debug$GT$3fmt17hc9f165820743b80bE+0x34>
    80205732:	02200593          	li	a1,34
    80205736:	8522                	mv	a0,s0
    80205738:	67c6                	ld	a5,80(sp)
    8020573a:	70ea                	ld	ra,184(sp)
    8020573c:	744a                	ld	s0,176(sp)
    8020573e:	74aa                	ld	s1,168(sp)
    80205740:	790a                	ld	s2,160(sp)
    80205742:	69ea                	ld	s3,152(sp)
    80205744:	6a4a                	ld	s4,144(sp)
    80205746:	6aaa                	ld	s5,136(sp)
    80205748:	6b0a                	ld	s6,128(sp)
    8020574a:	7be6                	ld	s7,120(sp)
    8020574c:	7c46                	ld	s8,112(sp)
    8020574e:	7ca6                	ld	s9,104(sp)
    80205750:	7d06                	ld	s10,96(sp)
    80205752:	6de6                	ld	s11,88(sp)
    80205754:	6129                	addi	sp,sp,192
    80205756:	8782                	jr	a5
    80205758:	d0f1                	beqz	s1,8020571c <.LBB259_66+0x1c>
    8020575a:	00f4fb63          	bgeu	s1,a5,80205770 <.LBB259_66+0x70>
    8020575e:	6526                	ld	a0,72(sp)
    80205760:	9526                	add	a0,a0,s1
    80205762:	00050503          	lb	a0,0(a0) # 110000 <.Lline_table_start0+0xe49f5>
    80205766:	fbf00593          	li	a1,-65
    8020576a:	faa5c9e3          	blt	a1,a0,8020571c <.LBB259_66+0x1c>
    8020576e:	a019                	j	80205774 <.LBB259_67>
    80205770:	faf486e3          	beq	s1,a5,8020571c <.LBB259_66+0x1c>

0000000080205774 <.LBB259_67>:
    80205774:	00006717          	auipc	a4,0x6
    80205778:	96470713          	addi	a4,a4,-1692 # 8020b0d8 <.Lanon.5d7b72655c03d3be6c233dc0a6aa27b8.300>
    8020577c:	6526                	ld	a0,72(sp)
    8020577e:	85be                	mv	a1,a5
    80205780:	8626                	mv	a2,s1
    80205782:	86be                	mv	a3,a5
    80205784:	00000097          	auipc	ra,0x0
    80205788:	7b2080e7          	jalr	1970(ra) # 80205f36 <_ZN4core3str16slice_error_fail17h7fc1b29dd4a5b4e7E>
	...

000000008020578e <_ZN42_$LT$str$u20$as$u20$core..fmt..Display$GT$3fmt17h8884fddb1f24a834E>:
    8020578e:	86ae                	mv	a3,a1
    80205790:	85aa                	mv	a1,a0
    80205792:	8532                	mv	a0,a2
    80205794:	8636                	mv	a2,a3
    80205796:	00000317          	auipc	t1,0x0
    8020579a:	97c30067          	jr	-1668(t1) # 80205112 <_ZN4core3fmt9Formatter3pad17h4bb521065e6665e9E>

000000008020579e <_ZN41_$LT$char$u20$as$u20$core..fmt..Debug$GT$3fmt17h69dcc0374c595c86E>:
    8020579e:	7159                	addi	sp,sp,-112
    802057a0:	f486                	sd	ra,104(sp)
    802057a2:	f0a2                	sd	s0,96(sp)
    802057a4:	eca6                	sd	s1,88(sp)
    802057a6:	e8ca                	sd	s2,80(sp)
    802057a8:	e4ce                	sd	s3,72(sp)
    802057aa:	e0d2                	sd	s4,64(sp)
    802057ac:	fc56                	sd	s5,56(sp)
    802057ae:	f85a                	sd	s6,48(sp)
    802057b0:	f45e                	sd	s7,40(sp)
    802057b2:	f062                	sd	s8,32(sp)
    802057b4:	ec66                	sd	s9,24(sp)
    802057b6:	e86a                	sd	s10,16(sp)
    802057b8:	6590                	ld	a2,8(a1)
    802057ba:	0005b983          	ld	s3,0(a1)
    802057be:	721c                	ld	a5,32(a2)
    802057c0:	84aa                	mv	s1,a0
    802057c2:	02700593          	li	a1,39
    802057c6:	02700413          	li	s0,39
    802057ca:	854e                	mv	a0,s3
    802057cc:	e43e                	sd	a5,8(sp)
    802057ce:	9782                	jalr	a5
    802057d0:	c105                	beqz	a0,802057f0 <_ZN41_$LT$char$u20$as$u20$core..fmt..Debug$GT$3fmt17h69dcc0374c595c86E+0x52>
    802057d2:	4505                	li	a0,1
    802057d4:	70a6                	ld	ra,104(sp)
    802057d6:	7406                	ld	s0,96(sp)
    802057d8:	64e6                	ld	s1,88(sp)
    802057da:	6946                	ld	s2,80(sp)
    802057dc:	69a6                	ld	s3,72(sp)
    802057de:	6a06                	ld	s4,64(sp)
    802057e0:	7ae2                	ld	s5,56(sp)
    802057e2:	7b42                	ld	s6,48(sp)
    802057e4:	7ba2                	ld	s7,40(sp)
    802057e6:	7c02                	ld	s8,32(sp)
    802057e8:	6ce2                	ld	s9,24(sp)
    802057ea:	6d42                	ld	s10,16(sp)
    802057ec:	6165                	addi	sp,sp,112
    802057ee:	8082                	ret
    802057f0:	0004e903          	lwu	s2,0(s1)
    802057f4:	02b91513          	slli	a0,s2,0x2b
    802057f8:	912d                	srli	a0,a0,0x2b
    802057fa:	02a46463          	bltu	s0,a0,80205822 <.LBB261_4+0x6>
    802057fe:	00391513          	slli	a0,s2,0x3

0000000080205802 <.LBB261_33>:
    80205802:	00005597          	auipc	a1,0x5
    80205806:	38e58593          	addi	a1,a1,910 # 8020ab90 <.LJTI261_0>
    8020580a:	952e                	add	a0,a0,a1
    8020580c:	6108                	ld	a0,0(a0)
    8020580e:	03000d13          	li	s10,48
    80205812:	001105b7          	lui	a1,0x110
    80205816:	0025841b          	addiw	s0,a1,2
    8020581a:	8502                	jr	a0

000000008020581c <.LBB261_4>:
    8020581c:	07400d13          	li	s10,116
    80205820:	a081                	j	80205860 <.LBB261_11+0x4>
    80205822:	05c00d13          	li	s10,92
    80205826:	03a90d63          	beq	s2,s10,80205860 <.LBB261_11+0x4>

000000008020582a <.LBB261_6>:
    8020582a:	854a                	mv	a0,s2
    8020582c:	00001097          	auipc	ra,0x1
    80205830:	450080e7          	jalr	1104(ra) # 80206c7c <_ZN4core7unicode12unicode_data15grapheme_extend6lookup17h93f97eb994836bdeE>
    80205834:	10051663          	bnez	a0,80205940 <.LBB261_31+0x24>
    80205838:	854a                	mv	a0,s2
    8020583a:	00001097          	auipc	ra,0x1
    8020583e:	ab6080e7          	jalr	-1354(ra) # 802062f0 <_ZN4core7unicode9printable12is_printable17hce50a9789a4e08d5E>
    80205842:	cd7d                	beqz	a0,80205940 <.LBB261_31+0x24>
    80205844:	00110537          	lui	a0,0x110
    80205848:	0015041b          	addiw	s0,a0,1
    8020584c:	8d4a                	mv	s10,s2
    8020584e:	a829                	j	80205868 <.LBB261_13>

0000000080205850 <.LBB261_9>:
    80205850:	06e00d13          	li	s10,110
    80205854:	a031                	j	80205860 <.LBB261_11+0x4>

0000000080205856 <.LBB261_10>:
    80205856:	07200d13          	li	s10,114
    8020585a:	a019                	j	80205860 <.LBB261_11+0x4>

000000008020585c <.LBB261_11>:
    8020585c:	02700d13          	li	s10,39
    80205860:	00110537          	lui	a0,0x110
    80205864:	0025041b          	addiw	s0,a0,2

0000000080205868 <.LBB261_13>:
    80205868:	4495                	li	s1,5
    8020586a:	ffef0937          	lui	s2,0xffef0
    8020586e:	4a41                	li	s4,16
    80205870:	00110537          	lui	a0,0x110
    80205874:	00150a9b          	addiw	s5,a0,1
    80205878:	4b05                	li	s6,1
    8020587a:	4b89                	li	s7,2

000000008020587c <.LBB261_34>:
    8020587c:	00005c17          	auipc	s8,0x5
    80205880:	454c0c13          	addi	s8,s8,1108 # 8020acd0 <.LJTI261_1>
    80205884:	4ca9                	li	s9,10
    80205886:	a031                	j	80205892 <.LBB261_15+0x8>
    80205888:	8456                	mv	s0,s5

000000008020588a <.LBB261_15>:
    8020588a:	854e                	mv	a0,s3
    8020588c:	67a2                	ld	a5,8(sp)
    8020588e:	9782                	jalr	a5
    80205890:	f129                	bnez	a0,802057d2 <_ZN41_$LT$char$u20$as$u20$core..fmt..Debug$GT$3fmt17h69dcc0374c595c86E+0x34>
    80205892:	0104551b          	srliw	a0,s0,0x10
    80205896:	04aa6963          	bltu	s4,a0,802058e8 <.LBB261_20+0x2e>
    8020589a:	450d                	li	a0,3
    8020589c:	04ab5a63          	bge	s6,a0,802058f0 <.LBB261_20+0x36>
    802058a0:	05c00593          	li	a1,92
    802058a4:	ff7502e3          	beq	a0,s7,80205888 <.LBB261_34+0xc>
    802058a8:	0ff4f513          	andi	a0,s1,255
    802058ac:	050e                	slli	a0,a0,0x3
    802058ae:	9562                	add	a0,a0,s8
    802058b0:	6108                	ld	a0,0(a0)
    802058b2:	07d00593          	li	a1,125
    802058b6:	4481                	li	s1,0
    802058b8:	8502                	jr	a0

00000000802058ba <.LBB261_20>:
    802058ba:	002d151b          	slliw	a0,s10,0x2
    802058be:	00a4553b          	srlw	a0,s0,a0
    802058c2:	893d                	andi	a0,a0,15
    802058c4:	03000593          	li	a1,48
    802058c8:	01956463          	bltu	a0,s9,802058d0 <.LBB261_20+0x16>
    802058cc:	05700593          	li	a1,87
    802058d0:	4601                	li	a2,0
    802058d2:	000d0463          	beqz	s10,802058da <.LBB261_20+0x20>
    802058d6:	fffd0613          	addi	a2,s10,-1
    802058da:	95aa                	add	a1,a1,a0
    802058dc:	001d3513          	seqz	a0,s10
    802058e0:	40ab84b3          	sub	s1,s7,a0
    802058e4:	8d32                	mv	s10,a2
    802058e6:	b755                	j	8020588a <.LBB261_15>
    802058e8:	0124053b          	addw	a0,s0,s2
    802058ec:	faab4ae3          	blt	s6,a0,802058a0 <.LBB261_15+0x16>
    802058f0:	03651663          	bne	a0,s6,8020591c <.LBB261_31>
    802058f4:	000d051b          	sext.w	a0,s10
    802058f8:	00110437          	lui	s0,0x110
    802058fc:	85ea                	mv	a1,s10
    802058fe:	f88516e3          	bne	a0,s0,8020588a <.LBB261_15>
    80205902:	a829                	j	8020591c <.LBB261_31>

0000000080205904 <.LBB261_28>:
    80205904:	4489                	li	s1,2
    80205906:	07b00593          	li	a1,123
    8020590a:	b741                	j	8020588a <.LBB261_15>

000000008020590c <.LBB261_29>:
    8020590c:	448d                	li	s1,3
    8020590e:	07500593          	li	a1,117
    80205912:	bfa5                	j	8020588a <.LBB261_15>

0000000080205914 <.LBB261_30>:
    80205914:	4491                	li	s1,4
    80205916:	05c00593          	li	a1,92
    8020591a:	bf85                	j	8020588a <.LBB261_15>

000000008020591c <.LBB261_31>:
    8020591c:	02700593          	li	a1,39
    80205920:	854e                	mv	a0,s3
    80205922:	67a2                	ld	a5,8(sp)
    80205924:	70a6                	ld	ra,104(sp)
    80205926:	7406                	ld	s0,96(sp)
    80205928:	64e6                	ld	s1,88(sp)
    8020592a:	6946                	ld	s2,80(sp)
    8020592c:	69a6                	ld	s3,72(sp)
    8020592e:	6a06                	ld	s4,64(sp)
    80205930:	7ae2                	ld	s5,56(sp)
    80205932:	7b42                	ld	s6,48(sp)
    80205934:	7ba2                	ld	s7,40(sp)
    80205936:	7c02                	ld	s8,32(sp)
    80205938:	6ce2                	ld	s9,24(sp)
    8020593a:	6d42                	ld	s10,16(sp)
    8020593c:	6165                	addi	sp,sp,112
    8020593e:	8782                	jr	a5
    80205940:	00196513          	ori	a0,s2,1
    80205944:	00155593          	srli	a1,a0,0x1
    80205948:	8d4d                	or	a0,a0,a1
    8020594a:	00255593          	srli	a1,a0,0x2
    8020594e:	8d4d                	or	a0,a0,a1
    80205950:	00455593          	srli	a1,a0,0x4
    80205954:	8d4d                	or	a0,a0,a1
    80205956:	00855593          	srli	a1,a0,0x8
    8020595a:	8d4d                	or	a0,a0,a1
    8020595c:	0105559b          	srliw	a1,a0,0x10
    80205960:	8d4d                	or	a0,a0,a1
    80205962:	fff54513          	not	a0,a0
    80205966:	00155593          	srli	a1,a0,0x1
    8020596a:	55555637          	lui	a2,0x55555
    8020596e:	5556061b          	addiw	a2,a2,1365
    80205972:	8df1                	and	a1,a1,a2
    80205974:	9d0d                	subw	a0,a0,a1
    80205976:	333335b7          	lui	a1,0x33333
    8020597a:	3335859b          	addiw	a1,a1,819
    8020597e:	00b57633          	and	a2,a0,a1
    80205982:	8109                	srli	a0,a0,0x2
    80205984:	8d6d                	and	a0,a0,a1
    80205986:	9532                	add	a0,a0,a2
    80205988:	00455593          	srli	a1,a0,0x4
    8020598c:	952e                	add	a0,a0,a1
    8020598e:	0f0f15b7          	lui	a1,0xf0f1
    80205992:	f0f5859b          	addiw	a1,a1,-241
    80205996:	8d6d                	and	a0,a0,a1
    80205998:	010105b7          	lui	a1,0x1010
    8020599c:	1015859b          	addiw	a1,a1,257
    802059a0:	02b5053b          	mulw	a0,a0,a1
    802059a4:	01a5551b          	srliw	a0,a0,0x1a
    802059a8:	00754d13          	xori	s10,a0,7
    802059ac:	844a                	mv	s0,s2
    802059ae:	bd6d                	j	80205868 <.LBB261_13>

00000000802059b0 <_ZN4core5slice6memchr14memchr_aligned17hb7cb49aaa6ca698aE>:
    802059b0:	1141                	addi	sp,sp,-16
    802059b2:	e406                	sd	ra,8(sp)
    802059b4:	00758693          	addi	a3,a1,7 # 1010007 <.Lline_table_start0+0xfe49fc>
    802059b8:	9ae1                	andi	a3,a3,-8
    802059ba:	0ff57813          	andi	a6,a0,255
    802059be:	02b68763          	beq	a3,a1,802059ec <_ZN4core5slice6memchr14memchr_aligned17hb7cb49aaa6ca698aE+0x3c>
    802059c2:	40b68533          	sub	a0,a3,a1
    802059c6:	00c56363          	bltu	a0,a2,802059cc <_ZN4core5slice6memchr14memchr_aligned17hb7cb49aaa6ca698aE+0x1c>
    802059ca:	8532                	mv	a0,a2
    802059cc:	c105                	beqz	a0,802059ec <_ZN4core5slice6memchr14memchr_aligned17hb7cb49aaa6ca698aE+0x3c>
    802059ce:	4681                	li	a3,0
    802059d0:	00d58733          	add	a4,a1,a3
    802059d4:	00074703          	lbu	a4,0(a4)
    802059d8:	09070c63          	beq	a4,a6,80205a70 <.LBB266_24+0x6a>
    802059dc:	0685                	addi	a3,a3,1
    802059de:	fed519e3          	bne	a0,a3,802059d0 <_ZN4core5slice6memchr14memchr_aligned17hb7cb49aaa6ca698aE+0x20>
    802059e2:	ff060893          	addi	a7,a2,-16 # 55554ff0 <.Lline_table_start0+0x555299e5>
    802059e6:	00a8f663          	bgeu	a7,a0,802059f2 <.LBB266_22>
    802059ea:	a095                	j	80205a4e <.LBB266_24+0x48>
    802059ec:	4501                	li	a0,0
    802059ee:	ff060893          	addi	a7,a2,-16

00000000802059f2 <.LBB266_22>:
    802059f2:	00002697          	auipc	a3,0x2
    802059f6:	89668693          	addi	a3,a3,-1898 # 80207288 <.LCPI266_0>
    802059fa:	0006b283          	ld	t0,0(a3)

00000000802059fe <.LBB266_23>:
    802059fe:	00002697          	auipc	a3,0x2
    80205a02:	89268693          	addi	a3,a3,-1902 # 80207290 <.LCPI266_1>

0000000080205a06 <.LBB266_24>:
    80205a06:	00002717          	auipc	a4,0x2
    80205a0a:	89270713          	addi	a4,a4,-1902 # 80207298 <.LCPI266_2>
    80205a0e:	631c                	ld	a5,0(a4)
    80205a10:	0006b303          	ld	t1,0(a3)
    80205a14:	02f803b3          	mul	t2,a6,a5
    80205a18:	00a587b3          	add	a5,a1,a0
    80205a1c:	6398                	ld	a4,0(a5)
    80205a1e:	00774733          	xor	a4,a4,t2
    80205a22:	fff74693          	not	a3,a4
    80205a26:	9716                	add	a4,a4,t0
    80205a28:	0066f6b3          	and	a3,a3,t1
    80205a2c:	8ef9                	and	a3,a3,a4
    80205a2e:	ee91                	bnez	a3,80205a4a <.LBB266_24+0x44>
    80205a30:	6794                	ld	a3,8(a5)
    80205a32:	0076c6b3          	xor	a3,a3,t2
    80205a36:	fff6c713          	not	a4,a3
    80205a3a:	9696                	add	a3,a3,t0
    80205a3c:	00677733          	and	a4,a4,t1
    80205a40:	8ef9                	and	a3,a3,a4
    80205a42:	e681                	bnez	a3,80205a4a <.LBB266_24+0x44>
    80205a44:	0541                	addi	a0,a0,16
    80205a46:	fca8f9e3          	bgeu	a7,a0,80205a18 <.LBB266_24+0x12>
    80205a4a:	02a66963          	bltu	a2,a0,80205a7c <.LBB266_25>
    80205a4e:	00c50b63          	beq	a0,a2,80205a64 <.LBB266_24+0x5e>
    80205a52:	00a586b3          	add	a3,a1,a0
    80205a56:	0006c683          	lbu	a3,0(a3)
    80205a5a:	01068863          	beq	a3,a6,80205a6a <.LBB266_24+0x64>
    80205a5e:	0505                	addi	a0,a0,1
    80205a60:	fea619e3          	bne	a2,a0,80205a52 <.LBB266_24+0x4c>
    80205a64:	4581                	li	a1,0
    80205a66:	86b2                	mv	a3,a2
    80205a68:	a029                	j	80205a72 <.LBB266_24+0x6c>
    80205a6a:	4585                	li	a1,1
    80205a6c:	86aa                	mv	a3,a0
    80205a6e:	a011                	j	80205a72 <.LBB266_24+0x6c>
    80205a70:	4585                	li	a1,1
    80205a72:	852e                	mv	a0,a1
    80205a74:	85b6                	mv	a1,a3
    80205a76:	60a2                	ld	ra,8(sp)
    80205a78:	0141                	addi	sp,sp,16
    80205a7a:	8082                	ret

0000000080205a7c <.LBB266_25>:
    80205a7c:	00005697          	auipc	a3,0x5
    80205a80:	67468693          	addi	a3,a3,1652 # 8020b0f0 <.Lanon.5d7b72655c03d3be6c233dc0a6aa27b8.307>
    80205a84:	85b2                	mv	a1,a2
    80205a86:	8636                	mv	a2,a3
    80205a88:	00000097          	auipc	ra,0x0
    80205a8c:	00a080e7          	jalr	10(ra) # 80205a92 <_ZN4core5slice5index26slice_start_index_len_fail17hdcd879eec8619ea3E>
	...

0000000080205a92 <_ZN4core5slice5index26slice_start_index_len_fail17hdcd879eec8619ea3E>:
    80205a92:	1141                	addi	sp,sp,-16
    80205a94:	e406                	sd	ra,8(sp)
    80205a96:	00000097          	auipc	ra,0x0
    80205a9a:	00a080e7          	jalr	10(ra) # 80205aa0 <_ZN4core5slice5index29slice_start_index_len_fail_rt17h7ca29b4725b4aa4bE>
	...

0000000080205aa0 <_ZN4core5slice5index29slice_start_index_len_fail_rt17h7ca29b4725b4aa4bE>:
    80205aa0:	7159                	addi	sp,sp,-112
    80205aa2:	f486                	sd	ra,104(sp)
    80205aa4:	e42a                	sd	a0,8(sp)
    80205aa6:	e82e                	sd	a1,16(sp)
    80205aa8:	0028                	addi	a0,sp,8
    80205aaa:	e4aa                	sd	a0,72(sp)

0000000080205aac <.LBB276_1>:
    80205aac:	00001517          	auipc	a0,0x1
    80205ab0:	f6650513          	addi	a0,a0,-154 # 80206a12 <_ZN4core3fmt3num3imp52_$LT$impl$u20$core..fmt..Display$u20$for$u20$u64$GT$3fmt17h77ff5d762b7f8e58E>
    80205ab4:	e8aa                	sd	a0,80(sp)
    80205ab6:	080c                	addi	a1,sp,16
    80205ab8:	ecae                	sd	a1,88(sp)
    80205aba:	f0aa                	sd	a0,96(sp)

0000000080205abc <.LBB276_2>:
    80205abc:	00005517          	auipc	a0,0x5
    80205ac0:	68450513          	addi	a0,a0,1668 # 8020b140 <.Lanon.5d7b72655c03d3be6c233dc0a6aa27b8.313>
    80205ac4:	f42a                	sd	a0,40(sp)
    80205ac6:	4509                	li	a0,2
    80205ac8:	f82a                	sd	a0,48(sp)
    80205aca:	ec02                	sd	zero,24(sp)
    80205acc:	00ac                	addi	a1,sp,72
    80205ace:	fc2e                	sd	a1,56(sp)
    80205ad0:	e0aa                	sd	a0,64(sp)
    80205ad2:	0828                	addi	a0,sp,24
    80205ad4:	85b2                	mv	a1,a2
    80205ad6:	fffff097          	auipc	ra,0xfffff
    80205ada:	8ca080e7          	jalr	-1846(ra) # 802043a0 <_ZN4core9panicking9panic_fmt17h09608ae52bd0d3adE>
	...

0000000080205ae0 <_ZN4core5slice5index24slice_end_index_len_fail17h2a7a625b26924207E>:
    80205ae0:	1141                	addi	sp,sp,-16
    80205ae2:	e406                	sd	ra,8(sp)
    80205ae4:	00000097          	auipc	ra,0x0
    80205ae8:	00a080e7          	jalr	10(ra) # 80205aee <_ZN4core5slice5index27slice_end_index_len_fail_rt17ha3641b7805b1a025E>
	...

0000000080205aee <_ZN4core5slice5index27slice_end_index_len_fail_rt17ha3641b7805b1a025E>:
    80205aee:	7159                	addi	sp,sp,-112
    80205af0:	f486                	sd	ra,104(sp)
    80205af2:	e42a                	sd	a0,8(sp)
    80205af4:	e82e                	sd	a1,16(sp)
    80205af6:	0028                	addi	a0,sp,8
    80205af8:	e4aa                	sd	a0,72(sp)

0000000080205afa <.LBB278_1>:
    80205afa:	00001517          	auipc	a0,0x1
    80205afe:	f1850513          	addi	a0,a0,-232 # 80206a12 <_ZN4core3fmt3num3imp52_$LT$impl$u20$core..fmt..Display$u20$for$u20$u64$GT$3fmt17h77ff5d762b7f8e58E>
    80205b02:	e8aa                	sd	a0,80(sp)
    80205b04:	080c                	addi	a1,sp,16
    80205b06:	ecae                	sd	a1,88(sp)
    80205b08:	f0aa                	sd	a0,96(sp)

0000000080205b0a <.LBB278_2>:
    80205b0a:	00005517          	auipc	a0,0x5
    80205b0e:	65650513          	addi	a0,a0,1622 # 8020b160 <.Lanon.5d7b72655c03d3be6c233dc0a6aa27b8.315>
    80205b12:	f42a                	sd	a0,40(sp)
    80205b14:	4509                	li	a0,2
    80205b16:	f82a                	sd	a0,48(sp)
    80205b18:	ec02                	sd	zero,24(sp)
    80205b1a:	00ac                	addi	a1,sp,72
    80205b1c:	fc2e                	sd	a1,56(sp)
    80205b1e:	e0aa                	sd	a0,64(sp)
    80205b20:	0828                	addi	a0,sp,24
    80205b22:	85b2                	mv	a1,a2
    80205b24:	fffff097          	auipc	ra,0xfffff
    80205b28:	87c080e7          	jalr	-1924(ra) # 802043a0 <_ZN4core9panicking9panic_fmt17h09608ae52bd0d3adE>
	...

0000000080205b2e <_ZN4core5slice5index22slice_index_order_fail17h5e40dbaf83b6bef2E>:
    80205b2e:	1141                	addi	sp,sp,-16
    80205b30:	e406                	sd	ra,8(sp)
    80205b32:	00000097          	auipc	ra,0x0
    80205b36:	00a080e7          	jalr	10(ra) # 80205b3c <_ZN4core5slice5index25slice_index_order_fail_rt17he1c4341b983acd8bE>
	...

0000000080205b3c <_ZN4core5slice5index25slice_index_order_fail_rt17he1c4341b983acd8bE>:
    80205b3c:	7159                	addi	sp,sp,-112
    80205b3e:	f486                	sd	ra,104(sp)
    80205b40:	e42a                	sd	a0,8(sp)
    80205b42:	e82e                	sd	a1,16(sp)
    80205b44:	0028                	addi	a0,sp,8
    80205b46:	e4aa                	sd	a0,72(sp)

0000000080205b48 <.LBB280_1>:
    80205b48:	00001517          	auipc	a0,0x1
    80205b4c:	eca50513          	addi	a0,a0,-310 # 80206a12 <_ZN4core3fmt3num3imp52_$LT$impl$u20$core..fmt..Display$u20$for$u20$u64$GT$3fmt17h77ff5d762b7f8e58E>
    80205b50:	e8aa                	sd	a0,80(sp)
    80205b52:	080c                	addi	a1,sp,16
    80205b54:	ecae                	sd	a1,88(sp)
    80205b56:	f0aa                	sd	a0,96(sp)

0000000080205b58 <.LBB280_2>:
    80205b58:	00005517          	auipc	a0,0x5
    80205b5c:	65050513          	addi	a0,a0,1616 # 8020b1a8 <.Lanon.5d7b72655c03d3be6c233dc0a6aa27b8.318>
    80205b60:	f42a                	sd	a0,40(sp)
    80205b62:	4509                	li	a0,2
    80205b64:	f82a                	sd	a0,48(sp)
    80205b66:	ec02                	sd	zero,24(sp)
    80205b68:	00ac                	addi	a1,sp,72
    80205b6a:	fc2e                	sd	a1,56(sp)
    80205b6c:	e0aa                	sd	a0,64(sp)
    80205b6e:	0828                	addi	a0,sp,24
    80205b70:	85b2                	mv	a1,a2
    80205b72:	fffff097          	auipc	ra,0xfffff
    80205b76:	82e080e7          	jalr	-2002(ra) # 802043a0 <_ZN4core9panicking9panic_fmt17h09608ae52bd0d3adE>
	...

0000000080205b7c <_ZN4core3str8converts9from_utf817h41c2ca4493b63f8bE>:
    80205b7c:	715d                	addi	sp,sp,-80
    80205b7e:	e4a2                	sd	s0,72(sp)
    80205b80:	e0a6                	sd	s1,64(sp)
    80205b82:	fc4a                	sd	s2,56(sp)
    80205b84:	f84e                	sd	s3,48(sp)
    80205b86:	f452                	sd	s4,40(sp)
    80205b88:	f056                	sd	s5,32(sp)
    80205b8a:	ec5a                	sd	s6,24(sp)
    80205b8c:	e85e                	sd	s7,16(sp)
    80205b8e:	e462                	sd	s8,8(sp)
    80205b90:	e066                	sd	s9,0(sp)
    80205b92:	ff160693          	addi	a3,a2,-15
    80205b96:	4c81                	li	s9,0
    80205b98:	00d66363          	bltu	a2,a3,80205b9e <_ZN4core3str8converts9from_utf817h41c2ca4493b63f8bE+0x22>
    80205b9c:	8cb6                	mv	s9,a3
    80205b9e:	1a060a63          	beqz	a2,80205d52 <.LBB288_50+0x19a>
    80205ba2:	4681                	li	a3,0
    80205ba4:	00758713          	addi	a4,a1,7
    80205ba8:	9b61                	andi	a4,a4,-8
    80205baa:	40b70833          	sub	a6,a4,a1

0000000080205bae <.LBB288_49>:
    80205bae:	00001717          	auipc	a4,0x1
    80205bb2:	70a70713          	addi	a4,a4,1802 # 802072b8 <.LCPI288_0>
    80205bb6:	631c                	ld	a5,0(a4)

0000000080205bb8 <.LBB288_50>:
    80205bb8:	00005897          	auipc	a7,0x5
    80205bbc:	61088893          	addi	a7,a7,1552 # 8020b1c8 <.Lanon.5d7b72655c03d3be6c233dc0a6aa27b8.336>
    80205bc0:	4291                	li	t0,4
    80205bc2:	0f000313          	li	t1,240
    80205bc6:	03000393          	li	t2,48
    80205bca:	fbf00e13          	li	t3,-65
    80205bce:	0f400e93          	li	t4,244
    80205bd2:	f8f00f13          	li	t5,-113
    80205bd6:	4f8d                	li	t6,3
    80205bd8:	0e000a93          	li	s5,224
    80205bdc:	fa000913          	li	s2,-96
    80205be0:	0ed00a13          	li	s4,237
    80205be4:	49b1                	li	s3,12
    80205be6:	4b09                	li	s6,2
    80205be8:	4b85                	li	s7,1
    80205bea:	a021                	j	80205bf2 <.LBB288_50+0x3a>
    80205bec:	0685                	addi	a3,a3,1
    80205bee:	16c6f263          	bgeu	a3,a2,80205d52 <.LBB288_50+0x19a>
    80205bf2:	00d58733          	add	a4,a1,a3
    80205bf6:	00074403          	lbu	s0,0(a4)
    80205bfa:	03841713          	slli	a4,s0,0x38
    80205bfe:	43875493          	srai	s1,a4,0x38
    80205c02:	0404c663          	bltz	s1,80205c4e <.LBB288_50+0x96>
    80205c06:	00180713          	addi	a4,a6,1 # 110001 <.Lline_table_start0+0xe49f6>
    80205c0a:	00e03733          	snez	a4,a4
    80205c0e:	40d8043b          	subw	s0,a6,a3
    80205c12:	881d                	andi	s0,s0,7
    80205c14:	00143413          	seqz	s0,s0
    80205c18:	8f61                	and	a4,a4,s0
    80205c1a:	db69                	beqz	a4,80205bec <.LBB288_50+0x34>
    80205c1c:	0196fd63          	bgeu	a3,s9,80205c36 <.LBB288_50+0x7e>
    80205c20:	00d58733          	add	a4,a1,a3
    80205c24:	6300                	ld	s0,0(a4)
    80205c26:	8c7d                	and	s0,s0,a5
    80205c28:	e419                	bnez	s0,80205c36 <.LBB288_50+0x7e>
    80205c2a:	6718                	ld	a4,8(a4)
    80205c2c:	8f7d                	and	a4,a4,a5
    80205c2e:	e701                	bnez	a4,80205c36 <.LBB288_50+0x7e>
    80205c30:	06c1                	addi	a3,a3,16
    80205c32:	ff96e7e3          	bltu	a3,s9,80205c20 <.LBB288_50+0x68>
    80205c36:	10c6fc63          	bgeu	a3,a2,80205d4e <.LBB288_50+0x196>
    80205c3a:	00d58733          	add	a4,a1,a3
    80205c3e:	00070703          	lb	a4,0(a4)
    80205c42:	10074663          	bltz	a4,80205d4e <.LBB288_50+0x196>
    80205c46:	0685                	addi	a3,a3,1
    80205c48:	fed619e3          	bne	a2,a3,80205c3a <.LBB288_50+0x82>
    80205c4c:	a219                	j	80205d52 <.LBB288_50+0x19a>
    80205c4e:	00888733          	add	a4,a7,s0
    80205c52:	00074703          	lbu	a4,0(a4)
    80205c56:	02570263          	beq	a4,t0,80205c7a <.LBB288_50+0xc2>
    80205c5a:	03f70e63          	beq	a4,t6,80205c96 <.LBB288_50+0xde>
    80205c5e:	11671d63          	bne	a4,s6,80205d78 <.LBB288_50+0x1c0>
    80205c62:	00168413          	addi	s0,a3,1
    80205c66:	10c47663          	bgeu	s0,a2,80205d72 <.LBB288_50+0x1ba>
    80205c6a:	00858733          	add	a4,a1,s0
    80205c6e:	00070703          	lb	a4,0(a4)
    80205c72:	4485                	li	s1,1
    80205c74:	0cee5b63          	bge	t3,a4,80205d4a <.LBB288_50+0x192>
    80205c78:	a229                	j	80205d82 <.LBB288_50+0x1ca>
    80205c7a:	00168713          	addi	a4,a3,1
    80205c7e:	0ec77c63          	bgeu	a4,a2,80205d76 <.LBB288_50+0x1be>
    80205c82:	972e                	add	a4,a4,a1
    80205c84:	00070c03          	lb	s8,0(a4)
    80205c88:	02640563          	beq	s0,t1,80205cb2 <.LBB288_50+0xfa>
    80205c8c:	03d41a63          	bne	s0,t4,80205cc0 <.LBB288_50+0x108>
    80205c90:	058f5563          	bge	t5,s8,80205cda <.LBB288_50+0x122>
    80205c94:	a0d5                	j	80205d78 <.LBB288_50+0x1c0>
    80205c96:	00168713          	addi	a4,a3,1
    80205c9a:	0cc77e63          	bgeu	a4,a2,80205d76 <.LBB288_50+0x1be>
    80205c9e:	972e                	add	a4,a4,a1
    80205ca0:	00070c03          	lb	s8,0(a4)
    80205ca4:	05540f63          	beq	s0,s5,80205d02 <.LBB288_50+0x14a>
    80205ca8:	07441263          	bne	s0,s4,80205d0c <.LBB288_50+0x154>
    80205cac:	092c4563          	blt	s8,s2,80205d36 <.LBB288_50+0x17e>
    80205cb0:	a0e1                	j	80205d78 <.LBB288_50+0x1c0>
    80205cb2:	070c071b          	addiw	a4,s8,112
    80205cb6:	0ff77713          	andi	a4,a4,255
    80205cba:	02776063          	bltu	a4,t2,80205cda <.LBB288_50+0x122>
    80205cbe:	a86d                	j	80205d78 <.LBB288_50+0x1c0>
    80205cc0:	00f4871b          	addiw	a4,s1,15
    80205cc4:	0ff77713          	andi	a4,a4,255
    80205cc8:	00373713          	sltiu	a4,a4,3
    80205ccc:	000c2413          	slti	s0,s8,0
    80205cd0:	8f61                	and	a4,a4,s0
    80205cd2:	fc0c3413          	sltiu	s0,s8,-64
    80205cd6:	8f61                	and	a4,a4,s0
    80205cd8:	c345                	beqz	a4,80205d78 <.LBB288_50+0x1c0>
    80205cda:	00268713          	addi	a4,a3,2
    80205cde:	08c77a63          	bgeu	a4,a2,80205d72 <.LBB288_50+0x1ba>
    80205ce2:	972e                	add	a4,a4,a1
    80205ce4:	00070703          	lb	a4,0(a4)
    80205ce8:	08ee4a63          	blt	t3,a4,80205d7c <.LBB288_50+0x1c4>
    80205cec:	00368413          	addi	s0,a3,3
    80205cf0:	08c47163          	bgeu	s0,a2,80205d72 <.LBB288_50+0x1ba>
    80205cf4:	00858733          	add	a4,a1,s0
    80205cf8:	00070703          	lb	a4,0(a4)
    80205cfc:	04ee5763          	bge	t3,a4,80205d4a <.LBB288_50+0x192>
    80205d00:	a041                	j	80205d80 <.LBB288_50+0x1c8>
    80205d02:	fe0c7713          	andi	a4,s8,-32
    80205d06:	03270863          	beq	a4,s2,80205d36 <.LBB288_50+0x17e>
    80205d0a:	a0bd                	j	80205d78 <.LBB288_50+0x1c0>
    80205d0c:	01f4871b          	addiw	a4,s1,31
    80205d10:	0ff77713          	andi	a4,a4,255
    80205d14:	01377563          	bgeu	a4,s3,80205d1e <.LBB288_50+0x166>
    80205d18:	018e5f63          	bge	t3,s8,80205d36 <.LBB288_50+0x17e>
    80205d1c:	a8b1                	j	80205d78 <.LBB288_50+0x1c0>
    80205d1e:	ffe4f713          	andi	a4,s1,-2
    80205d22:	0749                	addi	a4,a4,18
    80205d24:	00173713          	seqz	a4,a4
    80205d28:	000c2413          	slti	s0,s8,0
    80205d2c:	8f61                	and	a4,a4,s0
    80205d2e:	fc0c3413          	sltiu	s0,s8,-64
    80205d32:	8f61                	and	a4,a4,s0
    80205d34:	c331                	beqz	a4,80205d78 <.LBB288_50+0x1c0>
    80205d36:	00268413          	addi	s0,a3,2
    80205d3a:	02c47c63          	bgeu	s0,a2,80205d72 <.LBB288_50+0x1ba>
    80205d3e:	00858733          	add	a4,a1,s0
    80205d42:	00070703          	lb	a4,0(a4)
    80205d46:	02ee4b63          	blt	t3,a4,80205d7c <.LBB288_50+0x1c4>
    80205d4a:	00140693          	addi	a3,s0,1 # 110001 <.Lline_table_start0+0xe49f6>
    80205d4e:	eac6e2e3          	bltu	a3,a2,80205bf2 <.LBB288_50+0x3a>
    80205d52:	4681                	li	a3,0
    80205d54:	e50c                	sd	a1,8(a0)
    80205d56:	e910                	sd	a2,16(a0)
    80205d58:	e114                	sd	a3,0(a0)
    80205d5a:	6426                	ld	s0,72(sp)
    80205d5c:	6486                	ld	s1,64(sp)
    80205d5e:	7962                	ld	s2,56(sp)
    80205d60:	79c2                	ld	s3,48(sp)
    80205d62:	7a22                	ld	s4,40(sp)
    80205d64:	7a82                	ld	s5,32(sp)
    80205d66:	6b62                	ld	s6,24(sp)
    80205d68:	6bc2                	ld	s7,16(sp)
    80205d6a:	6c22                	ld	s8,8(sp)
    80205d6c:	6c82                	ld	s9,0(sp)
    80205d6e:	6161                	addi	sp,sp,80
    80205d70:	8082                	ret
    80205d72:	4b81                	li	s7,0
    80205d74:	a039                	j	80205d82 <.LBB288_50+0x1ca>
    80205d76:	4b81                	li	s7,0
    80205d78:	4485                	li	s1,1
    80205d7a:	a021                	j	80205d82 <.LBB288_50+0x1ca>
    80205d7c:	4489                	li	s1,2
    80205d7e:	a011                	j	80205d82 <.LBB288_50+0x1ca>
    80205d80:	448d                	li	s1,3
    80205d82:	e514                	sd	a3,8(a0)
    80205d84:	01750823          	sb	s7,16(a0)
    80205d88:	009508a3          	sb	s1,17(a0)
    80205d8c:	4685                	li	a3,1
    80205d8e:	b7e9                	j	80205d58 <.LBB288_50+0x1a0>

0000000080205d90 <_ZN4core3str5count14do_count_chars17h75bffc8ce7e643c7E>:
    80205d90:	862a                	mv	a2,a0
    80205d92:	051d                	addi	a0,a0,7
    80205d94:	ff857713          	andi	a4,a0,-8
    80205d98:	40c708b3          	sub	a7,a4,a2
    80205d9c:	0115ec63          	bltu	a1,a7,80205db4 <_ZN4core3str5count14do_count_chars17h75bffc8ce7e643c7E+0x24>
    80205da0:	41158833          	sub	a6,a1,a7
    80205da4:	00883513          	sltiu	a0,a6,8
    80205da8:	0098b793          	sltiu	a5,a7,9
    80205dac:	0017c793          	xori	a5,a5,1
    80205db0:	8d5d                	or	a0,a0,a5
    80205db2:	cd11                	beqz	a0,80205dce <_ZN4core3str5count14do_count_chars17h75bffc8ce7e643c7E+0x3e>
    80205db4:	4501                	li	a0,0
    80205db6:	c999                	beqz	a1,80205dcc <_ZN4core3str5count14do_count_chars17h75bffc8ce7e643c7E+0x3c>
    80205db8:	00060683          	lb	a3,0(a2)
    80205dbc:	0605                	addi	a2,a2,1
    80205dbe:	fc06a693          	slti	a3,a3,-64
    80205dc2:	0016c693          	xori	a3,a3,1
    80205dc6:	15fd                	addi	a1,a1,-1
    80205dc8:	9536                	add	a0,a0,a3
    80205dca:	f5fd                	bnez	a1,80205db8 <_ZN4core3str5count14do_count_chars17h75bffc8ce7e643c7E+0x28>
    80205dcc:	8082                	ret
    80205dce:	00787593          	andi	a1,a6,7
    80205dd2:	4781                	li	a5,0
    80205dd4:	00c70f63          	beq	a4,a2,80205df2 <_ZN4core3str5count14do_count_chars17h75bffc8ce7e643c7E+0x62>
    80205dd8:	40e60733          	sub	a4,a2,a4
    80205ddc:	8532                	mv	a0,a2
    80205dde:	00050683          	lb	a3,0(a0)
    80205de2:	0505                	addi	a0,a0,1
    80205de4:	fc06a693          	slti	a3,a3,-64
    80205de8:	0016c693          	xori	a3,a3,1
    80205dec:	0705                	addi	a4,a4,1
    80205dee:	97b6                	add	a5,a5,a3
    80205df0:	f77d                	bnez	a4,80205dde <_ZN4core3str5count14do_count_chars17h75bffc8ce7e643c7E+0x4e>
    80205df2:	011602b3          	add	t0,a2,a7
    80205df6:	4601                	li	a2,0
    80205df8:	cd99                	beqz	a1,80205e16 <_ZN4core3str5count14do_count_chars17h75bffc8ce7e643c7E+0x86>
    80205dfa:	ff887513          	andi	a0,a6,-8
    80205dfe:	00a286b3          	add	a3,t0,a0
    80205e02:	00068503          	lb	a0,0(a3)
    80205e06:	0685                	addi	a3,a3,1
    80205e08:	fc052513          	slti	a0,a0,-64
    80205e0c:	00154513          	xori	a0,a0,1
    80205e10:	15fd                	addi	a1,a1,-1
    80205e12:	962a                	add	a2,a2,a0
    80205e14:	f5fd                	bnez	a1,80205e02 <_ZN4core3str5count14do_count_chars17h75bffc8ce7e643c7E+0x72>
    80205e16:	00385713          	srli	a4,a6,0x3

0000000080205e1a <.LBB290_27>:
    80205e1a:	00001517          	auipc	a0,0x1
    80205e1e:	4ae50513          	addi	a0,a0,1198 # 802072c8 <.LCPI290_0>
    80205e22:	00053f03          	ld	t5,0(a0)

0000000080205e26 <.LBB290_28>:
    80205e26:	00001517          	auipc	a0,0x1
    80205e2a:	4aa50513          	addi	a0,a0,1194 # 802072d0 <.LCPI290_1>
    80205e2e:	00053883          	ld	a7,0(a0)
    80205e32:	10001537          	lui	a0,0x10001
    80205e36:	0512                	slli	a0,a0,0x4
    80205e38:	0505                	addi	a0,a0,1
    80205e3a:	0542                	slli	a0,a0,0x10
    80205e3c:	00150813          	addi	a6,a0,1 # 10001001 <.Lline_table_start0+0xffd59f6>
    80205e40:	00f60533          	add	a0,a2,a5
    80205e44:	a025                	j	80205e6c <.LBB290_28+0x46>
    80205e46:	003e1613          	slli	a2,t3,0x3
    80205e4a:	00c302b3          	add	t0,t1,a2
    80205e4e:	41c38733          	sub	a4,t2,t3
    80205e52:	003e7613          	andi	a2,t3,3
    80205e56:	0115f6b3          	and	a3,a1,a7
    80205e5a:	81a1                	srli	a1,a1,0x8
    80205e5c:	0115f5b3          	and	a1,a1,a7
    80205e60:	95b6                	add	a1,a1,a3
    80205e62:	030585b3          	mul	a1,a1,a6
    80205e66:	91c1                	srli	a1,a1,0x30
    80205e68:	952e                	add	a0,a0,a1
    80205e6a:	e241                	bnez	a2,80205eea <.LBB290_28+0xc4>
    80205e6c:	d325                	beqz	a4,80205dcc <_ZN4core3str5count14do_count_chars17h75bffc8ce7e643c7E+0x3c>
    80205e6e:	83ba                	mv	t2,a4
    80205e70:	8316                	mv	t1,t0
    80205e72:	0c000593          	li	a1,192
    80205e76:	8e3a                	mv	t3,a4
    80205e78:	00b76463          	bltu	a4,a1,80205e80 <.LBB290_28+0x5a>
    80205e7c:	0c000e13          	li	t3,192
    80205e80:	0fce7593          	andi	a1,t3,252
    80205e84:	00359613          	slli	a2,a1,0x3
    80205e88:	00c30eb3          	add	t4,t1,a2
    80205e8c:	ddcd                	beqz	a1,80205e46 <.LBB290_28+0x20>
    80205e8e:	4581                	li	a1,0
    80205e90:	861a                	mv	a2,t1
    80205e92:	da55                	beqz	a2,80205e46 <.LBB290_28+0x20>
    80205e94:	6218                	ld	a4,0(a2)
    80205e96:	fff74793          	not	a5,a4
    80205e9a:	839d                	srli	a5,a5,0x7
    80205e9c:	8319                	srli	a4,a4,0x6
    80205e9e:	6614                	ld	a3,8(a2)
    80205ea0:	8f5d                	or	a4,a4,a5
    80205ea2:	01e77733          	and	a4,a4,t5
    80205ea6:	95ba                	add	a1,a1,a4
    80205ea8:	fff6c713          	not	a4,a3
    80205eac:	831d                	srli	a4,a4,0x7
    80205eae:	8299                	srli	a3,a3,0x6
    80205eb0:	6a1c                	ld	a5,16(a2)
    80205eb2:	8ed9                	or	a3,a3,a4
    80205eb4:	01e6f6b3          	and	a3,a3,t5
    80205eb8:	95b6                	add	a1,a1,a3
    80205eba:	fff7c693          	not	a3,a5
    80205ebe:	829d                	srli	a3,a3,0x7
    80205ec0:	0067d713          	srli	a4,a5,0x6
    80205ec4:	6e1c                	ld	a5,24(a2)
    80205ec6:	8ed9                	or	a3,a3,a4
    80205ec8:	01e6f6b3          	and	a3,a3,t5
    80205ecc:	95b6                	add	a1,a1,a3
    80205ece:	fff7c693          	not	a3,a5
    80205ed2:	829d                	srli	a3,a3,0x7
    80205ed4:	0067d713          	srli	a4,a5,0x6
    80205ed8:	8ed9                	or	a3,a3,a4
    80205eda:	01e6f6b3          	and	a3,a3,t5
    80205ede:	02060613          	addi	a2,a2,32
    80205ee2:	95b6                	add	a1,a1,a3
    80205ee4:	fbd617e3          	bne	a2,t4,80205e92 <.LBB290_28+0x6c>
    80205ee8:	bfb9                	j	80205e46 <.LBB290_28+0x20>
    80205eea:	02030a63          	beqz	t1,80205f1e <.LBB290_28+0xf8>
    80205eee:	0c000593          	li	a1,192
    80205ef2:	00b3e463          	bltu	t2,a1,80205efa <.LBB290_28+0xd4>
    80205ef6:	0c000393          	li	t2,192
    80205efa:	4581                	li	a1,0
    80205efc:	0033f613          	andi	a2,t2,3
    80205f00:	060e                	slli	a2,a2,0x3
    80205f02:	000eb683          	ld	a3,0(t4)
    80205f06:	0ea1                	addi	t4,t4,8
    80205f08:	fff6c713          	not	a4,a3
    80205f0c:	831d                	srli	a4,a4,0x7
    80205f0e:	8299                	srli	a3,a3,0x6
    80205f10:	8ed9                	or	a3,a3,a4
    80205f12:	01e6f6b3          	and	a3,a3,t5
    80205f16:	1661                	addi	a2,a2,-8
    80205f18:	95b6                	add	a1,a1,a3
    80205f1a:	f665                	bnez	a2,80205f02 <.LBB290_28+0xdc>
    80205f1c:	a011                	j	80205f20 <.LBB290_28+0xfa>
    80205f1e:	4581                	li	a1,0
    80205f20:	0115f633          	and	a2,a1,a7
    80205f24:	81a1                	srli	a1,a1,0x8
    80205f26:	0115f5b3          	and	a1,a1,a7
    80205f2a:	95b2                	add	a1,a1,a2
    80205f2c:	030585b3          	mul	a1,a1,a6
    80205f30:	91c1                	srli	a1,a1,0x30
    80205f32:	952e                	add	a0,a0,a1
    80205f34:	8082                	ret

0000000080205f36 <_ZN4core3str16slice_error_fail17h7fc1b29dd4a5b4e7E>:
    80205f36:	1141                	addi	sp,sp,-16
    80205f38:	e406                	sd	ra,8(sp)
    80205f3a:	00000097          	auipc	ra,0x0
    80205f3e:	00a080e7          	jalr	10(ra) # 80205f44 <_ZN4core3str19slice_error_fail_rt17h8999e4dfb58a9bf3E>
	...

0000000080205f44 <_ZN4core3str19slice_error_fail_rt17h8999e4dfb58a9bf3E>:
    80205f44:	7115                	addi	sp,sp,-224
    80205f46:	ed86                	sd	ra,216(sp)
    80205f48:	e432                	sd	a2,8(sp)
    80205f4a:	10100293          	li	t0,257
    80205f4e:	e836                	sd	a3,16(sp)
    80205f50:	0255ed63          	bltu	a1,t0,80205f8a <.LBB312_49+0xa>
    80205f54:	fbf00813          	li	a6,-65
    80205f58:	005508b3          	add	a7,a0,t0
    80205f5c:	fff88883          	lb	a7,-1(a7)
    80205f60:	12fd                	addi	t0,t0,-1
    80205f62:	ff185be3          	bge	a6,a7,80205f58 <_ZN4core3str19slice_error_fail_rt17h8999e4dfb58a9bf3E+0x14>
    80205f66:	02b2f663          	bgeu	t0,a1,80205f92 <.LBB312_49+0x12>
    80205f6a:	005507b3          	add	a5,a0,t0
    80205f6e:	00078803          	lb	a6,0(a5)
    80205f72:	fbf00793          	li	a5,-65
    80205f76:	0b07d963          	bge	a5,a6,80206028 <.LBB312_56+0xe>
    80205f7a:	ec2a                	sd	a0,24(sp)
    80205f7c:	f016                	sd	t0,32(sp)
    80205f7e:	4815                	li	a6,5

0000000080205f80 <.LBB312_49>:
    80205f80:	00005797          	auipc	a5,0x5
    80205f84:	34878793          	addi	a5,a5,840 # 8020b2c8 <.Lanon.5d7b72655c03d3be6c233dc0a6aa27b8.382>
    80205f88:	a831                	j	80205fa4 <.LBB312_50+0x8>
    80205f8a:	4801                	li	a6,0
    80205f8c:	ec2a                	sd	a0,24(sp)
    80205f8e:	f02e                	sd	a1,32(sp)
    80205f90:	a031                	j	80205f9c <.LBB312_50>
    80205f92:	08559b63          	bne	a1,t0,80206028 <.LBB312_56+0xe>
    80205f96:	4801                	li	a6,0
    80205f98:	ec2a                	sd	a0,24(sp)
    80205f9a:	f016                	sd	t0,32(sp)

0000000080205f9c <.LBB312_50>:
    80205f9c:	00005797          	auipc	a5,0x5
    80205fa0:	d6478793          	addi	a5,a5,-668 # 8020ad00 <.Lanon.5d7b72655c03d3be6c233dc0a6aa27b8.94>
    80205fa4:	f43e                	sd	a5,40(sp)
    80205fa6:	00c5b8b3          	sltu	a7,a1,a2
    80205faa:	00d5b7b3          	sltu	a5,a1,a3
    80205fae:	00f8e7b3          	or	a5,a7,a5
    80205fb2:	f842                	sd	a6,48(sp)
    80205fb4:	cf8d                	beqz	a5,80205fee <.LBB312_53+0xe>
    80205fb6:	00c5e363          	bltu	a1,a2,80205fbc <.LBB312_50+0x20>
    80205fba:	8636                	mv	a2,a3
    80205fbc:	e4b2                	sd	a2,72(sp)
    80205fbe:	00a8                	addi	a0,sp,72
    80205fc0:	e52a                	sd	a0,136(sp)

0000000080205fc2 <.LBB312_51>:
    80205fc2:	00001517          	auipc	a0,0x1
    80205fc6:	a5050513          	addi	a0,a0,-1456 # 80206a12 <_ZN4core3fmt3num3imp52_$LT$impl$u20$core..fmt..Display$u20$for$u20$u64$GT$3fmt17h77ff5d762b7f8e58E>
    80205fca:	e92a                	sd	a0,144(sp)
    80205fcc:	0828                	addi	a0,sp,24
    80205fce:	ed2a                	sd	a0,152(sp)

0000000080205fd0 <.LBB312_52>:
    80205fd0:	00001517          	auipc	a0,0x1
    80205fd4:	bec50513          	addi	a0,a0,-1044 # 80206bbc <_ZN44_$LT$$RF$T$u20$as$u20$core..fmt..Display$GT$3fmt17hcf3c30afa59af89fE>
    80205fd8:	f12a                	sd	a0,160(sp)
    80205fda:	102c                	addi	a1,sp,40
    80205fdc:	f52e                	sd	a1,168(sp)
    80205fde:	f92a                	sd	a0,176(sp)

0000000080205fe0 <.LBB312_53>:
    80205fe0:	00005517          	auipc	a0,0x5
    80205fe4:	31050513          	addi	a0,a0,784 # 8020b2f0 <.Lanon.5d7b72655c03d3be6c233dc0a6aa27b8.385>
    80205fe8:	f4aa                	sd	a0,104(sp)
    80205fea:	450d                	li	a0,3
    80205fec:	aaf9                	j	802061ca <.LBB312_63+0xc>
    80205fee:	04c6f463          	bgeu	a3,a2,80206036 <.LBB312_56+0x1c>
    80205ff2:	0028                	addi	a0,sp,8
    80205ff4:	e52a                	sd	a0,136(sp)

0000000080205ff6 <.LBB312_54>:
    80205ff6:	00001517          	auipc	a0,0x1
    80205ffa:	a1c50513          	addi	a0,a0,-1508 # 80206a12 <_ZN4core3fmt3num3imp52_$LT$impl$u20$core..fmt..Display$u20$for$u20$u64$GT$3fmt17h77ff5d762b7f8e58E>
    80205ffe:	e92a                	sd	a0,144(sp)
    80206000:	080c                	addi	a1,sp,16
    80206002:	ed2e                	sd	a1,152(sp)
    80206004:	f12a                	sd	a0,160(sp)
    80206006:	0828                	addi	a0,sp,24
    80206008:	f52a                	sd	a0,168(sp)

000000008020600a <.LBB312_55>:
    8020600a:	00001517          	auipc	a0,0x1
    8020600e:	bb250513          	addi	a0,a0,-1102 # 80206bbc <_ZN44_$LT$$RF$T$u20$as$u20$core..fmt..Display$GT$3fmt17hcf3c30afa59af89fE>
    80206012:	f92a                	sd	a0,176(sp)
    80206014:	102c                	addi	a1,sp,40
    80206016:	fd2e                	sd	a1,184(sp)
    80206018:	e1aa                	sd	a0,192(sp)

000000008020601a <.LBB312_56>:
    8020601a:	00005517          	auipc	a0,0x5
    8020601e:	31650513          	addi	a0,a0,790 # 8020b330 <.Lanon.5d7b72655c03d3be6c233dc0a6aa27b8.389>
    80206022:	f4aa                	sd	a0,104(sp)
    80206024:	4511                	li	a0,4
    80206026:	a255                	j	802061ca <.LBB312_63+0xc>
    80206028:	4601                	li	a2,0
    8020602a:	8696                	mv	a3,t0
    8020602c:	00000097          	auipc	ra,0x0
    80206030:	f0a080e7          	jalr	-246(ra) # 80205f36 <_ZN4core3str16slice_error_fail17h7fc1b29dd4a5b4e7E>
    80206034:	0000                	unimp
    80206036:	ea1d                	bnez	a2,8020606c <.LBB312_57+0x16>
    80206038:	8636                	mv	a2,a3
    8020603a:	fc32                	sd	a2,56(sp)
    8020603c:	86ae                	mv	a3,a1
    8020603e:	06b67263          	bgeu	a2,a1,802060a2 <.LBB312_57+0x4c>
    80206042:	ffd60793          	addi	a5,a2,-3
    80206046:	4681                	li	a3,0
    80206048:	00f66363          	bltu	a2,a5,8020604e <.LBB312_56+0x34>
    8020604c:	86be                	mv	a3,a5
    8020604e:	00160793          	addi	a5,a2,1
    80206052:	02d7f863          	bgeu	a5,a3,80206082 <.LBB312_57+0x2c>

0000000080206056 <.LBB312_57>:
    80206056:	00005617          	auipc	a2,0x5
    8020605a:	3ba60613          	addi	a2,a2,954 # 8020b410 <.Lanon.5d7b72655c03d3be6c233dc0a6aa27b8.395>
    8020605e:	8536                	mv	a0,a3
    80206060:	85be                	mv	a1,a5
    80206062:	00000097          	auipc	ra,0x0
    80206066:	acc080e7          	jalr	-1332(ra) # 80205b2e <_ZN4core5slice5index22slice_index_order_fail17h5e40dbaf83b6bef2E>
    8020606a:	0000                	unimp
    8020606c:	04b67d63          	bgeu	a2,a1,802060c6 <.LBB312_57+0x70>
    80206070:	00c507b3          	add	a5,a0,a2
    80206074:	00078803          	lb	a6,0(a5)
    80206078:	fc000793          	li	a5,-64
    8020607c:	faf85ee3          	bge	a6,a5,80206038 <.LBB312_56+0x1e>
    80206080:	bf6d                	j	8020603a <.LBB312_56+0x20>
    80206082:	96aa                	add	a3,a3,a0
    80206084:	97aa                	add	a5,a5,a0
    80206086:	40d786b3          	sub	a3,a5,a3
    8020608a:	fc000813          	li	a6,-64
    8020608e:	00c507b3          	add	a5,a0,a2
    80206092:	00078783          	lb	a5,0(a5)
    80206096:	16fd                	addi	a3,a3,-1
    80206098:	167d                	addi	a2,a2,-1
    8020609a:	ff07cae3          	blt	a5,a6,8020608e <.LBB312_57+0x38>
    8020609e:	00160693          	addi	a3,a2,1
    802060a2:	c69d                	beqz	a3,802060d0 <.LBB312_57+0x7a>
    802060a4:	02b6f463          	bgeu	a3,a1,802060cc <.LBB312_57+0x76>
    802060a8:	00d50633          	add	a2,a0,a3
    802060ac:	00060603          	lb	a2,0(a2)
    802060b0:	fbf00793          	li	a5,-65
    802060b4:	00c7ce63          	blt	a5,a2,802060d0 <.LBB312_57+0x7a>
    802060b8:	8636                	mv	a2,a3
    802060ba:	86ae                	mv	a3,a1
    802060bc:	00000097          	auipc	ra,0x0
    802060c0:	e7a080e7          	jalr	-390(ra) # 80205f36 <_ZN4core3str16slice_error_fail17h7fc1b29dd4a5b4e7E>
    802060c4:	0000                	unimp
    802060c6:	f6b609e3          	beq	a2,a1,80206038 <.LBB312_56+0x1e>
    802060ca:	bf85                	j	8020603a <.LBB312_56+0x20>
    802060cc:	feb696e3          	bne	a3,a1,802060b8 <.LBB312_57+0x62>
    802060d0:	00b69e63          	bne	a3,a1,802060ec <.LBB312_58+0x18>

00000000802060d4 <.LBB312_58>:
    802060d4:	00005517          	auipc	a0,0x5
    802060d8:	c2c50513          	addi	a0,a0,-980 # 8020ad00 <.Lanon.5d7b72655c03d3be6c233dc0a6aa27b8.94>
    802060dc:	02b00593          	li	a1,43
    802060e0:	863a                	mv	a2,a4
    802060e2:	ffffe097          	auipc	ra,0xffffe
    802060e6:	2ec080e7          	jalr	748(ra) # 802043ce <_ZN4core9panicking5panic17h968d2b6b541ffadfE>
    802060ea:	0000                	unimp
    802060ec:	9536                	add	a0,a0,a3
    802060ee:	00050603          	lb	a2,0(a0)
    802060f2:	0ff67593          	andi	a1,a2,255
    802060f6:	00064563          	bltz	a2,80206100 <.LBB312_58+0x2c>
    802060fa:	c2ae                	sw	a1,68(sp)
    802060fc:	4585                	li	a1,1
    802060fe:	a8ad                	j	80206178 <.LBB312_58+0xa4>
    80206100:	00154783          	lbu	a5,1(a0)
    80206104:	01f5f613          	andi	a2,a1,31
    80206108:	0df00813          	li	a6,223
    8020610c:	03f7f793          	andi	a5,a5,63
    80206110:	02b87e63          	bgeu	a6,a1,8020614c <.LBB312_58+0x78>
    80206114:	00254803          	lbu	a6,2(a0)
    80206118:	00679893          	slli	a7,a5,0x6
    8020611c:	03f87793          	andi	a5,a6,63
    80206120:	0f000813          	li	a6,240
    80206124:	00f8e7b3          	or	a5,a7,a5
    80206128:	0305e663          	bltu	a1,a6,80206154 <.LBB312_58+0x80>
    8020612c:	00354503          	lbu	a0,3(a0)
    80206130:	03d61593          	slli	a1,a2,0x3d
    80206134:	91ad                	srli	a1,a1,0x2b
    80206136:	00679613          	slli	a2,a5,0x6
    8020613a:	03f57513          	andi	a0,a0,63
    8020613e:	8d51                	or	a0,a0,a2
    80206140:	8d4d                	or	a0,a0,a1
    80206142:	001105b7          	lui	a1,0x110
    80206146:	00b51a63          	bne	a0,a1,8020615a <.LBB312_58+0x86>
    8020614a:	b769                	j	802060d4 <.LBB312_58>
    8020614c:	00661513          	slli	a0,a2,0x6
    80206150:	8d5d                	or	a0,a0,a5
    80206152:	a021                	j	8020615a <.LBB312_58+0x86>
    80206154:	00c61513          	slli	a0,a2,0xc
    80206158:	8d5d                	or	a0,a0,a5
    8020615a:	c2aa                	sw	a0,68(sp)
    8020615c:	08000613          	li	a2,128
    80206160:	4585                	li	a1,1
    80206162:	00c56b63          	bltu	a0,a2,80206178 <.LBB312_58+0xa4>
    80206166:	00b55613          	srli	a2,a0,0xb
    8020616a:	4589                	li	a1,2
    8020616c:	c611                	beqz	a2,80206178 <.LBB312_58+0xa4>
    8020616e:	8141                	srli	a0,a0,0x10
    80206170:	00153513          	seqz	a0,a0
    80206174:	4591                	li	a1,4
    80206176:	8d89                	sub	a1,a1,a0
    80206178:	00d58533          	add	a0,a1,a3
    8020617c:	e4b6                	sd	a3,72(sp)
    8020617e:	e8aa                	sd	a0,80(sp)
    80206180:	1828                	addi	a0,sp,56
    80206182:	e52a                	sd	a0,136(sp)

0000000080206184 <.LBB312_59>:
    80206184:	00001517          	auipc	a0,0x1
    80206188:	88e50513          	addi	a0,a0,-1906 # 80206a12 <_ZN4core3fmt3num3imp52_$LT$impl$u20$core..fmt..Display$u20$for$u20$u64$GT$3fmt17h77ff5d762b7f8e58E>
    8020618c:	e92a                	sd	a0,144(sp)
    8020618e:	00c8                	addi	a0,sp,68
    80206190:	ed2a                	sd	a0,152(sp)

0000000080206192 <.LBB312_60>:
    80206192:	fffff517          	auipc	a0,0xfffff
    80206196:	60c50513          	addi	a0,a0,1548 # 8020579e <_ZN41_$LT$char$u20$as$u20$core..fmt..Debug$GT$3fmt17h69dcc0374c595c86E>
    8020619a:	f12a                	sd	a0,160(sp)
    8020619c:	00a8                	addi	a0,sp,72
    8020619e:	f52a                	sd	a0,168(sp)

00000000802061a0 <.LBB312_61>:
    802061a0:	ffffe517          	auipc	a0,0xffffe
    802061a4:	17a50513          	addi	a0,a0,378 # 8020431a <_ZN71_$LT$core..ops..range..Range$LT$Idx$GT$$u20$as$u20$core..fmt..Debug$GT$3fmt17he17a1c8d256887c6E>
    802061a8:	f92a                	sd	a0,176(sp)
    802061aa:	0828                	addi	a0,sp,24
    802061ac:	fd2a                	sd	a0,184(sp)

00000000802061ae <.LBB312_62>:
    802061ae:	00001517          	auipc	a0,0x1
    802061b2:	a0e50513          	addi	a0,a0,-1522 # 80206bbc <_ZN44_$LT$$RF$T$u20$as$u20$core..fmt..Display$GT$3fmt17hcf3c30afa59af89fE>
    802061b6:	e1aa                	sd	a0,192(sp)
    802061b8:	102c                	addi	a1,sp,40
    802061ba:	e5ae                	sd	a1,200(sp)
    802061bc:	e9aa                	sd	a0,208(sp)

00000000802061be <.LBB312_63>:
    802061be:	00005517          	auipc	a0,0x5
    802061c2:	1e250513          	addi	a0,a0,482 # 8020b3a0 <.Lanon.5d7b72655c03d3be6c233dc0a6aa27b8.393>
    802061c6:	f4aa                	sd	a0,104(sp)
    802061c8:	4515                	li	a0,5
    802061ca:	f8aa                	sd	a0,112(sp)
    802061cc:	ec82                	sd	zero,88(sp)
    802061ce:	012c                	addi	a1,sp,136
    802061d0:	fcae                	sd	a1,120(sp)
    802061d2:	e12a                	sd	a0,128(sp)
    802061d4:	08a8                	addi	a0,sp,88
    802061d6:	85ba                	mv	a1,a4
    802061d8:	ffffe097          	auipc	ra,0xffffe
    802061dc:	1c8080e7          	jalr	456(ra) # 802043a0 <_ZN4core9panicking9panic_fmt17h09608ae52bd0d3adE>
	...

00000000802061e2 <_ZN4core7unicode9printable5check17h759b07c3c7ec52fdE>:
    802061e2:	1141                	addi	sp,sp,-16
    802061e4:	e406                	sd	ra,8(sp)
    802061e6:	03051293          	slli	t0,a0,0x30
    802061ea:	ce29                	beqz	a2,80206244 <_ZN4core7unicode9printable5check17h759b07c3c7ec52fdE+0x62>
    802061ec:	88aa                	mv	a7,a0
    802061ee:	4501                	li	a0,0
    802061f0:	0382d313          	srli	t1,t0,0x38
    802061f4:	0606                	slli	a2,a2,0x1
    802061f6:	00c583b3          	add	t2,a1,a2
    802061fa:	0ff8fe13          	andi	t3,a7,255
    802061fe:	a811                	j	80206212 <_ZN4core7unicode9printable5check17h759b07c3c7ec52fdE+0x30>
    80206200:	01d33533          	sltu	a0,t1,t4
    80206204:	0075c633          	xor	a2,a1,t2
    80206208:	00163613          	seqz	a2,a2
    8020620c:	8e49                	or	a2,a2,a0
    8020620e:	8546                	mv	a0,a7
    80206210:	ea15                	bnez	a2,80206244 <_ZN4core7unicode9printable5check17h759b07c3c7ec52fdE+0x62>
    80206212:	0005ce83          	lbu	t4,0(a1) # 110000 <.Lline_table_start0+0xe49f5>
    80206216:	0015c603          	lbu	a2,1(a1)
    8020621a:	0589                	addi	a1,a1,2
    8020621c:	00c508b3          	add	a7,a0,a2
    80206220:	fe6e90e3          	bne	t4,t1,80206200 <_ZN4core7unicode9printable5check17h759b07c3c7ec52fdE+0x1e>
    80206224:	0aa8e163          	bltu	a7,a0,802062c6 <.LBB331_25>
    80206228:	0b176963          	bltu	a4,a7,802062da <.LBB331_26>
    8020622c:	9536                	add	a0,a0,a3
    8020622e:	ca01                	beqz	a2,8020623e <_ZN4core7unicode9printable5check17h759b07c3c7ec52fdE+0x5c>
    80206230:	00054e83          	lbu	t4,0(a0)
    80206234:	0505                	addi	a0,a0,1
    80206236:	167d                	addi	a2,a2,-1
    80206238:	ffce9be3          	bne	t4,t3,8020622e <_ZN4core7unicode9printable5check17h759b07c3c7ec52fdE+0x4c>
    8020623c:	a8a1                	j	80206294 <_ZN4core7unicode9printable5check17h759b07c3c7ec52fdE+0xb2>
    8020623e:	8546                	mv	a0,a7
    80206240:	fc7599e3          	bne	a1,t2,80206212 <_ZN4core7unicode9printable5check17h759b07c3c7ec52fdE+0x30>
    80206244:	04080d63          	beqz	a6,8020629e <_ZN4core7unicode9printable5check17h759b07c3c7ec52fdE+0xbc>
    80206248:	010785b3          	add	a1,a5,a6
    8020624c:	0302d613          	srli	a2,t0,0x30
    80206250:	4505                	li	a0,1
    80206252:	00078683          	lb	a3,0(a5)
    80206256:	00178713          	addi	a4,a5,1
    8020625a:	0006c963          	bltz	a3,8020626c <_ZN4core7unicode9printable5check17h759b07c3c7ec52fdE+0x8a>
    8020625e:	0ff6f693          	andi	a3,a3,255
    80206262:	87ba                	mv	a5,a4
    80206264:	9e15                	subw	a2,a2,a3
    80206266:	00065f63          	bgez	a2,80206284 <_ZN4core7unicode9printable5check17h759b07c3c7ec52fdE+0xa2>
    8020626a:	a00d                	j	8020628c <_ZN4core7unicode9printable5check17h759b07c3c7ec52fdE+0xaa>
    8020626c:	02b70e63          	beq	a4,a1,802062a8 <.LBB331_23>
    80206270:	0017c703          	lbu	a4,1(a5)
    80206274:	0789                	addi	a5,a5,2
    80206276:	07f6f693          	andi	a3,a3,127
    8020627a:	06a2                	slli	a3,a3,0x8
    8020627c:	8ed9                	or	a3,a3,a4
    8020627e:	9e15                	subw	a2,a2,a3
    80206280:	00064663          	bltz	a2,8020628c <_ZN4core7unicode9printable5check17h759b07c3c7ec52fdE+0xaa>
    80206284:	00154513          	xori	a0,a0,1
    80206288:	fcb795e3          	bne	a5,a1,80206252 <_ZN4core7unicode9printable5check17h759b07c3c7ec52fdE+0x70>
    8020628c:	8905                	andi	a0,a0,1
    8020628e:	60a2                	ld	ra,8(sp)
    80206290:	0141                	addi	sp,sp,16
    80206292:	8082                	ret
    80206294:	4501                	li	a0,0
    80206296:	8905                	andi	a0,a0,1
    80206298:	60a2                	ld	ra,8(sp)
    8020629a:	0141                	addi	sp,sp,16
    8020629c:	8082                	ret
    8020629e:	4505                	li	a0,1
    802062a0:	8905                	andi	a0,a0,1
    802062a2:	60a2                	ld	ra,8(sp)
    802062a4:	0141                	addi	sp,sp,16
    802062a6:	8082                	ret

00000000802062a8 <.LBB331_23>:
    802062a8:	00005517          	auipc	a0,0x5
    802062ac:	a5850513          	addi	a0,a0,-1448 # 8020ad00 <.Lanon.5d7b72655c03d3be6c233dc0a6aa27b8.94>

00000000802062b0 <.LBB331_24>:
    802062b0:	00005617          	auipc	a2,0x5
    802062b4:	1b860613          	addi	a2,a2,440 # 8020b468 <.Lanon.5d7b72655c03d3be6c233dc0a6aa27b8.424>
    802062b8:	02b00593          	li	a1,43
    802062bc:	ffffe097          	auipc	ra,0xffffe
    802062c0:	112080e7          	jalr	274(ra) # 802043ce <_ZN4core9panicking5panic17h968d2b6b541ffadfE>
	...

00000000802062c6 <.LBB331_25>:
    802062c6:	00005617          	auipc	a2,0x5
    802062ca:	18a60613          	addi	a2,a2,394 # 8020b450 <.Lanon.5d7b72655c03d3be6c233dc0a6aa27b8.423>
    802062ce:	85c6                	mv	a1,a7
    802062d0:	00000097          	auipc	ra,0x0
    802062d4:	85e080e7          	jalr	-1954(ra) # 80205b2e <_ZN4core5slice5index22slice_index_order_fail17h5e40dbaf83b6bef2E>
	...

00000000802062da <.LBB331_26>:
    802062da:	00005617          	auipc	a2,0x5
    802062de:	17660613          	addi	a2,a2,374 # 8020b450 <.Lanon.5d7b72655c03d3be6c233dc0a6aa27b8.423>
    802062e2:	8546                	mv	a0,a7
    802062e4:	85ba                	mv	a1,a4
    802062e6:	fffff097          	auipc	ra,0xfffff
    802062ea:	7fa080e7          	jalr	2042(ra) # 80205ae0 <_ZN4core5slice5index24slice_end_index_len_fail17h2a7a625b26924207E>
	...

00000000802062f0 <_ZN4core7unicode9printable12is_printable17hce50a9789a4e08d5E>:
    802062f0:	0005061b          	sext.w	a2,a0
    802062f4:	02000593          	li	a1,32
    802062f8:	00b67463          	bgeu	a2,a1,80206300 <_ZN4core7unicode9printable12is_printable17hce50a9789a4e08d5E+0x10>
    802062fc:	4501                	li	a0,0
    802062fe:	8082                	ret
    80206300:	07f00693          	li	a3,127
    80206304:	4585                	li	a1,1
    80206306:	00d67463          	bgeu	a2,a3,8020630e <_ZN4core7unicode9printable12is_printable17hce50a9789a4e08d5E+0x1e>
    8020630a:	852e                	mv	a0,a1
    8020630c:	8082                	ret
    8020630e:	0105559b          	srliw	a1,a0,0x10
    80206312:	e59d                	bnez	a1,80206340 <.LBB332_12+0x1c>

0000000080206314 <.LBB332_10>:
    80206314:	00005597          	auipc	a1,0x5
    80206318:	16c58593          	addi	a1,a1,364 # 8020b480 <.Lanon.5d7b72655c03d3be6c233dc0a6aa27b8.425>

000000008020631c <.LBB332_11>:
    8020631c:	00005697          	auipc	a3,0x5
    80206320:	1b468693          	addi	a3,a3,436 # 8020b4d0 <.Lanon.5d7b72655c03d3be6c233dc0a6aa27b8.426>

0000000080206324 <.LBB332_12>:
    80206324:	00005797          	auipc	a5,0x5
    80206328:	2cb78793          	addi	a5,a5,715 # 8020b5ef <.Lanon.5d7b72655c03d3be6c233dc0a6aa27b8.427>
    8020632c:	02800613          	li	a2,40
    80206330:	11f00713          	li	a4,287
    80206334:	12f00813          	li	a6,303
    80206338:	00000317          	auipc	t1,0x0
    8020633c:	eaa30067          	jr	-342(t1) # 802061e2 <_ZN4core7unicode9printable5check17h759b07c3c7ec52fdE>
    80206340:	0115559b          	srliw	a1,a0,0x11
    80206344:	e59d                	bnez	a1,80206372 <.LBB332_15+0x1c>

0000000080206346 <.LBB332_13>:
    80206346:	00005597          	auipc	a1,0x5
    8020634a:	3d858593          	addi	a1,a1,984 # 8020b71e <.Lanon.5d7b72655c03d3be6c233dc0a6aa27b8.428>

000000008020634e <.LBB332_14>:
    8020634e:	00005697          	auipc	a3,0x5
    80206352:	42868693          	addi	a3,a3,1064 # 8020b776 <.Lanon.5d7b72655c03d3be6c233dc0a6aa27b8.429>

0000000080206356 <.LBB332_15>:
    80206356:	00005797          	auipc	a5,0x5
    8020635a:	4e478793          	addi	a5,a5,1252 # 8020b83a <.Lanon.5d7b72655c03d3be6c233dc0a6aa27b8.430>
    8020635e:	02c00613          	li	a2,44
    80206362:	0c400713          	li	a4,196
    80206366:	1c200813          	li	a6,450
    8020636a:	00000317          	auipc	t1,0x0
    8020636e:	e7830067          	jr	-392(t1) # 802061e2 <_ZN4core7unicode9printable5check17h759b07c3c7ec52fdE>
    80206372:	0055559b          	srliw	a1,a0,0x5
    80206376:	6605                	lui	a2,0x1
    80206378:	5376069b          	addiw	a3,a2,1335
    8020637c:	8db5                	xor	a1,a1,a3
    8020637e:	0015b593          	seqz	a1,a1
    80206382:	fffd56b7          	lui	a3,0xfffd5
    80206386:	8c66869b          	addiw	a3,a3,-1850
    8020638a:	9ea9                	addw	a3,a3,a0
    8020638c:	0066b693          	sltiu	a3,a3,6
    80206390:	8dd5                	or	a1,a1,a3
    80206392:	0015569b          	srliw	a3,a0,0x1
    80206396:	6759                	lui	a4,0x16
    80206398:	c0f7071b          	addiw	a4,a4,-1009
    8020639c:	8eb9                	xor	a3,a3,a4
    8020639e:	0016b693          	seqz	a3,a3
    802063a2:	8dd5                	or	a1,a1,a3
    802063a4:	fffd36b7          	lui	a3,0xfffd3
    802063a8:	15e6869b          	addiw	a3,a3,350
    802063ac:	9ea9                	addw	a3,a3,a0
    802063ae:	00e6b693          	sltiu	a3,a3,14
    802063b2:	8dd5                	or	a1,a1,a3
    802063b4:	fffd16b7          	lui	a3,0xfffd1
    802063b8:	41f6869b          	addiw	a3,a3,1055
    802063bc:	9ea9                	addw	a3,a3,a0
    802063be:	c1f6061b          	addiw	a2,a2,-993
    802063c2:	00c6b633          	sltu	a2,a3,a2
    802063c6:	8dd1                	or	a1,a1,a2
    802063c8:	fffd0637          	lui	a2,0xfffd0
    802063cc:	5e26069b          	addiw	a3,a2,1506
    802063d0:	9ea9                	addw	a3,a3,a0
    802063d2:	5e26b693          	sltiu	a3,a3,1506
    802063d6:	8dd5                	or	a1,a1,a3
    802063d8:	fffcf6b7          	lui	a3,0xfffcf
    802063dc:	cb56869b          	addiw	a3,a3,-843
    802063e0:	9ea9                	addw	a3,a3,a0
    802063e2:	0056b693          	sltiu	a3,a3,5
    802063e6:	8dd5                	or	a1,a1,a3
    802063e8:	fffce6b7          	lui	a3,0xfffce
    802063ec:	c506869b          	addiw	a3,a3,-944
    802063f0:	9ea9                	addw	a3,a3,a0
    802063f2:	000ae737          	lui	a4,0xae
    802063f6:	d507071b          	addiw	a4,a4,-688
    802063fa:	00e6b6b3          	sltu	a3,a3,a4
    802063fe:	8dd5                	or	a1,a1,a3
    80206400:	0015f693          	andi	a3,a1,1
    80206404:	4581                	li	a1,0
    80206406:	f291                	bnez	a3,8020630a <_ZN4core7unicode9printable12is_printable17hce50a9789a4e08d5E+0x1a>
    80206408:	ffef05b7          	lui	a1,0xffef0
    8020640c:	9d2d                	addw	a0,a0,a1
    8020640e:	1f06059b          	addiw	a1,a2,496
    80206412:	00b535b3          	sltu	a1,a0,a1
    80206416:	852e                	mv	a0,a1
    80206418:	8082                	ret

000000008020641a <_ZN69_$LT$core..num..nonzero..NonZeroUsize$u20$as$u20$core..fmt..Debug$GT$3fmt17hb6e444b8c9ee567bE>:
    8020641a:	1141                	addi	sp,sp,-16
    8020641c:	e406                	sd	ra,8(sp)
    8020641e:	6108                	ld	a0,0(a0)
    80206420:	e02a                	sd	a0,0(sp)
    80206422:	850a                	mv	a0,sp
    80206424:	00000097          	auipc	ra,0x0
    80206428:	368080e7          	jalr	872(ra) # 8020678c <_ZN4core3fmt3num52_$LT$impl$u20$core..fmt..Debug$u20$for$u20$usize$GT$3fmt17h7d8d90efa1f76e4dE>
    8020642c:	60a2                	ld	ra,8(sp)
    8020642e:	0141                	addi	sp,sp,16
    80206430:	8082                	ret

0000000080206432 <_ZN4core3fmt3num52_$LT$impl$u20$core..fmt..LowerHex$u20$for$u20$i8$GT$3fmt17heb4f7e0cc7fa1ee6E>:
    80206432:	7175                	addi	sp,sp,-144
    80206434:	e506                	sd	ra,136(sp)
    80206436:	882e                	mv	a6,a1
    80206438:	4581                	li	a1,0
    8020643a:	00054683          	lbu	a3,0(a0)
    8020643e:	00810893          	addi	a7,sp,8
    80206442:	42a9                	li	t0,10
    80206444:	433d                	li	t1,15
    80206446:	a829                	j	80206460 <_ZN4core3fmt3num52_$LT$impl$u20$core..fmt..LowerHex$u20$for$u20$i8$GT$3fmt17heb4f7e0cc7fa1ee6E+0x2e>
    80206448:	00b88633          	add	a2,a7,a1
    8020644c:	0ff6f713          	andi	a4,a3,255
    80206450:	00475693          	srli	a3,a4,0x4
    80206454:	9d3d                	addw	a0,a0,a5
    80206456:	06a60fa3          	sb	a0,127(a2) # fffffffffffd007f <ki_end+0xffffffff7f5ac07f>
    8020645a:	15fd                	addi	a1,a1,-1
    8020645c:	00e37b63          	bgeu	t1,a4,80206472 <_ZN4core3fmt3num52_$LT$impl$u20$core..fmt..LowerHex$u20$for$u20$i8$GT$3fmt17heb4f7e0cc7fa1ee6E+0x40>
    80206460:	00f6f793          	andi	a5,a3,15
    80206464:	03000513          	li	a0,48
    80206468:	fe57e0e3          	bltu	a5,t0,80206448 <_ZN4core3fmt3num52_$LT$impl$u20$core..fmt..LowerHex$u20$for$u20$i8$GT$3fmt17heb4f7e0cc7fa1ee6E+0x16>
    8020646c:	05700513          	li	a0,87
    80206470:	bfe1                	j	80206448 <_ZN4core3fmt3num52_$LT$impl$u20$core..fmt..LowerHex$u20$for$u20$i8$GT$3fmt17heb4f7e0cc7fa1ee6E+0x16>
    80206472:	08058513          	addi	a0,a1,128 # ffffffffffef0080 <ki_end+0xffffffff7f4cc080>
    80206476:	08100613          	li	a2,129
    8020647a:	02c57663          	bgeu	a0,a2,802064a6 <.LBB543_8>
    8020647e:	0028                	addi	a0,sp,8
    80206480:	952e                	add	a0,a0,a1
    80206482:	08050713          	addi	a4,a0,128
    80206486:	40b007b3          	neg	a5,a1

000000008020648a <.LBB543_7>:
    8020648a:	00005617          	auipc	a2,0x5
    8020648e:	b1660613          	addi	a2,a2,-1258 # 8020afa0 <.Lanon.5d7b72655c03d3be6c233dc0a6aa27b8.286>
    80206492:	4585                	li	a1,1
    80206494:	4689                	li	a3,2
    80206496:	8542                	mv	a0,a6
    80206498:	fffff097          	auipc	ra,0xfffff
    8020649c:	a06080e7          	jalr	-1530(ra) # 80204e9e <_ZN4core3fmt9Formatter12pad_integral17h2910eee1e3128085E>
    802064a0:	60aa                	ld	ra,136(sp)
    802064a2:	6149                	addi	sp,sp,144
    802064a4:	8082                	ret

00000000802064a6 <.LBB543_8>:
    802064a6:	00005617          	auipc	a2,0x5
    802064aa:	ae260613          	addi	a2,a2,-1310 # 8020af88 <.Lanon.5d7b72655c03d3be6c233dc0a6aa27b8.283>
    802064ae:	08000593          	li	a1,128
    802064b2:	fffff097          	auipc	ra,0xfffff
    802064b6:	5e0080e7          	jalr	1504(ra) # 80205a92 <_ZN4core5slice5index26slice_start_index_len_fail17hdcd879eec8619ea3E>
	...

00000000802064bc <_ZN4core3fmt3num52_$LT$impl$u20$core..fmt..UpperHex$u20$for$u20$i8$GT$3fmt17hc7d7fcd2d26679e9E>:
    802064bc:	7175                	addi	sp,sp,-144
    802064be:	e506                	sd	ra,136(sp)
    802064c0:	882e                	mv	a6,a1
    802064c2:	4581                	li	a1,0
    802064c4:	00054683          	lbu	a3,0(a0)
    802064c8:	00810893          	addi	a7,sp,8
    802064cc:	42a9                	li	t0,10
    802064ce:	433d                	li	t1,15
    802064d0:	a829                	j	802064ea <_ZN4core3fmt3num52_$LT$impl$u20$core..fmt..UpperHex$u20$for$u20$i8$GT$3fmt17hc7d7fcd2d26679e9E+0x2e>
    802064d2:	00b88633          	add	a2,a7,a1
    802064d6:	0ff6f713          	andi	a4,a3,255
    802064da:	00475693          	srli	a3,a4,0x4
    802064de:	9d3d                	addw	a0,a0,a5
    802064e0:	06a60fa3          	sb	a0,127(a2)
    802064e4:	15fd                	addi	a1,a1,-1
    802064e6:	00e37b63          	bgeu	t1,a4,802064fc <_ZN4core3fmt3num52_$LT$impl$u20$core..fmt..UpperHex$u20$for$u20$i8$GT$3fmt17hc7d7fcd2d26679e9E+0x40>
    802064ea:	00f6f793          	andi	a5,a3,15
    802064ee:	03000513          	li	a0,48
    802064f2:	fe57e0e3          	bltu	a5,t0,802064d2 <_ZN4core3fmt3num52_$LT$impl$u20$core..fmt..UpperHex$u20$for$u20$i8$GT$3fmt17hc7d7fcd2d26679e9E+0x16>
    802064f6:	03700513          	li	a0,55
    802064fa:	bfe1                	j	802064d2 <_ZN4core3fmt3num52_$LT$impl$u20$core..fmt..UpperHex$u20$for$u20$i8$GT$3fmt17hc7d7fcd2d26679e9E+0x16>
    802064fc:	08058513          	addi	a0,a1,128
    80206500:	08100613          	li	a2,129
    80206504:	02c57663          	bgeu	a0,a2,80206530 <.LBB544_8>
    80206508:	0028                	addi	a0,sp,8
    8020650a:	952e                	add	a0,a0,a1
    8020650c:	08050713          	addi	a4,a0,128
    80206510:	40b007b3          	neg	a5,a1

0000000080206514 <.LBB544_7>:
    80206514:	00005617          	auipc	a2,0x5
    80206518:	a8c60613          	addi	a2,a2,-1396 # 8020afa0 <.Lanon.5d7b72655c03d3be6c233dc0a6aa27b8.286>
    8020651c:	4585                	li	a1,1
    8020651e:	4689                	li	a3,2
    80206520:	8542                	mv	a0,a6
    80206522:	fffff097          	auipc	ra,0xfffff
    80206526:	97c080e7          	jalr	-1668(ra) # 80204e9e <_ZN4core3fmt9Formatter12pad_integral17h2910eee1e3128085E>
    8020652a:	60aa                	ld	ra,136(sp)
    8020652c:	6149                	addi	sp,sp,144
    8020652e:	8082                	ret

0000000080206530 <.LBB544_8>:
    80206530:	00005617          	auipc	a2,0x5
    80206534:	a5860613          	addi	a2,a2,-1448 # 8020af88 <.Lanon.5d7b72655c03d3be6c233dc0a6aa27b8.283>
    80206538:	08000593          	li	a1,128
    8020653c:	fffff097          	auipc	ra,0xfffff
    80206540:	556080e7          	jalr	1366(ra) # 80205a92 <_ZN4core5slice5index26slice_start_index_len_fail17hdcd879eec8619ea3E>
	...

0000000080206546 <_ZN4core3fmt3num53_$LT$impl$u20$core..fmt..LowerHex$u20$for$u20$i64$GT$3fmt17hdf8f6c6faa92793eE>:
    80206546:	7175                	addi	sp,sp,-144
    80206548:	e506                	sd	ra,136(sp)
    8020654a:	882e                	mv	a6,a1
    8020654c:	4581                	li	a1,0
    8020654e:	6118                	ld	a4,0(a0)
    80206550:	00810893          	addi	a7,sp,8
    80206554:	42a9                	li	t0,10
    80206556:	433d                	li	t1,15
    80206558:	a819                	j	8020656e <_ZN4core3fmt3num53_$LT$impl$u20$core..fmt..LowerHex$u20$for$u20$i64$GT$3fmt17hdf8f6c6faa92793eE+0x28>
    8020655a:	00b886b3          	add	a3,a7,a1
    8020655e:	00455713          	srli	a4,a0,0x4
    80206562:	9e3d                	addw	a2,a2,a5
    80206564:	06c68fa3          	sb	a2,127(a3) # fffffffffffce07f <ki_end+0xffffffff7f5aa07f>
    80206568:	15fd                	addi	a1,a1,-1
    8020656a:	00a37c63          	bgeu	t1,a0,80206582 <_ZN4core3fmt3num53_$LT$impl$u20$core..fmt..LowerHex$u20$for$u20$i64$GT$3fmt17hdf8f6c6faa92793eE+0x3c>
    8020656e:	853a                	mv	a0,a4
    80206570:	00f77793          	andi	a5,a4,15
    80206574:	03000613          	li	a2,48
    80206578:	fe57e1e3          	bltu	a5,t0,8020655a <_ZN4core3fmt3num53_$LT$impl$u20$core..fmt..LowerHex$u20$for$u20$i64$GT$3fmt17hdf8f6c6faa92793eE+0x14>
    8020657c:	05700613          	li	a2,87
    80206580:	bfe9                	j	8020655a <_ZN4core3fmt3num53_$LT$impl$u20$core..fmt..LowerHex$u20$for$u20$i64$GT$3fmt17hdf8f6c6faa92793eE+0x14>
    80206582:	08058513          	addi	a0,a1,128
    80206586:	08100613          	li	a2,129
    8020658a:	02c57663          	bgeu	a0,a2,802065b6 <.LBB555_8>
    8020658e:	0028                	addi	a0,sp,8
    80206590:	952e                	add	a0,a0,a1
    80206592:	08050713          	addi	a4,a0,128
    80206596:	40b007b3          	neg	a5,a1

000000008020659a <.LBB555_7>:
    8020659a:	00005617          	auipc	a2,0x5
    8020659e:	a0660613          	addi	a2,a2,-1530 # 8020afa0 <.Lanon.5d7b72655c03d3be6c233dc0a6aa27b8.286>
    802065a2:	4585                	li	a1,1
    802065a4:	4689                	li	a3,2
    802065a6:	8542                	mv	a0,a6
    802065a8:	fffff097          	auipc	ra,0xfffff
    802065ac:	8f6080e7          	jalr	-1802(ra) # 80204e9e <_ZN4core3fmt9Formatter12pad_integral17h2910eee1e3128085E>
    802065b0:	60aa                	ld	ra,136(sp)
    802065b2:	6149                	addi	sp,sp,144
    802065b4:	8082                	ret

00000000802065b6 <.LBB555_8>:
    802065b6:	00005617          	auipc	a2,0x5
    802065ba:	9d260613          	addi	a2,a2,-1582 # 8020af88 <.Lanon.5d7b72655c03d3be6c233dc0a6aa27b8.283>
    802065be:	08000593          	li	a1,128
    802065c2:	fffff097          	auipc	ra,0xfffff
    802065c6:	4d0080e7          	jalr	1232(ra) # 80205a92 <_ZN4core5slice5index26slice_start_index_len_fail17hdcd879eec8619ea3E>
	...

00000000802065cc <_ZN4core3fmt3num49_$LT$impl$u20$core..fmt..Debug$u20$for$u20$u8$GT$3fmt17hf059cf4dae679fc3E>:
    802065cc:	7175                	addi	sp,sp,-144
    802065ce:	e506                	sd	ra,136(sp)
    802065d0:	882e                	mv	a6,a1
    802065d2:	0305e583          	lwu	a1,48(a1)
    802065d6:	0105f613          	andi	a2,a1,16
    802065da:	ee11                	bnez	a2,802065f6 <_ZN4core3fmt3num49_$LT$impl$u20$core..fmt..Debug$u20$for$u20$u8$GT$3fmt17hf059cf4dae679fc3E+0x2a>
    802065dc:	0205f593          	andi	a1,a1,32
    802065e0:	e5b1                	bnez	a1,8020662c <_ZN4core3fmt3num49_$LT$impl$u20$core..fmt..Debug$u20$for$u20$u8$GT$3fmt17hf059cf4dae679fc3E+0x60>
    802065e2:	0ff57513          	andi	a0,a0,255
    802065e6:	4585                	li	a1,1
    802065e8:	8642                	mv	a2,a6
    802065ea:	60aa                	ld	ra,136(sp)
    802065ec:	6149                	addi	sp,sp,144
    802065ee:	00000317          	auipc	t1,0x0
    802065f2:	27c30067          	jr	636(t1) # 8020686a <_ZN4core3fmt3num3imp7fmt_u6417h2bebad4dea13b624E>
    802065f6:	4581                	li	a1,0
    802065f8:	00810893          	addi	a7,sp,8
    802065fc:	42a9                	li	t0,10
    802065fe:	433d                	li	t1,15
    80206600:	a829                	j	8020661a <_ZN4core3fmt3num49_$LT$impl$u20$core..fmt..Debug$u20$for$u20$u8$GT$3fmt17hf059cf4dae679fc3E+0x4e>
    80206602:	00b886b3          	add	a3,a7,a1
    80206606:	0ff57713          	andi	a4,a0,255
    8020660a:	00475513          	srli	a0,a4,0x4
    8020660e:	9e3d                	addw	a2,a2,a5
    80206610:	06c68fa3          	sb	a2,127(a3)
    80206614:	15fd                	addi	a1,a1,-1
    80206616:	04e37663          	bgeu	t1,a4,80206662 <_ZN4core3fmt3num49_$LT$impl$u20$core..fmt..Debug$u20$for$u20$u8$GT$3fmt17hf059cf4dae679fc3E+0x96>
    8020661a:	00f57793          	andi	a5,a0,15
    8020661e:	03000613          	li	a2,48
    80206622:	fe57e0e3          	bltu	a5,t0,80206602 <_ZN4core3fmt3num49_$LT$impl$u20$core..fmt..Debug$u20$for$u20$u8$GT$3fmt17hf059cf4dae679fc3E+0x36>
    80206626:	05700613          	li	a2,87
    8020662a:	bfe1                	j	80206602 <_ZN4core3fmt3num49_$LT$impl$u20$core..fmt..Debug$u20$for$u20$u8$GT$3fmt17hf059cf4dae679fc3E+0x36>
    8020662c:	4581                	li	a1,0
    8020662e:	00810893          	addi	a7,sp,8
    80206632:	42a9                	li	t0,10
    80206634:	433d                	li	t1,15
    80206636:	a829                	j	80206650 <_ZN4core3fmt3num49_$LT$impl$u20$core..fmt..Debug$u20$for$u20$u8$GT$3fmt17hf059cf4dae679fc3E+0x84>
    80206638:	00b886b3          	add	a3,a7,a1
    8020663c:	0ff57713          	andi	a4,a0,255
    80206640:	00475513          	srli	a0,a4,0x4
    80206644:	9e3d                	addw	a2,a2,a5
    80206646:	06c68fa3          	sb	a2,127(a3)
    8020664a:	15fd                	addi	a1,a1,-1
    8020664c:	00e37b63          	bgeu	t1,a4,80206662 <_ZN4core3fmt3num49_$LT$impl$u20$core..fmt..Debug$u20$for$u20$u8$GT$3fmt17hf059cf4dae679fc3E+0x96>
    80206650:	00f57793          	andi	a5,a0,15
    80206654:	03000613          	li	a2,48
    80206658:	fe57e0e3          	bltu	a5,t0,80206638 <_ZN4core3fmt3num49_$LT$impl$u20$core..fmt..Debug$u20$for$u20$u8$GT$3fmt17hf059cf4dae679fc3E+0x6c>
    8020665c:	03700613          	li	a2,55
    80206660:	bfe1                	j	80206638 <_ZN4core3fmt3num49_$LT$impl$u20$core..fmt..Debug$u20$for$u20$u8$GT$3fmt17hf059cf4dae679fc3E+0x6c>
    80206662:	08058513          	addi	a0,a1,128
    80206666:	08100613          	li	a2,129
    8020666a:	02c57663          	bgeu	a0,a2,80206696 <.LBB565_15>
    8020666e:	0028                	addi	a0,sp,8
    80206670:	952e                	add	a0,a0,a1
    80206672:	08050713          	addi	a4,a0,128
    80206676:	40b007b3          	neg	a5,a1

000000008020667a <.LBB565_14>:
    8020667a:	00005617          	auipc	a2,0x5
    8020667e:	92660613          	addi	a2,a2,-1754 # 8020afa0 <.Lanon.5d7b72655c03d3be6c233dc0a6aa27b8.286>
    80206682:	4585                	li	a1,1
    80206684:	4689                	li	a3,2
    80206686:	8542                	mv	a0,a6
    80206688:	fffff097          	auipc	ra,0xfffff
    8020668c:	816080e7          	jalr	-2026(ra) # 80204e9e <_ZN4core3fmt9Formatter12pad_integral17h2910eee1e3128085E>
    80206690:	60aa                	ld	ra,136(sp)
    80206692:	6149                	addi	sp,sp,144
    80206694:	8082                	ret

0000000080206696 <.LBB565_15>:
    80206696:	00005617          	auipc	a2,0x5
    8020669a:	8f260613          	addi	a2,a2,-1806 # 8020af88 <.Lanon.5d7b72655c03d3be6c233dc0a6aa27b8.283>
    8020669e:	08000593          	li	a1,128
    802066a2:	fffff097          	auipc	ra,0xfffff
    802066a6:	3f0080e7          	jalr	1008(ra) # 80205a92 <_ZN4core5slice5index26slice_start_index_len_fail17hdcd879eec8619ea3E>
	...

00000000802066ac <_ZN4core3fmt3num50_$LT$impl$u20$core..fmt..Debug$u20$for$u20$u32$GT$3fmt17hc252e6fc6b662c01E>:
    802066ac:	7175                	addi	sp,sp,-144
    802066ae:	e506                	sd	ra,136(sp)
    802066b0:	882e                	mv	a6,a1
    802066b2:	0305e583          	lwu	a1,48(a1)
    802066b6:	0105f613          	andi	a2,a1,16
    802066ba:	ee11                	bnez	a2,802066d6 <_ZN4core3fmt3num50_$LT$impl$u20$core..fmt..Debug$u20$for$u20$u32$GT$3fmt17hc252e6fc6b662c01E+0x2a>
    802066bc:	0205f593          	andi	a1,a1,32
    802066c0:	e5b1                	bnez	a1,8020670c <_ZN4core3fmt3num50_$LT$impl$u20$core..fmt..Debug$u20$for$u20$u32$GT$3fmt17hc252e6fc6b662c01E+0x60>
    802066c2:	00056503          	lwu	a0,0(a0)
    802066c6:	4585                	li	a1,1
    802066c8:	8642                	mv	a2,a6
    802066ca:	60aa                	ld	ra,136(sp)
    802066cc:	6149                	addi	sp,sp,144
    802066ce:	00000317          	auipc	t1,0x0
    802066d2:	19c30067          	jr	412(t1) # 8020686a <_ZN4core3fmt3num3imp7fmt_u6417h2bebad4dea13b624E>
    802066d6:	4581                	li	a1,0
    802066d8:	4118                	lw	a4,0(a0)
    802066da:	00810893          	addi	a7,sp,8
    802066de:	42a9                	li	t0,10
    802066e0:	433d                	li	t1,15
    802066e2:	a819                	j	802066f8 <_ZN4core3fmt3num50_$LT$impl$u20$core..fmt..Debug$u20$for$u20$u32$GT$3fmt17hc252e6fc6b662c01E+0x4c>
    802066e4:	00b886b3          	add	a3,a7,a1
    802066e8:	0045571b          	srliw	a4,a0,0x4
    802066ec:	9e3d                	addw	a2,a2,a5
    802066ee:	06c68fa3          	sb	a2,127(a3)
    802066f2:	15fd                	addi	a1,a1,-1
    802066f4:	04a37763          	bgeu	t1,a0,80206742 <_ZN4core3fmt3num50_$LT$impl$u20$core..fmt..Debug$u20$for$u20$u32$GT$3fmt17hc252e6fc6b662c01E+0x96>
    802066f8:	853a                	mv	a0,a4
    802066fa:	00f77793          	andi	a5,a4,15
    802066fe:	03000613          	li	a2,48
    80206702:	fe57e1e3          	bltu	a5,t0,802066e4 <_ZN4core3fmt3num50_$LT$impl$u20$core..fmt..Debug$u20$for$u20$u32$GT$3fmt17hc252e6fc6b662c01E+0x38>
    80206706:	05700613          	li	a2,87
    8020670a:	bfe9                	j	802066e4 <_ZN4core3fmt3num50_$LT$impl$u20$core..fmt..Debug$u20$for$u20$u32$GT$3fmt17hc252e6fc6b662c01E+0x38>
    8020670c:	4581                	li	a1,0
    8020670e:	4118                	lw	a4,0(a0)
    80206710:	00810893          	addi	a7,sp,8
    80206714:	42a9                	li	t0,10
    80206716:	433d                	li	t1,15
    80206718:	a819                	j	8020672e <_ZN4core3fmt3num50_$LT$impl$u20$core..fmt..Debug$u20$for$u20$u32$GT$3fmt17hc252e6fc6b662c01E+0x82>
    8020671a:	00b886b3          	add	a3,a7,a1
    8020671e:	0045571b          	srliw	a4,a0,0x4
    80206722:	9e3d                	addw	a2,a2,a5
    80206724:	06c68fa3          	sb	a2,127(a3)
    80206728:	15fd                	addi	a1,a1,-1
    8020672a:	00a37c63          	bgeu	t1,a0,80206742 <_ZN4core3fmt3num50_$LT$impl$u20$core..fmt..Debug$u20$for$u20$u32$GT$3fmt17hc252e6fc6b662c01E+0x96>
    8020672e:	853a                	mv	a0,a4
    80206730:	00f77793          	andi	a5,a4,15
    80206734:	03000613          	li	a2,48
    80206738:	fe57e1e3          	bltu	a5,t0,8020671a <_ZN4core3fmt3num50_$LT$impl$u20$core..fmt..Debug$u20$for$u20$u32$GT$3fmt17hc252e6fc6b662c01E+0x6e>
    8020673c:	03700613          	li	a2,55
    80206740:	bfe9                	j	8020671a <_ZN4core3fmt3num50_$LT$impl$u20$core..fmt..Debug$u20$for$u20$u32$GT$3fmt17hc252e6fc6b662c01E+0x6e>
    80206742:	08058513          	addi	a0,a1,128
    80206746:	08100613          	li	a2,129
    8020674a:	02c57663          	bgeu	a0,a2,80206776 <.LBB567_15>
    8020674e:	0028                	addi	a0,sp,8
    80206750:	952e                	add	a0,a0,a1
    80206752:	08050713          	addi	a4,a0,128
    80206756:	40b007b3          	neg	a5,a1

000000008020675a <.LBB567_14>:
    8020675a:	00005617          	auipc	a2,0x5
    8020675e:	84660613          	addi	a2,a2,-1978 # 8020afa0 <.Lanon.5d7b72655c03d3be6c233dc0a6aa27b8.286>
    80206762:	4585                	li	a1,1
    80206764:	4689                	li	a3,2
    80206766:	8542                	mv	a0,a6
    80206768:	ffffe097          	auipc	ra,0xffffe
    8020676c:	736080e7          	jalr	1846(ra) # 80204e9e <_ZN4core3fmt9Formatter12pad_integral17h2910eee1e3128085E>
    80206770:	60aa                	ld	ra,136(sp)
    80206772:	6149                	addi	sp,sp,144
    80206774:	8082                	ret

0000000080206776 <.LBB567_15>:
    80206776:	00005617          	auipc	a2,0x5
    8020677a:	81260613          	addi	a2,a2,-2030 # 8020af88 <.Lanon.5d7b72655c03d3be6c233dc0a6aa27b8.283>
    8020677e:	08000593          	li	a1,128
    80206782:	fffff097          	auipc	ra,0xfffff
    80206786:	310080e7          	jalr	784(ra) # 80205a92 <_ZN4core5slice5index26slice_start_index_len_fail17hdcd879eec8619ea3E>
	...

000000008020678c <_ZN4core3fmt3num52_$LT$impl$u20$core..fmt..Debug$u20$for$u20$usize$GT$3fmt17h7d8d90efa1f76e4dE>:
    8020678c:	7175                	addi	sp,sp,-144
    8020678e:	e506                	sd	ra,136(sp)
    80206790:	882e                	mv	a6,a1
    80206792:	0305e583          	lwu	a1,48(a1)
    80206796:	0105f613          	andi	a2,a1,16
    8020679a:	ee09                	bnez	a2,802067b4 <_ZN4core3fmt3num52_$LT$impl$u20$core..fmt..Debug$u20$for$u20$usize$GT$3fmt17h7d8d90efa1f76e4dE+0x28>
    8020679c:	0205f593          	andi	a1,a1,32
    802067a0:	e5a9                	bnez	a1,802067ea <_ZN4core3fmt3num52_$LT$impl$u20$core..fmt..Debug$u20$for$u20$usize$GT$3fmt17h7d8d90efa1f76e4dE+0x5e>
    802067a2:	6108                	ld	a0,0(a0)
    802067a4:	4585                	li	a1,1
    802067a6:	8642                	mv	a2,a6
    802067a8:	60aa                	ld	ra,136(sp)
    802067aa:	6149                	addi	sp,sp,144
    802067ac:	00000317          	auipc	t1,0x0
    802067b0:	0be30067          	jr	190(t1) # 8020686a <_ZN4core3fmt3num3imp7fmt_u6417h2bebad4dea13b624E>
    802067b4:	4581                	li	a1,0
    802067b6:	6118                	ld	a4,0(a0)
    802067b8:	00810893          	addi	a7,sp,8
    802067bc:	42a9                	li	t0,10
    802067be:	433d                	li	t1,15
    802067c0:	a819                	j	802067d6 <_ZN4core3fmt3num52_$LT$impl$u20$core..fmt..Debug$u20$for$u20$usize$GT$3fmt17h7d8d90efa1f76e4dE+0x4a>
    802067c2:	00b886b3          	add	a3,a7,a1
    802067c6:	00455713          	srli	a4,a0,0x4
    802067ca:	9e3d                	addw	a2,a2,a5
    802067cc:	06c68fa3          	sb	a2,127(a3)
    802067d0:	15fd                	addi	a1,a1,-1
    802067d2:	04a37763          	bgeu	t1,a0,80206820 <_ZN4core3fmt3num52_$LT$impl$u20$core..fmt..Debug$u20$for$u20$usize$GT$3fmt17h7d8d90efa1f76e4dE+0x94>
    802067d6:	853a                	mv	a0,a4
    802067d8:	00f77793          	andi	a5,a4,15
    802067dc:	03000613          	li	a2,48
    802067e0:	fe57e1e3          	bltu	a5,t0,802067c2 <_ZN4core3fmt3num52_$LT$impl$u20$core..fmt..Debug$u20$for$u20$usize$GT$3fmt17h7d8d90efa1f76e4dE+0x36>
    802067e4:	05700613          	li	a2,87
    802067e8:	bfe9                	j	802067c2 <_ZN4core3fmt3num52_$LT$impl$u20$core..fmt..Debug$u20$for$u20$usize$GT$3fmt17h7d8d90efa1f76e4dE+0x36>
    802067ea:	4581                	li	a1,0
    802067ec:	6118                	ld	a4,0(a0)
    802067ee:	00810893          	addi	a7,sp,8
    802067f2:	42a9                	li	t0,10
    802067f4:	433d                	li	t1,15
    802067f6:	a819                	j	8020680c <_ZN4core3fmt3num52_$LT$impl$u20$core..fmt..Debug$u20$for$u20$usize$GT$3fmt17h7d8d90efa1f76e4dE+0x80>
    802067f8:	00b886b3          	add	a3,a7,a1
    802067fc:	00455713          	srli	a4,a0,0x4
    80206800:	9e3d                	addw	a2,a2,a5
    80206802:	06c68fa3          	sb	a2,127(a3)
    80206806:	15fd                	addi	a1,a1,-1
    80206808:	00a37c63          	bgeu	t1,a0,80206820 <_ZN4core3fmt3num52_$LT$impl$u20$core..fmt..Debug$u20$for$u20$usize$GT$3fmt17h7d8d90efa1f76e4dE+0x94>
    8020680c:	853a                	mv	a0,a4
    8020680e:	00f77793          	andi	a5,a4,15
    80206812:	03000613          	li	a2,48
    80206816:	fe57e1e3          	bltu	a5,t0,802067f8 <_ZN4core3fmt3num52_$LT$impl$u20$core..fmt..Debug$u20$for$u20$usize$GT$3fmt17h7d8d90efa1f76e4dE+0x6c>
    8020681a:	03700613          	li	a2,55
    8020681e:	bfe9                	j	802067f8 <_ZN4core3fmt3num52_$LT$impl$u20$core..fmt..Debug$u20$for$u20$usize$GT$3fmt17h7d8d90efa1f76e4dE+0x6c>
    80206820:	08058513          	addi	a0,a1,128
    80206824:	08100613          	li	a2,129
    80206828:	02c57663          	bgeu	a0,a2,80206854 <.LBB569_15>
    8020682c:	0028                	addi	a0,sp,8
    8020682e:	952e                	add	a0,a0,a1
    80206830:	08050713          	addi	a4,a0,128
    80206834:	40b007b3          	neg	a5,a1

0000000080206838 <.LBB569_14>:
    80206838:	00004617          	auipc	a2,0x4
    8020683c:	76860613          	addi	a2,a2,1896 # 8020afa0 <.Lanon.5d7b72655c03d3be6c233dc0a6aa27b8.286>
    80206840:	4585                	li	a1,1
    80206842:	4689                	li	a3,2
    80206844:	8542                	mv	a0,a6
    80206846:	ffffe097          	auipc	ra,0xffffe
    8020684a:	658080e7          	jalr	1624(ra) # 80204e9e <_ZN4core3fmt9Formatter12pad_integral17h2910eee1e3128085E>
    8020684e:	60aa                	ld	ra,136(sp)
    80206850:	6149                	addi	sp,sp,144
    80206852:	8082                	ret

0000000080206854 <.LBB569_15>:
    80206854:	00004617          	auipc	a2,0x4
    80206858:	73460613          	addi	a2,a2,1844 # 8020af88 <.Lanon.5d7b72655c03d3be6c233dc0a6aa27b8.283>
    8020685c:	08000593          	li	a1,128
    80206860:	fffff097          	auipc	ra,0xfffff
    80206864:	232080e7          	jalr	562(ra) # 80205a92 <_ZN4core5slice5index26slice_start_index_len_fail17hdcd879eec8619ea3E>
	...

000000008020686a <_ZN4core3fmt3num3imp7fmt_u6417h2bebad4dea13b624E>:
    8020686a:	7139                	addi	sp,sp,-64
    8020686c:	fc06                	sd	ra,56(sp)
    8020686e:	f822                	sd	s0,48(sp)
    80206870:	f426                	sd	s1,40(sp)
    80206872:	8832                	mv	a6,a2
    80206874:	00455693          	srli	a3,a0,0x4
    80206878:	02700713          	li	a4,39
    8020687c:	27100793          	li	a5,625

0000000080206880 <.LBB570_10>:
    80206880:	00004e97          	auipc	t4,0x4
    80206884:	722e8e93          	addi	t4,t4,1826 # 8020afa2 <.Lanon.5d7b72655c03d3be6c233dc0a6aa27b8.287>
    80206888:	02f6f363          	bgeu	a3,a5,802068ae <.LBB570_10+0x2e>
    8020688c:	06300693          	li	a3,99
    80206890:	0aa6e963          	bltu	a3,a0,80206942 <.LBB570_11+0x92>
    80206894:	4629                	li	a2,10
    80206896:	0ec57763          	bgeu	a0,a2,80206984 <.LBB570_11+0xd4>
    8020689a:	fff70693          	addi	a3,a4,-1 # adfff <.Lline_table_start0+0x829f4>
    8020689e:	00110613          	addi	a2,sp,1
    802068a2:	9636                	add	a2,a2,a3
    802068a4:	0305051b          	addiw	a0,a0,48
    802068a8:	00a60023          	sb	a0,0(a2)
    802068ac:	a8dd                	j	802069a2 <.LBB570_11+0xf2>
    802068ae:	4701                	li	a4,0

00000000802068b0 <.LBB570_11>:
    802068b0:	00001697          	auipc	a3,0x1
    802068b4:	a8868693          	addi	a3,a3,-1400 # 80207338 <.LCPI570_0>
    802068b8:	0006b883          	ld	a7,0(a3)
    802068bc:	6689                	lui	a3,0x2
    802068be:	7106839b          	addiw	t2,a3,1808
    802068c2:	6685                	lui	a3,0x1
    802068c4:	47b68e1b          	addiw	t3,a3,1147
    802068c8:	06400293          	li	t0,100
    802068cc:	00110313          	addi	t1,sp,1
    802068d0:	05f5e6b7          	lui	a3,0x5f5e
    802068d4:	0ff68f1b          	addiw	t5,a3,255
    802068d8:	87aa                	mv	a5,a0
    802068da:	03153533          	mulhu	a0,a0,a7
    802068de:	812d                	srli	a0,a0,0xb
    802068e0:	0275063b          	mulw	a2,a0,t2
    802068e4:	40c7863b          	subw	a2,a5,a2
    802068e8:	03061693          	slli	a3,a2,0x30
    802068ec:	92c9                	srli	a3,a3,0x32
    802068ee:	03c686b3          	mul	a3,a3,t3
    802068f2:	0116df93          	srli	t6,a3,0x11
    802068f6:	82c1                	srli	a3,a3,0x10
    802068f8:	7fe6f413          	andi	s0,a3,2046
    802068fc:	025f86bb          	mulw	a3,t6,t0
    80206900:	9e15                	subw	a2,a2,a3
    80206902:	1646                	slli	a2,a2,0x31
    80206904:	9241                	srli	a2,a2,0x30
    80206906:	008e86b3          	add	a3,t4,s0
    8020690a:	00e30433          	add	s0,t1,a4
    8020690e:	0006cf83          	lbu	t6,0(a3) # 5f5e000 <.Lline_table_start0+0x5f329f5>
    80206912:	00168683          	lb	a3,1(a3)
    80206916:	9676                	add	a2,a2,t4
    80206918:	00160483          	lb	s1,1(a2)
    8020691c:	00064603          	lbu	a2,0(a2)
    80206920:	02d40223          	sb	a3,36(s0)
    80206924:	03f401a3          	sb	t6,35(s0)
    80206928:	02940323          	sb	s1,38(s0)
    8020692c:	02c402a3          	sb	a2,37(s0)
    80206930:	1771                	addi	a4,a4,-4
    80206932:	faff63e3          	bltu	t5,a5,802068d8 <.LBB570_11+0x28>
    80206936:	02770713          	addi	a4,a4,39
    8020693a:	06300693          	li	a3,99
    8020693e:	f4a6fbe3          	bgeu	a3,a0,80206894 <.LBB570_10+0x14>
    80206942:	03051613          	slli	a2,a0,0x30
    80206946:	9249                	srli	a2,a2,0x32
    80206948:	6685                	lui	a3,0x1
    8020694a:	47b6869b          	addiw	a3,a3,1147
    8020694e:	02d60633          	mul	a2,a2,a3
    80206952:	8245                	srli	a2,a2,0x11
    80206954:	06400693          	li	a3,100
    80206958:	02d606bb          	mulw	a3,a2,a3
    8020695c:	9d15                	subw	a0,a0,a3
    8020695e:	1546                	slli	a0,a0,0x31
    80206960:	9141                	srli	a0,a0,0x30
    80206962:	1779                	addi	a4,a4,-2
    80206964:	9576                	add	a0,a0,t4
    80206966:	00150683          	lb	a3,1(a0)
    8020696a:	00054503          	lbu	a0,0(a0)
    8020696e:	00110793          	addi	a5,sp,1
    80206972:	97ba                	add	a5,a5,a4
    80206974:	00d780a3          	sb	a3,1(a5)
    80206978:	00a78023          	sb	a0,0(a5)
    8020697c:	8532                	mv	a0,a2
    8020697e:	4629                	li	a2,10
    80206980:	f0c56de3          	bltu	a0,a2,8020689a <.LBB570_10+0x1a>
    80206984:	0506                	slli	a0,a0,0x1
    80206986:	ffe70693          	addi	a3,a4,-2
    8020698a:	9576                	add	a0,a0,t4
    8020698c:	00150603          	lb	a2,1(a0)
    80206990:	00054503          	lbu	a0,0(a0)
    80206994:	00110713          	addi	a4,sp,1
    80206998:	9736                	add	a4,a4,a3
    8020699a:	00c700a3          	sb	a2,1(a4)
    8020699e:	00a70023          	sb	a0,0(a4)
    802069a2:	00110513          	addi	a0,sp,1
    802069a6:	00d50733          	add	a4,a0,a3
    802069aa:	02700513          	li	a0,39
    802069ae:	40d507b3          	sub	a5,a0,a3

00000000802069b2 <.LBB570_12>:
    802069b2:	00004617          	auipc	a2,0x4
    802069b6:	34e60613          	addi	a2,a2,846 # 8020ad00 <.Lanon.5d7b72655c03d3be6c233dc0a6aa27b8.94>
    802069ba:	8542                	mv	a0,a6
    802069bc:	4681                	li	a3,0
    802069be:	ffffe097          	auipc	ra,0xffffe
    802069c2:	4e0080e7          	jalr	1248(ra) # 80204e9e <_ZN4core3fmt9Formatter12pad_integral17h2910eee1e3128085E>
    802069c6:	70e2                	ld	ra,56(sp)
    802069c8:	7442                	ld	s0,48(sp)
    802069ca:	74a2                	ld	s1,40(sp)
    802069cc:	6121                	addi	sp,sp,64
    802069ce:	8082                	ret

00000000802069d0 <_ZN4core3fmt3num3imp51_$LT$impl$u20$core..fmt..Display$u20$for$u20$u8$GT$3fmt17h93332490606bba67E>:
    802069d0:	00054503          	lbu	a0,0(a0)
    802069d4:	862e                	mv	a2,a1
    802069d6:	4585                	li	a1,1
    802069d8:	00000317          	auipc	t1,0x0
    802069dc:	e9230067          	jr	-366(t1) # 8020686a <_ZN4core3fmt3num3imp7fmt_u6417h2bebad4dea13b624E>

00000000802069e0 <_ZN4core3fmt3num3imp52_$LT$impl$u20$core..fmt..Display$u20$for$u20$i32$GT$3fmt17hf957be9b21bfb453E>:
    802069e0:	00056503          	lwu	a0,0(a0)
    802069e4:	862e                	mv	a2,a1
    802069e6:	0005069b          	sext.w	a3,a0
    802069ea:	0006a593          	slti	a1,a3,0
    802069ee:	0015c593          	xori	a1,a1,1
    802069f2:	0006d463          	bgez	a3,802069fa <_ZN4core3fmt3num3imp52_$LT$impl$u20$core..fmt..Display$u20$for$u20$i32$GT$3fmt17hf957be9b21bfb453E+0x1a>
    802069f6:	40d00533          	neg	a0,a3
    802069fa:	00000317          	auipc	t1,0x0
    802069fe:	e7030067          	jr	-400(t1) # 8020686a <_ZN4core3fmt3num3imp7fmt_u6417h2bebad4dea13b624E>

0000000080206a02 <_ZN4core3fmt3num3imp52_$LT$impl$u20$core..fmt..Display$u20$for$u20$u32$GT$3fmt17h518678af98a1949fE>:
    80206a02:	00056503          	lwu	a0,0(a0)
    80206a06:	862e                	mv	a2,a1
    80206a08:	4585                	li	a1,1
    80206a0a:	00000317          	auipc	t1,0x0
    80206a0e:	e6030067          	jr	-416(t1) # 8020686a <_ZN4core3fmt3num3imp7fmt_u6417h2bebad4dea13b624E>

0000000080206a12 <_ZN4core3fmt3num3imp52_$LT$impl$u20$core..fmt..Display$u20$for$u20$u64$GT$3fmt17h77ff5d762b7f8e58E>:
    80206a12:	6108                	ld	a0,0(a0)
    80206a14:	862e                	mv	a2,a1
    80206a16:	4585                	li	a1,1
    80206a18:	00000317          	auipc	t1,0x0
    80206a1c:	e5230067          	jr	-430(t1) # 8020686a <_ZN4core3fmt3num3imp7fmt_u6417h2bebad4dea13b624E>

0000000080206a20 <_ZN53_$LT$core..fmt..Error$u20$as$u20$core..fmt..Debug$GT$3fmt17h036960996838d966E>:
    80206a20:	6590                	ld	a2,8(a1)
    80206a22:	6188                	ld	a0,0(a1)
    80206a24:	6e1c                	ld	a5,24(a2)

0000000080206a26 <.LBB602_1>:
    80206a26:	00005597          	auipc	a1,0x5
    80206a2a:	ffe58593          	addi	a1,a1,-2 # 8020ba24 <.Lanon.5d7b72655c03d3be6c233dc0a6aa27b8.631>
    80206a2e:	4615                	li	a2,5
    80206a30:	8782                	jr	a5

0000000080206a32 <_ZN42_$LT$$RF$T$u20$as$u20$core..fmt..Debug$GT$3fmt17h080b833ce0f5925fE>:
    80206a32:	6108                	ld	a0,0(a0)
    80206a34:	00050503          	lb	a0,0(a0)
    80206a38:	00000317          	auipc	t1,0x0
    80206a3c:	b9430067          	jr	-1132(t1) # 802065cc <_ZN4core3fmt3num49_$LT$impl$u20$core..fmt..Debug$u20$for$u20$u8$GT$3fmt17hf059cf4dae679fc3E>

0000000080206a40 <_ZN42_$LT$$RF$T$u20$as$u20$core..fmt..Debug$GT$3fmt17h2511144b6a15f357E>:
    80206a40:	7159                	addi	sp,sp,-112
    80206a42:	f486                	sd	ra,104(sp)
    80206a44:	6108                	ld	a0,0(a0)
    80206a46:	6108                	ld	a0,0(a0)
    80206a48:	f42a                	sd	a0,40(sp)
    80206a4a:	fff50613          	addi	a2,a0,-1
    80206a4e:	fff54513          	not	a0,a0
    80206a52:	8d71                	and	a0,a0,a2

0000000080206a54 <.LBB618_1>:
    80206a54:	00001617          	auipc	a2,0x1
    80206a58:	93460613          	addi	a2,a2,-1740 # 80207388 <.LCPI618_0>
    80206a5c:	6210                	ld	a2,0(a2)

0000000080206a5e <.LBB618_2>:
    80206a5e:	00001697          	auipc	a3,0x1
    80206a62:	93268693          	addi	a3,a3,-1742 # 80207390 <.LCPI618_1>
    80206a66:	6294                	ld	a3,0(a3)
    80206a68:	00155713          	srli	a4,a0,0x1
    80206a6c:	8e79                	and	a2,a2,a4
    80206a6e:	8d11                	sub	a0,a0,a2
    80206a70:	00d57633          	and	a2,a0,a3
    80206a74:	8109                	srli	a0,a0,0x2
    80206a76:	8d75                	and	a0,a0,a3
    80206a78:	9532                	add	a0,a0,a2

0000000080206a7a <.LBB618_3>:
    80206a7a:	00001617          	auipc	a2,0x1
    80206a7e:	91e60613          	addi	a2,a2,-1762 # 80207398 <.LCPI618_2>
    80206a82:	6210                	ld	a2,0(a2)

0000000080206a84 <.LBB618_4>:
    80206a84:	00001697          	auipc	a3,0x1
    80206a88:	91c68693          	addi	a3,a3,-1764 # 802073a0 <.LCPI618_3>
    80206a8c:	6294                	ld	a3,0(a3)
    80206a8e:	00455713          	srli	a4,a0,0x4
    80206a92:	953a                	add	a0,a0,a4
    80206a94:	8d71                	and	a0,a0,a2
    80206a96:	02d50533          	mul	a0,a0,a3
    80206a9a:	9161                	srli	a0,a0,0x38
    80206a9c:	da2a                	sw	a0,52(sp)
    80206a9e:	1028                	addi	a0,sp,40
    80206aa0:	e42a                	sd	a0,8(sp)

0000000080206aa2 <.LBB618_5>:
    80206aa2:	00000517          	auipc	a0,0x0
    80206aa6:	97850513          	addi	a0,a0,-1672 # 8020641a <_ZN69_$LT$core..num..nonzero..NonZeroUsize$u20$as$u20$core..fmt..Debug$GT$3fmt17hb6e444b8c9ee567bE>
    80206aaa:	e82a                	sd	a0,16(sp)
    80206aac:	1848                	addi	a0,sp,52
    80206aae:	ec2a                	sd	a0,24(sp)

0000000080206ab0 <.LBB618_6>:
    80206ab0:	00000517          	auipc	a0,0x0
    80206ab4:	bfc50513          	addi	a0,a0,-1028 # 802066ac <_ZN4core3fmt3num50_$LT$impl$u20$core..fmt..Debug$u20$for$u20$u32$GT$3fmt17hc252e6fc6b662c01E>
    80206ab8:	f02a                	sd	a0,32(sp)
    80206aba:	6188                	ld	a0,0(a1)
    80206abc:	658c                	ld	a1,8(a1)
    80206abe:	fc02                	sd	zero,56(sp)

0000000080206ac0 <.LBB618_7>:
    80206ac0:	00004617          	auipc	a2,0x4
    80206ac4:	27860613          	addi	a2,a2,632 # 8020ad38 <.Lanon.5d7b72655c03d3be6c233dc0a6aa27b8.158>
    80206ac8:	e4b2                	sd	a2,72(sp)
    80206aca:	460d                	li	a2,3
    80206acc:	e8b2                	sd	a2,80(sp)
    80206ace:	0030                	addi	a2,sp,8
    80206ad0:	ecb2                	sd	a2,88(sp)
    80206ad2:	4609                	li	a2,2
    80206ad4:	f0b2                	sd	a2,96(sp)
    80206ad6:	1830                	addi	a2,sp,56
    80206ad8:	ffffe097          	auipc	ra,0xffffe
    80206adc:	23a080e7          	jalr	570(ra) # 80204d12 <_ZN4core3fmt5write17h42fcd7b837de3f75E>
    80206ae0:	70a6                	ld	ra,104(sp)
    80206ae2:	6165                	addi	sp,sp,112
    80206ae4:	8082                	ret

0000000080206ae6 <_ZN42_$LT$$RF$T$u20$as$u20$core..fmt..Debug$GT$3fmt17h2dd2fbac7a8df1f0E>:
    80206ae6:	7139                	addi	sp,sp,-64
    80206ae8:	fc06                	sd	ra,56(sp)
    80206aea:	f822                	sd	s0,48(sp)
    80206aec:	f426                	sd	s1,40(sp)
    80206aee:	6108                	ld	a0,0(a0)
    80206af0:	00054603          	lbu	a2,0(a0)
    80206af4:	842e                	mv	s0,a1
    80206af6:	ce49                	beqz	a2,80206b90 <.LBB621_13+0x1e>
    80206af8:	640c                	ld	a1,8(s0)
    80206afa:	0505                	addi	a0,a0,1
    80206afc:	e42a                	sd	a0,8(sp)
    80206afe:	6008                	ld	a0,0(s0)
    80206b00:	6d94                	ld	a3,24(a1)

0000000080206b02 <.LBB621_10>:
    80206b02:	00002597          	auipc	a1,0x2
    80206b06:	5ee58593          	addi	a1,a1,1518 # 802090f0 <.Lanon.c25a22bef176e972515b110aecca08c8.11+0x20>
    80206b0a:	4611                	li	a2,4
    80206b0c:	9682                	jalr	a3
    80206b0e:	ec22                	sd	s0,24(sp)
    80206b10:	02a10023          	sb	a0,32(sp)
    80206b14:	e802                	sd	zero,16(sp)
    80206b16:	020100a3          	sb	zero,33(sp)

0000000080206b1a <.LBB621_11>:
    80206b1a:	00004617          	auipc	a2,0x4
    80206b1e:	42e60613          	addi	a2,a2,1070 # 8020af48 <.Lanon.5d7b72655c03d3be6c233dc0a6aa27b8.270>
    80206b22:	0808                	addi	a0,sp,16
    80206b24:	002c                	addi	a1,sp,8
    80206b26:	ffffe097          	auipc	ra,0xffffe
    80206b2a:	d62080e7          	jalr	-670(ra) # 80204888 <_ZN4core3fmt8builders10DebugTuple5field17h677b7d6bf29f0a1bE>
    80206b2e:	6542                	ld	a0,16(sp)
    80206b30:	02014583          	lbu	a1,32(sp)
    80206b34:	c539                	beqz	a0,80206b82 <.LBB621_13+0x10>
    80206b36:	4405                	li	s0,1
    80206b38:	e5a1                	bnez	a1,80206b80 <.LBB621_13+0xe>
    80206b3a:	02114583          	lbu	a1,33(sp)
    80206b3e:	157d                	addi	a0,a0,-1
    80206b40:	00153513          	seqz	a0,a0
    80206b44:	64e2                	ld	s1,24(sp)
    80206b46:	00b035b3          	snez	a1,a1
    80206b4a:	8d6d                	and	a0,a0,a1
    80206b4c:	c105                	beqz	a0,80206b6c <.LBB621_12+0x10>
    80206b4e:	0304c503          	lbu	a0,48(s1)
    80206b52:	8911                	andi	a0,a0,4
    80206b54:	ed01                	bnez	a0,80206b6c <.LBB621_12+0x10>
    80206b56:	648c                	ld	a1,8(s1)
    80206b58:	6088                	ld	a0,0(s1)
    80206b5a:	6d94                	ld	a3,24(a1)

0000000080206b5c <.LBB621_12>:
    80206b5c:	00004597          	auipc	a1,0x4
    80206b60:	3e458593          	addi	a1,a1,996 # 8020af40 <.Lanon.5d7b72655c03d3be6c233dc0a6aa27b8.264>
    80206b64:	4605                	li	a2,1
    80206b66:	4405                	li	s0,1
    80206b68:	9682                	jalr	a3
    80206b6a:	e919                	bnez	a0,80206b80 <.LBB621_13+0xe>
    80206b6c:	648c                	ld	a1,8(s1)
    80206b6e:	6088                	ld	a0,0(s1)
    80206b70:	6d94                	ld	a3,24(a1)

0000000080206b72 <.LBB621_13>:
    80206b72:	00004597          	auipc	a1,0x4
    80206b76:	1c058593          	addi	a1,a1,448 # 8020ad32 <.Lanon.5d7b72655c03d3be6c233dc0a6aa27b8.157>
    80206b7a:	4605                	li	a2,1
    80206b7c:	9682                	jalr	a3
    80206b7e:	842a                	mv	s0,a0
    80206b80:	85a2                	mv	a1,s0
    80206b82:	00b03533          	snez	a0,a1
    80206b86:	70e2                	ld	ra,56(sp)
    80206b88:	7442                	ld	s0,48(sp)
    80206b8a:	74a2                	ld	s1,40(sp)
    80206b8c:	6121                	addi	sp,sp,64
    80206b8e:	8082                	ret
    80206b90:	640c                	ld	a1,8(s0)
    80206b92:	6008                	ld	a0,0(s0)
    80206b94:	6d9c                	ld	a5,24(a1)

0000000080206b96 <.LBB621_14>:
    80206b96:	00002597          	auipc	a1,0x2
    80206b9a:	56e58593          	addi	a1,a1,1390 # 80209104 <anon.f016384ff5f45e36efedd53711d4611b.8.llvm.493118147765580453+0x4>
    80206b9e:	4611                	li	a2,4
    80206ba0:	70e2                	ld	ra,56(sp)
    80206ba2:	7442                	ld	s0,48(sp)
    80206ba4:	74a2                	ld	s1,40(sp)
    80206ba6:	6121                	addi	sp,sp,64
    80206ba8:	8782                	jr	a5

0000000080206baa <_ZN42_$LT$$RF$T$u20$as$u20$core..fmt..Debug$GT$3fmt17hcb8bce5ca6b6d1baE>:
    80206baa:	6510                	ld	a2,8(a0)
    80206bac:	6108                	ld	a0,0(a0)
    80206bae:	6e1c                	ld	a5,24(a2)
    80206bb0:	8782                	jr	a5

0000000080206bb2 <_ZN42_$LT$$RF$T$u20$as$u20$core..fmt..Debug$GT$3fmt17hce9151d49674d170E>:
    80206bb2:	6108                	ld	a0,0(a0)
    80206bb4:	00000317          	auipc	t1,0x0
    80206bb8:	bd830067          	jr	-1064(t1) # 8020678c <_ZN4core3fmt3num52_$LT$impl$u20$core..fmt..Debug$u20$for$u20$usize$GT$3fmt17h7d8d90efa1f76e4dE>

0000000080206bbc <_ZN44_$LT$$RF$T$u20$as$u20$core..fmt..Display$GT$3fmt17hcf3c30afa59af89fE>:
    80206bbc:	6114                	ld	a3,0(a0)
    80206bbe:	6510                	ld	a2,8(a0)
    80206bc0:	852e                	mv	a0,a1
    80206bc2:	85b6                	mv	a1,a3
    80206bc4:	ffffe317          	auipc	t1,0xffffe
    80206bc8:	54e30067          	jr	1358(t1) # 80205112 <_ZN4core3fmt9Formatter3pad17h4bb521065e6665e9E>

0000000080206bcc <_ZN64_$LT$core..str..error..Utf8Error$u20$as$u20$core..fmt..Debug$GT$3fmt17h1dbc314162ce6afeE>:
    80206bcc:	7179                	addi	sp,sp,-48
    80206bce:	f406                	sd	ra,40(sp)
    80206bd0:	f022                	sd	s0,32(sp)
    80206bd2:	842e                	mv	s0,a1
    80206bd4:	e02a                	sd	a0,0(sp)
    80206bd6:	658c                	ld	a1,8(a1)
    80206bd8:	0521                	addi	a0,a0,8
    80206bda:	e42a                	sd	a0,8(sp)
    80206bdc:	6008                	ld	a0,0(s0)
    80206bde:	6d94                	ld	a3,24(a1)

0000000080206be0 <.LBB699_8>:
    80206be0:	00005597          	auipc	a1,0x5
    80206be4:	e4958593          	addi	a1,a1,-439 # 8020ba29 <.Lanon.5d7b72655c03d3be6c233dc0a6aa27b8.656>
    80206be8:	4625                	li	a2,9
    80206bea:	9682                	jalr	a3
    80206bec:	e822                	sd	s0,16(sp)
    80206bee:	00a10c23          	sb	a0,24(sp)
    80206bf2:	00010ca3          	sb	zero,25(sp)

0000000080206bf6 <.LBB699_9>:
    80206bf6:	00005597          	auipc	a1,0x5
    80206bfa:	e3c58593          	addi	a1,a1,-452 # 8020ba32 <.Lanon.5d7b72655c03d3be6c233dc0a6aa27b8.657>

0000000080206bfe <.LBB699_10>:
    80206bfe:	00004717          	auipc	a4,0x4
    80206c02:	1ea70713          	addi	a4,a4,490 # 8020ade8 <.Lanon.5d7b72655c03d3be6c233dc0a6aa27b8.237>
    80206c06:	0808                	addi	a0,sp,16
    80206c08:	462d                	li	a2,11
    80206c0a:	868a                	mv	a3,sp
    80206c0c:	ffffe097          	auipc	ra,0xffffe
    80206c10:	b00080e7          	jalr	-1280(ra) # 8020470c <_ZN4core3fmt8builders11DebugStruct5field17ha0e83fa7747a7c74E>

0000000080206c14 <.LBB699_11>:
    80206c14:	00005597          	auipc	a1,0x5
    80206c18:	e2958593          	addi	a1,a1,-471 # 8020ba3d <.Lanon.5d7b72655c03d3be6c233dc0a6aa27b8.658>

0000000080206c1c <.LBB699_12>:
    80206c1c:	00005717          	auipc	a4,0x5
    80206c20:	e2c70713          	addi	a4,a4,-468 # 8020ba48 <.Lanon.5d7b72655c03d3be6c233dc0a6aa27b8.659>
    80206c24:	0808                	addi	a0,sp,16
    80206c26:	4625                	li	a2,9
    80206c28:	0034                	addi	a3,sp,8
    80206c2a:	ffffe097          	auipc	ra,0xffffe
    80206c2e:	ae2080e7          	jalr	-1310(ra) # 8020470c <_ZN4core3fmt8builders11DebugStruct5field17ha0e83fa7747a7c74E>
    80206c32:	01914503          	lbu	a0,25(sp)
    80206c36:	01814583          	lbu	a1,24(sp)
    80206c3a:	c91d                	beqz	a0,80206c70 <.LBB699_14+0xe>
    80206c3c:	4505                	li	a0,1
    80206c3e:	e985                	bnez	a1,80206c6e <.LBB699_14+0xc>
    80206c40:	6542                	ld	a0,16(sp)
    80206c42:	03054583          	lbu	a1,48(a0)
    80206c46:	8991                	andi	a1,a1,4
    80206c48:	e991                	bnez	a1,80206c5c <.LBB699_13+0xc>
    80206c4a:	650c                	ld	a1,8(a0)
    80206c4c:	6108                	ld	a0,0(a0)
    80206c4e:	6d94                	ld	a3,24(a1)

0000000080206c50 <.LBB699_13>:
    80206c50:	00004597          	auipc	a1,0x4
    80206c54:	2eb58593          	addi	a1,a1,747 # 8020af3b <.Lanon.5d7b72655c03d3be6c233dc0a6aa27b8.261>
    80206c58:	4609                	li	a2,2
    80206c5a:	a809                	j	80206c6c <.LBB699_14+0xa>
    80206c5c:	650c                	ld	a1,8(a0)
    80206c5e:	6108                	ld	a0,0(a0)
    80206c60:	6d94                	ld	a3,24(a1)

0000000080206c62 <.LBB699_14>:
    80206c62:	00004597          	auipc	a1,0x4
    80206c66:	2d858593          	addi	a1,a1,728 # 8020af3a <.Lanon.5d7b72655c03d3be6c233dc0a6aa27b8.258>
    80206c6a:	4605                	li	a2,1
    80206c6c:	9682                	jalr	a3
    80206c6e:	85aa                	mv	a1,a0
    80206c70:	00b03533          	snez	a0,a1
    80206c74:	70a2                	ld	ra,40(sp)
    80206c76:	7402                	ld	s0,32(sp)
    80206c78:	6145                	addi	sp,sp,48
    80206c7a:	8082                	ret

0000000080206c7c <_ZN4core7unicode12unicode_data15grapheme_extend6lookup17h93f97eb994836bdeE>:
    80206c7c:	1141                	addi	sp,sp,-16
    80206c7e:	e406                	sd	ra,8(sp)
    80206c80:	4681                	li	a3,0
    80206c82:	00b5131b          	slliw	t1,a0,0xb
    80206c86:	02100793          	li	a5,33

0000000080206c8a <.LBB729_24>:
    80206c8a:	00005297          	auipc	t0,0x5
    80206c8e:	dde28293          	addi	t0,t0,-546 # 8020ba68 <_ZN4core7unicode12unicode_data15grapheme_extend17SHORT_OFFSET_RUNS17h88adcede3324007dE>
    80206c92:	4885                	li	a7,1
    80206c94:	0ff00813          	li	a6,255
    80206c98:	02100713          	li	a4,33
    80206c9c:	a031                	j	80206ca8 <.LBB729_24+0x1e>
    80206c9e:	873e                	mv	a4,a5
    80206ca0:	40d707b3          	sub	a5,a4,a3
    80206ca4:	02e6fb63          	bgeu	a3,a4,80206cda <.LBB729_24+0x50>
    80206ca8:	0017d593          	srli	a1,a5,0x1
    80206cac:	00d587b3          	add	a5,a1,a3
    80206cb0:	00279593          	slli	a1,a5,0x2
    80206cb4:	9596                	add	a1,a1,t0
    80206cb6:	418c                	lw	a1,0(a1)
    80206cb8:	00b5959b          	slliw	a1,a1,0xb
    80206cbc:	567d                	li	a2,-1
    80206cbe:	0065e663          	bltu	a1,t1,80206cca <.LBB729_24+0x40>
    80206cc2:	0065c5b3          	xor	a1,a1,t1
    80206cc6:	00b03633          	snez	a2,a1
    80206cca:	fd160ae3          	beq	a2,a7,80206c9e <.LBB729_24+0x14>
    80206cce:	00178693          	addi	a3,a5,1
    80206cd2:	0ff67593          	andi	a1,a2,255
    80206cd6:	fd0585e3          	beq	a1,a6,80206ca0 <.LBB729_24+0x16>
    80206cda:	02000613          	li	a2,32
    80206cde:	0ad66463          	bltu	a2,a3,80206d86 <.LBB729_27>
    80206ce2:	00269593          	slli	a1,a3,0x2
    80206ce6:	00b28733          	add	a4,t0,a1
    80206cea:	00076583          	lwu	a1,0(a4)
    80206cee:	81d5                	srli	a1,a1,0x15
    80206cf0:	00c69663          	bne	a3,a2,80206cfc <.LBB729_24+0x72>
    80206cf4:	2d700713          	li	a4,727
    80206cf8:	46fd                	li	a3,31
    80206cfa:	a039                	j	80206d08 <.LBB729_24+0x7e>
    80206cfc:	00476603          	lwu	a2,4(a4)
    80206d00:	01565713          	srli	a4,a2,0x15
    80206d04:	ceb9                	beqz	a3,80206d62 <.LBB729_25+0x2c>
    80206d06:	16fd                	addi	a3,a3,-1
    80206d08:	00269613          	slli	a2,a3,0x2
    80206d0c:	9616                	add	a2,a2,t0
    80206d0e:	00066603          	lwu	a2,0(a2)
    80206d12:	162e                	slli	a2,a2,0x2b
    80206d14:	922d                	srli	a2,a2,0x2b
    80206d16:	fff5c693          	not	a3,a1
    80206d1a:	96ba                	add	a3,a3,a4
    80206d1c:	ce95                	beqz	a3,80206d58 <.LBB729_25+0x22>
    80206d1e:	2d700793          	li	a5,727
    80206d22:	882e                	mv	a6,a1
    80206d24:	00b7e463          	bltu	a5,a1,80206d2c <.LBB729_24+0xa2>
    80206d28:	2d700813          	li	a6,727
    80206d2c:	4781                	li	a5,0
    80206d2e:	40c5063b          	subw	a2,a0,a2
    80206d32:	fff70513          	addi	a0,a4,-1

0000000080206d36 <.LBB729_25>:
    80206d36:	00005717          	auipc	a4,0x5
    80206d3a:	db670713          	addi	a4,a4,-586 # 8020baec <_ZN4core7unicode12unicode_data15grapheme_extend7OFFSETS17hb4dfebf006218386E>
    80206d3e:	02b80863          	beq	a6,a1,80206d6e <.LBB729_26>
    80206d42:	00b706b3          	add	a3,a4,a1
    80206d46:	0006c683          	lbu	a3,0(a3)
    80206d4a:	9fb5                	addw	a5,a5,a3
    80206d4c:	00f66663          	bltu	a2,a5,80206d58 <.LBB729_25+0x22>
    80206d50:	0585                	addi	a1,a1,1
    80206d52:	feb516e3          	bne	a0,a1,80206d3e <.LBB729_25+0x8>
    80206d56:	85aa                	mv	a1,a0
    80206d58:	0015f513          	andi	a0,a1,1
    80206d5c:	60a2                	ld	ra,8(sp)
    80206d5e:	0141                	addi	sp,sp,16
    80206d60:	8082                	ret
    80206d62:	4601                	li	a2,0
    80206d64:	fff5c693          	not	a3,a1
    80206d68:	96ba                	add	a3,a3,a4
    80206d6a:	fad5                	bnez	a3,80206d1e <.LBB729_24+0x94>
    80206d6c:	b7f5                	j	80206d58 <.LBB729_25+0x22>

0000000080206d6e <.LBB729_26>:
    80206d6e:	00005617          	auipc	a2,0x5
    80206d72:	05a60613          	addi	a2,a2,90 # 8020bdc8 <.Lanon.5d7b72655c03d3be6c233dc0a6aa27b8.725>
    80206d76:	2d700593          	li	a1,727
    80206d7a:	8542                	mv	a0,a6
    80206d7c:	ffffd097          	auipc	ra,0xffffd
    80206d80:	6c6080e7          	jalr	1734(ra) # 80204442 <_ZN4core9panicking18panic_bounds_check17h03ed6527cd415bf9E>
	...

0000000080206d86 <.LBB729_27>:
    80206d86:	00005617          	auipc	a2,0x5
    80206d8a:	04260613          	addi	a2,a2,66 # 8020bdc8 <.Lanon.5d7b72655c03d3be6c233dc0a6aa27b8.725>
    80206d8e:	02100593          	li	a1,33
    80206d92:	8536                	mv	a0,a3
    80206d94:	ffffd097          	auipc	ra,0xffffd
    80206d98:	6ae080e7          	jalr	1710(ra) # 80204442 <_ZN4core9panicking18panic_bounds_check17h03ed6527cd415bf9E>
	...

0000000080206d9e <_ZN64_$LT$core..alloc..layout..Layout$u20$as$u20$core..fmt..Debug$GT$3fmt17h4dffa51a136ebc57E>:
    80206d9e:	7179                	addi	sp,sp,-48
    80206da0:	f406                	sd	ra,40(sp)
    80206da2:	f022                	sd	s0,32(sp)
    80206da4:	842e                	mv	s0,a1
    80206da6:	e02a                	sd	a0,0(sp)
    80206da8:	658c                	ld	a1,8(a1)
    80206daa:	0521                	addi	a0,a0,8
    80206dac:	e42a                	sd	a0,8(sp)
    80206dae:	6008                	ld	a0,0(s0)
    80206db0:	6d94                	ld	a3,24(a1)

0000000080206db2 <.LBB738_8>:
    80206db2:	00005597          	auipc	a1,0x5
    80206db6:	02e58593          	addi	a1,a1,46 # 8020bde0 <.Lanon.5d7b72655c03d3be6c233dc0a6aa27b8.750>
    80206dba:	4619                	li	a2,6
    80206dbc:	9682                	jalr	a3
    80206dbe:	e822                	sd	s0,16(sp)
    80206dc0:	00a10c23          	sb	a0,24(sp)
    80206dc4:	00010ca3          	sb	zero,25(sp)

0000000080206dc8 <.LBB738_9>:
    80206dc8:	00002597          	auipc	a1,0x2
    80206dcc:	32458593          	addi	a1,a1,804 # 802090ec <.Lanon.c25a22bef176e972515b110aecca08c8.11+0x1c>

0000000080206dd0 <.LBB738_10>:
    80206dd0:	00004717          	auipc	a4,0x4
    80206dd4:	01870713          	addi	a4,a4,24 # 8020ade8 <.Lanon.5d7b72655c03d3be6c233dc0a6aa27b8.237>
    80206dd8:	0808                	addi	a0,sp,16
    80206dda:	4611                	li	a2,4
    80206ddc:	868a                	mv	a3,sp
    80206dde:	ffffe097          	auipc	ra,0xffffe
    80206de2:	92e080e7          	jalr	-1746(ra) # 8020470c <_ZN4core3fmt8builders11DebugStruct5field17ha0e83fa7747a7c74E>

0000000080206de6 <.LBB738_11>:
    80206de6:	00005597          	auipc	a1,0x5
    80206dea:	00058593          	mv	a1,a1

0000000080206dee <.LBB738_12>:
    80206dee:	00005717          	auipc	a4,0x5
    80206df2:	00270713          	addi	a4,a4,2 # 8020bdf0 <.Lanon.5d7b72655c03d3be6c233dc0a6aa27b8.753>
    80206df6:	0808                	addi	a0,sp,16
    80206df8:	4615                	li	a2,5
    80206dfa:	0034                	addi	a3,sp,8
    80206dfc:	ffffe097          	auipc	ra,0xffffe
    80206e00:	910080e7          	jalr	-1776(ra) # 8020470c <_ZN4core3fmt8builders11DebugStruct5field17ha0e83fa7747a7c74E>
    80206e04:	01914503          	lbu	a0,25(sp)
    80206e08:	01814583          	lbu	a1,24(sp)
    80206e0c:	c91d                	beqz	a0,80206e42 <.LBB738_14+0xe>
    80206e0e:	4505                	li	a0,1
    80206e10:	e985                	bnez	a1,80206e40 <.LBB738_14+0xc>
    80206e12:	6542                	ld	a0,16(sp)
    80206e14:	03054583          	lbu	a1,48(a0)
    80206e18:	8991                	andi	a1,a1,4
    80206e1a:	e991                	bnez	a1,80206e2e <.LBB738_13+0xc>
    80206e1c:	650c                	ld	a1,8(a0)
    80206e1e:	6108                	ld	a0,0(a0)
    80206e20:	6d94                	ld	a3,24(a1)

0000000080206e22 <.LBB738_13>:
    80206e22:	00004597          	auipc	a1,0x4
    80206e26:	11958593          	addi	a1,a1,281 # 8020af3b <.Lanon.5d7b72655c03d3be6c233dc0a6aa27b8.261>
    80206e2a:	4609                	li	a2,2
    80206e2c:	a809                	j	80206e3e <.LBB738_14+0xa>
    80206e2e:	650c                	ld	a1,8(a0)
    80206e30:	6108                	ld	a0,0(a0)
    80206e32:	6d94                	ld	a3,24(a1)

0000000080206e34 <.LBB738_14>:
    80206e34:	00004597          	auipc	a1,0x4
    80206e38:	10658593          	addi	a1,a1,262 # 8020af3a <.Lanon.5d7b72655c03d3be6c233dc0a6aa27b8.258>
    80206e3c:	4605                	li	a2,1
    80206e3e:	9682                	jalr	a3
    80206e40:	85aa                	mv	a1,a0
    80206e42:	00b03533          	snez	a0,a1
    80206e46:	70a2                	ld	ra,40(sp)
    80206e48:	7402                	ld	s0,32(sp)
    80206e4a:	6145                	addi	sp,sp,48
    80206e4c:	8082                	ret

0000000080206e4e <memset>:
    80206e4e:	00000317          	auipc	t1,0x0
    80206e52:	0b630067          	jr	182(t1) # 80206f04 <_ZN17compiler_builtins3mem6memset17h145cb91cb23ad912E>

0000000080206e56 <_ZN17compiler_builtins3mem6memcpy17h1cdac96a74bbfcebE>:
    80206e56:	46bd                	li	a3,15
    80206e58:	06c6fa63          	bgeu	a3,a2,80206ecc <_ZN17compiler_builtins3mem6memcpy17h1cdac96a74bbfcebE+0x76>
    80206e5c:	40a006bb          	negw	a3,a0
    80206e60:	0076f813          	andi	a6,a3,7
    80206e64:	010503b3          	add	t2,a0,a6
    80206e68:	00080c63          	beqz	a6,80206e80 <_ZN17compiler_builtins3mem6memcpy17h1cdac96a74bbfcebE+0x2a>
    80206e6c:	87aa                	mv	a5,a0
    80206e6e:	86ae                	mv	a3,a1
    80206e70:	00068703          	lb	a4,0(a3)
    80206e74:	00e78023          	sb	a4,0(a5)
    80206e78:	0785                	addi	a5,a5,1
    80206e7a:	0685                	addi	a3,a3,1
    80206e7c:	fe77eae3          	bltu	a5,t2,80206e70 <_ZN17compiler_builtins3mem6memcpy17h1cdac96a74bbfcebE+0x1a>
    80206e80:	010588b3          	add	a7,a1,a6
    80206e84:	41060833          	sub	a6,a2,a6
    80206e88:	ff887293          	andi	t0,a6,-8
    80206e8c:	0078f593          	andi	a1,a7,7
    80206e90:	005386b3          	add	a3,t2,t0
    80206e94:	cd9d                	beqz	a1,80206ed2 <_ZN17compiler_builtins3mem6memcpy17h1cdac96a74bbfcebE+0x7c>
    80206e96:	04505863          	blez	t0,80206ee6 <_ZN17compiler_builtins3mem6memcpy17h1cdac96a74bbfcebE+0x90>
    80206e9a:	00359313          	slli	t1,a1,0x3
    80206e9e:	ff88f713          	andi	a4,a7,-8
    80206ea2:	6310                	ld	a2,0(a4)
    80206ea4:	406005bb          	negw	a1,t1
    80206ea8:	0385fe13          	andi	t3,a1,56
    80206eac:	00870793          	addi	a5,a4,8
    80206eb0:	6398                	ld	a4,0(a5)
    80206eb2:	00665633          	srl	a2,a2,t1
    80206eb6:	01c715b3          	sll	a1,a4,t3
    80206eba:	8dd1                	or	a1,a1,a2
    80206ebc:	00b3b023          	sd	a1,0(t2)
    80206ec0:	03a1                	addi	t2,t2,8
    80206ec2:	07a1                	addi	a5,a5,8
    80206ec4:	863a                	mv	a2,a4
    80206ec6:	fed3e5e3          	bltu	t2,a3,80206eb0 <_ZN17compiler_builtins3mem6memcpy17h1cdac96a74bbfcebE+0x5a>
    80206eca:	a831                	j	80206ee6 <_ZN17compiler_builtins3mem6memcpy17h1cdac96a74bbfcebE+0x90>
    80206ecc:	86aa                	mv	a3,a0
    80206ece:	e20d                	bnez	a2,80206ef0 <_ZN17compiler_builtins3mem6memcpy17h1cdac96a74bbfcebE+0x9a>
    80206ed0:	a80d                	j	80206f02 <_ZN17compiler_builtins3mem6memcpy17h1cdac96a74bbfcebE+0xac>
    80206ed2:	00505a63          	blez	t0,80206ee6 <_ZN17compiler_builtins3mem6memcpy17h1cdac96a74bbfcebE+0x90>
    80206ed6:	85c6                	mv	a1,a7
    80206ed8:	6190                	ld	a2,0(a1)
    80206eda:	00c3b023          	sd	a2,0(t2)
    80206ede:	03a1                	addi	t2,t2,8
    80206ee0:	05a1                	addi	a1,a1,8
    80206ee2:	fed3ebe3          	bltu	t2,a3,80206ed8 <_ZN17compiler_builtins3mem6memcpy17h1cdac96a74bbfcebE+0x82>
    80206ee6:	005885b3          	add	a1,a7,t0
    80206eea:	00787613          	andi	a2,a6,7
    80206eee:	ca11                	beqz	a2,80206f02 <_ZN17compiler_builtins3mem6memcpy17h1cdac96a74bbfcebE+0xac>
    80206ef0:	9636                	add	a2,a2,a3
    80206ef2:	00058703          	lb	a4,0(a1)
    80206ef6:	00e68023          	sb	a4,0(a3)
    80206efa:	0685                	addi	a3,a3,1
    80206efc:	0585                	addi	a1,a1,1
    80206efe:	fec6eae3          	bltu	a3,a2,80206ef2 <_ZN17compiler_builtins3mem6memcpy17h1cdac96a74bbfcebE+0x9c>
    80206f02:	8082                	ret

0000000080206f04 <_ZN17compiler_builtins3mem6memset17h145cb91cb23ad912E>:
    80206f04:	46bd                	li	a3,15
    80206f06:	04c6fa63          	bgeu	a3,a2,80206f5a <_ZN17compiler_builtins3mem6memset17h145cb91cb23ad912E+0x56>
    80206f0a:	40a006bb          	negw	a3,a0
    80206f0e:	8a9d                	andi	a3,a3,7
    80206f10:	00d50733          	add	a4,a0,a3
    80206f14:	c699                	beqz	a3,80206f22 <_ZN17compiler_builtins3mem6memset17h145cb91cb23ad912E+0x1e>
    80206f16:	87aa                	mv	a5,a0
    80206f18:	00b78023          	sb	a1,0(a5)
    80206f1c:	0785                	addi	a5,a5,1
    80206f1e:	fee7ede3          	bltu	a5,a4,80206f18 <_ZN17compiler_builtins3mem6memset17h145cb91cb23ad912E+0x14>
    80206f22:	40d608b3          	sub	a7,a2,a3
    80206f26:	ff88f793          	andi	a5,a7,-8
    80206f2a:	00f706b3          	add	a3,a4,a5
    80206f2e:	02f05263          	blez	a5,80206f52 <_ZN17compiler_builtins3mem6memset17h145cb91cb23ad912E+0x4e>
    80206f32:	03859813          	slli	a6,a1,0x38
    80206f36:	101017b7          	lui	a5,0x10101
    80206f3a:	0792                	slli	a5,a5,0x4
    80206f3c:	10078793          	addi	a5,a5,256 # 10101100 <.Lline_table_start0+0x100d5af5>
    80206f40:	02f837b3          	mulhu	a5,a6,a5
    80206f44:	02079613          	slli	a2,a5,0x20
    80206f48:	8fd1                	or	a5,a5,a2
    80206f4a:	e31c                	sd	a5,0(a4)
    80206f4c:	0721                	addi	a4,a4,8
    80206f4e:	fed76ee3          	bltu	a4,a3,80206f4a <_ZN17compiler_builtins3mem6memset17h145cb91cb23ad912E+0x46>
    80206f52:	0078f613          	andi	a2,a7,7
    80206f56:	e601                	bnez	a2,80206f5e <_ZN17compiler_builtins3mem6memset17h145cb91cb23ad912E+0x5a>
    80206f58:	a809                	j	80206f6a <_ZN17compiler_builtins3mem6memset17h145cb91cb23ad912E+0x66>
    80206f5a:	86aa                	mv	a3,a0
    80206f5c:	c619                	beqz	a2,80206f6a <_ZN17compiler_builtins3mem6memset17h145cb91cb23ad912E+0x66>
    80206f5e:	9636                	add	a2,a2,a3
    80206f60:	00b68023          	sb	a1,0(a3)
    80206f64:	0685                	addi	a3,a3,1
    80206f66:	fec6ede3          	bltu	a3,a2,80206f60 <_ZN17compiler_builtins3mem6memset17h145cb91cb23ad912E+0x5c>
    80206f6a:	8082                	ret

0000000080206f6c <memcpy>:
    80206f6c:	00000317          	auipc	t1,0x0
    80206f70:	eea30067          	jr	-278(t1) # 80206e56 <_ZN17compiler_builtins3mem6memcpy17h1cdac96a74bbfcebE>
