
./target/riscv64gc-unknown-none-elf/release/sel4:     file format elf64-littleriscv


Disassembly of section .text:

0000000080200000 <_start>:
    80200000:	0082e117          	auipc	sp,0x82e
    80200004:	00010113          	mv	sp,sp
    80200008:	00000097          	auipc	ra,0x0
    8020000c:	5c0080e7          	jalr	1472(ra) # 802005c8 <rust_main>

0000000080200010 <_ZN4sel49elfloader9load_apps17h203873c60f9c3c20E>:
    80200010:	715d                	addi	sp,sp,-80
    80200012:	e486                	sd	ra,72(sp)
    80200014:	e0a2                	sd	s0,64(sp)
    80200016:	fc26                	sd	s1,56(sp)
    80200018:	f84a                	sd	s2,48(sp)
    8020001a:	f44e                	sd	s3,40(sp)
    8020001c:	f052                	sd	s4,32(sp)
    8020001e:	ec56                	sd	s5,24(sp)
    80200020:	e85a                	sd	s6,16(sp)
    80200022:	e45e                	sd	s7,8(sp)
    80200024:	0880                	addi	s0,sp,80

0000000080200026 <.LBB0_14>:
    80200026:	00007517          	auipc	a0,0x7
    8020002a:	fda50513          	addi	a0,a0,-38 # 80207000 <_num_app>
    8020002e:	00053983          	ld	s3,0(a0)
    80200032:	0000100f          	fence.i
    80200036:	06098c63          	beqz	s3,802000ae <.LBB0_14+0x88>
    8020003a:	00198913          	addi	s2,s3,1
    8020003e:	4585                	li	a1,1
    80200040:	864a                	mv	a2,s2
    80200042:	0125e363          	bltu	a1,s2,80200048 <.LBB0_14+0x22>
    80200046:	4605                	li	a2,1
    80200048:	4581                	li	a1,0
    8020004a:	fff60a13          	addi	s4,a2,-1
    8020004e:	20500613          	li	a2,517
    80200052:	01661a93          	slli	s5,a2,0x16
    80200056:	040a1637          	lui	a2,0x40a1
    8020005a:	00561b13          	slli	s6,a2,0x5
    8020005e:	00850b93          	addi	s7,a0,8
    80200062:	01159613          	slli	a2,a1,0x11
    80200066:	01560533          	add	a0,a2,s5
    8020006a:	965a                	add	a2,a2,s6
    8020006c:	00c57c63          	bgeu	a0,a2,80200084 <.LBB0_14+0x5e>
    80200070:	00020637          	lui	a2,0x20
    80200074:	86aa                	mv	a3,a0
    80200076:	00168713          	addi	a4,a3,1
    8020007a:	167d                	addi	a2,a2,-1
    8020007c:	00068023          	sb	zero,0(a3)
    80200080:	86ba                	mv	a3,a4
    80200082:	fa75                	bnez	a2,80200076 <.LBB0_14+0x50>
    80200084:	05258063          	beq	a1,s2,802000c4 <.LBB0_15>
    80200088:	00158493          	addi	s1,a1,1
    8020008c:	05458263          	beq	a1,s4,802000d0 <.LBB0_16>
    80200090:	058e                	slli	a1,a1,0x3
    80200092:	95de                	add	a1,a1,s7
    80200094:	618c                	ld	a1,0(a1)
    80200096:	00349613          	slli	a2,s1,0x3
    8020009a:	965e                	add	a2,a2,s7
    8020009c:	6210                	ld	a2,0(a2)
    8020009e:	8e0d                	sub	a2,a2,a1
    802000a0:	00004097          	auipc	ra,0x4
    802000a4:	a08080e7          	jalr	-1528(ra) # 80203aa8 <memcpy>
    802000a8:	85a6                	mv	a1,s1
    802000aa:	fb349ce3          	bne	s1,s3,80200062 <.LBB0_14+0x3c>
    802000ae:	60a6                	ld	ra,72(sp)
    802000b0:	6406                	ld	s0,64(sp)
    802000b2:	74e2                	ld	s1,56(sp)
    802000b4:	7942                	ld	s2,48(sp)
    802000b6:	79a2                	ld	s3,40(sp)
    802000b8:	7a02                	ld	s4,32(sp)
    802000ba:	6ae2                	ld	s5,24(sp)
    802000bc:	6b42                	ld	s6,16(sp)
    802000be:	6ba2                	ld	s7,8(sp)
    802000c0:	6161                	addi	sp,sp,80
    802000c2:	8082                	ret

00000000802000c4 <.LBB0_15>:
    802000c4:	00005617          	auipc	a2,0x5
    802000c8:	f6c60613          	addi	a2,a2,-148 # 80205030 <anon.7a58e6f878823a75fa9f850146af0afb.2.llvm.16730551144368402957>
    802000cc:	854a                	mv	a0,s2
    802000ce:	a031                	j	802000da <.LBB0_16+0xa>

00000000802000d0 <.LBB0_16>:
    802000d0:	00005617          	auipc	a2,0x5
    802000d4:	f7860613          	addi	a2,a2,-136 # 80205048 <anon.7a58e6f878823a75fa9f850146af0afb.3.llvm.16730551144368402957>
    802000d8:	8526                	mv	a0,s1
    802000da:	85ca                	mv	a1,s2
    802000dc:	00002097          	auipc	ra,0x2
    802000e0:	e14080e7          	jalr	-492(ra) # 80201ef0 <_ZN4core9panicking18panic_bounds_check17h03ed6527cd415bf9E>
	...

00000000802000e6 <_ZN4sel49elfloader23create_thread_for_tasks17he5c994560888d61aE>:
    802000e6:	7159                	addi	sp,sp,-112
    802000e8:	f486                	sd	ra,104(sp)
    802000ea:	f0a2                	sd	s0,96(sp)
    802000ec:	eca6                	sd	s1,88(sp)
    802000ee:	e8ca                	sd	s2,80(sp)
    802000f0:	e4ce                	sd	s3,72(sp)
    802000f2:	e0d2                	sd	s4,64(sp)
    802000f4:	fc56                	sd	s5,56(sp)
    802000f6:	f85a                	sd	s6,48(sp)
    802000f8:	f45e                	sd	s7,40(sp)
    802000fa:	f062                	sd	s8,32(sp)
    802000fc:	ec66                	sd	s9,24(sp)
    802000fe:	e86a                	sd	s10,16(sp)
    80200100:	e46e                	sd	s11,8(sp)
    80200102:	1880                	addi	s0,sp,112

0000000080200104 <.LBB1_10>:
    80200104:	00007517          	auipc	a0,0x7
    80200108:	efc50513          	addi	a0,a0,-260 # 80207000 <_num_app>
    8020010c:	00053a03          	ld	s4,0(a0)
    80200110:	0e0a0263          	beqz	s4,802001f4 <.LBB1_12+0xd0>
    80200114:	4a81                	li	s5,0

0000000080200116 <.LBB1_11>:
    80200116:	00830517          	auipc	a0,0x830
    8020011a:	eea50513          	addi	a0,a0,-278 # 80a30000 <_ZN4sel49elfloader10USER_STACK17hc50d7aa2c383dbd2E>
    8020011e:	6589                	lui	a1,0x2
    80200120:	00b50bb3          	add	s7,a0,a1

0000000080200124 <.LBB1_12>:
    80200124:	0002dc17          	auipc	s8,0x2d
    80200128:	edcc0c13          	addi	s8,s8,-292 # 8022d000 <_ZN4sel49elfloader6THREAD17hd5d68928ba5b93e0E>
    8020012c:	20500513          	li	a0,517
    80200130:	01651c93          	slli	s9,a0,0x16
    80200134:	4d85                	li	s11,1
    80200136:	00020b37          	lui	s6,0x20
    8020013a:	a085                	j	8020019a <.LBB1_12+0x76>
    8020013c:	effd7d13          	andi	s10,s10,-257
    80200140:	0004b023          	sd	zero,0(s1)
    80200144:	0174b423          	sd	s7,8(s1)
    80200148:	01048513          	addi	a0,s1,16
    8020014c:	0f000613          	li	a2,240
    80200150:	4581                	li	a1,0
    80200152:	00004097          	auipc	ra,0x4
    80200156:	838080e7          	jalr	-1992(ra) # 8020398a <memset>
    8020015a:	11a4b023          	sd	s10,256(s1)
    8020015e:	1004b423          	sd	zero,264(s1)
    80200162:	1194b823          	sd	s9,272(s1)
    80200166:	1124bc23          	sd	s2,280(s1)
    8020016a:	12048513          	addi	a0,s1,288
    8020016e:	08800613          	li	a2,136
    80200172:	4581                	li	a1,0
    80200174:	00004097          	auipc	ra,0x4
    80200178:	816080e7          	jalr	-2026(ra) # 8020398a <memset>
    8020017c:	1bb4b423          	sd	s11,424(s1)
    80200180:	1b34b823          	sd	s3,432(s1)
    80200184:	1bb4bc23          	sd	s11,440(s1)
    80200188:	009c3023          	sd	s1,0(s8)
    8020018c:	0a85                	addi	s5,s5,1
    8020018e:	9cda                	add	s9,s9,s6
    80200190:	6509                	lui	a0,0x2
    80200192:	9baa                	add	s7,s7,a0
    80200194:	0c21                	addi	s8,s8,8
    80200196:	055a0f63          	beq	s4,s5,802001f4 <.LBB1_12+0xd0>
    8020019a:	4561                	li	a0,24
    8020019c:	4591                	li	a1,4
    8020019e:	00001097          	auipc	ra,0x1
    802001a2:	1b2080e7          	jalr	434(ra) # 80201350 <__rust_alloc>
    802001a6:	892a                	mv	s2,a0
    802001a8:	00053023          	sd	zero,0(a0) # 2000 <.Lline_table_start0+0x2000>
    802001ac:	1c000513          	li	a0,448
    802001b0:	4591                	li	a1,4
    802001b2:	00001097          	auipc	ra,0x1
    802001b6:	19e080e7          	jalr	414(ra) # 80201350 <__rust_alloc>
    802001ba:	84aa                	mv	s1,a0
    802001bc:	4541                	li	a0,16
    802001be:	04aa8a63          	beq	s5,a0,80200212 <.LBB1_13>
    802001c2:	10002d73          	csrr	s10,sstatus
    802001c6:	4505                	li	a0,1
    802001c8:	4585                	li	a1,1
    802001ca:	00001097          	auipc	ra,0x1
    802001ce:	186080e7          	jalr	390(ra) # 80201350 <__rust_alloc>
    802001d2:	c939                	beqz	a0,80200228 <.LBB1_13+0x16>
    802001d4:	89aa                	mv	s3,a0
    802001d6:	1a84b583          	ld	a1,424(s1)
    802001da:	02000513          	li	a0,32
    802001de:	00a98023          	sb	a0,0(s3)
    802001e2:	dda9                	beqz	a1,8020013c <.LBB1_12+0x18>
    802001e4:	1b04b503          	ld	a0,432(s1)
    802001e8:	4605                	li	a2,1
    802001ea:	00001097          	auipc	ra,0x1
    802001ee:	16e080e7          	jalr	366(ra) # 80201358 <__rust_dealloc>
    802001f2:	b7a9                	j	8020013c <.LBB1_12+0x18>
    802001f4:	70a6                	ld	ra,104(sp)
    802001f6:	7406                	ld	s0,96(sp)
    802001f8:	64e6                	ld	s1,88(sp)
    802001fa:	6946                	ld	s2,80(sp)
    802001fc:	69a6                	ld	s3,72(sp)
    802001fe:	6a06                	ld	s4,64(sp)
    80200200:	7ae2                	ld	s5,56(sp)
    80200202:	7b42                	ld	s6,48(sp)
    80200204:	7ba2                	ld	s7,40(sp)
    80200206:	7c02                	ld	s8,32(sp)
    80200208:	6ce2                	ld	s9,24(sp)
    8020020a:	6d42                	ld	s10,16(sp)
    8020020c:	6da2                	ld	s11,8(sp)
    8020020e:	6165                	addi	sp,sp,112
    80200210:	8082                	ret

0000000080200212 <.LBB1_13>:
    80200212:	00005617          	auipc	a2,0x5
    80200216:	e4e60613          	addi	a2,a2,-434 # 80205060 <.Lanon.7a58e6f878823a75fa9f850146af0afb.5>
    8020021a:	4541                	li	a0,16
    8020021c:	45c1                	li	a1,16
    8020021e:	00002097          	auipc	ra,0x2
    80200222:	cd2080e7          	jalr	-814(ra) # 80201ef0 <_ZN4core9panicking18panic_bounds_check17h03ed6527cd415bf9E>
    80200226:	0000                	unimp
    80200228:	4505                	li	a0,1
    8020022a:	4585                	li	a1,1
    8020022c:	00002097          	auipc	ra,0x2
    80200230:	aac080e7          	jalr	-1364(ra) # 80201cd8 <_ZN5alloc5alloc18handle_alloc_error17h88ccbda11633eef3E>
	...

0000000080200236 <_ZN4sel49elfloader14run_first_task17h03dcb03d8b95cd28E>:
    80200236:	1141                	addi	sp,sp,-16
    80200238:	e406                	sd	ra,8(sp)
    8020023a:	e022                	sd	s0,0(sp)
    8020023c:	0800                	addi	s0,sp,16

000000008020023e <.LBB2_1>:
    8020023e:	0002d517          	auipc	a0,0x2d
    80200242:	dc250513          	addi	a0,a0,-574 # 8022d000 <_ZN4sel49elfloader6THREAD17hd5d68928ba5b93e0E>
    80200246:	6108                	ld	a0,0(a0)

0000000080200248 <.LBB2_2>:
    80200248:	00004597          	auipc	a1,0x4
    8020024c:	13858593          	addi	a1,a1,312 # 80204380 <_ZN4sel46kernel6thread11ksCurThread17h5a674989a535a6f6E>
    80200250:	0005b023          	sd	zero,0(a1)
    80200254:	11853503          	ld	a0,280(a0)
    80200258:	610c                	ld	a1,0(a0)
    8020025a:	99c1                	andi	a1,a1,-16
    8020025c:	0015e593          	ori	a1,a1,1
    80200260:	e10c                	sd	a1,0(a0)
    80200262:	60a2                	ld	ra,8(sp)
    80200264:	6402                	ld	s0,0(sp)
    80200266:	0141                	addi	sp,sp,16
    80200268:	00000317          	auipc	t1,0x0
    8020026c:	7be30067          	jr	1982(t1) # 80200a26 <_ZN4sel45traps20restore_user_context17he67396054724b40fE>

0000000080200270 <_ZN4sel49elfloader13run_next_task17h1a06d899a2d5b66eE>:
    80200270:	7139                	addi	sp,sp,-64
    80200272:	fc06                	sd	ra,56(sp)
    80200274:	f822                	sd	s0,48(sp)
    80200276:	0080                	addi	s0,sp,64

0000000080200278 <.LBB3_36>:
    80200278:	00007517          	auipc	a0,0x7
    8020027c:	d8850513          	addi	a0,a0,-632 # 80207000 <_num_app>
    80200280:	6108                	ld	a0,0(a0)
    80200282:	16050063          	beqz	a0,802003e2 <.LBB3_38>

0000000080200286 <.LBB3_37>:
    80200286:	0002d597          	auipc	a1,0x2d
    8020028a:	d7a58593          	addi	a1,a1,-646 # 8022d000 <_ZN4sel49elfloader6THREAD17hd5d68928ba5b93e0E>
    8020028e:	6190                	ld	a2,0(a1)
    80200290:	11863603          	ld	a2,280(a2)
    80200294:	00064603          	lbu	a2,0(a2)
    80200298:	8a3d                	andi	a2,a2,15
    8020029a:	00163613          	seqz	a2,a2
    8020029e:	fff50693          	addi	a3,a0,-1
    802002a2:	0016b693          	seqz	a3,a3
    802002a6:	8e55                	or	a2,a2,a3
    802002a8:	12061d63          	bnez	a2,802003e2 <.LBB3_38>
    802002ac:	6590                	ld	a2,8(a1)
    802002ae:	11863683          	ld	a3,280(a2)
    802002b2:	6298                	ld	a4,0(a3)
    802002b4:	00f77613          	andi	a2,a4,15
    802002b8:	16060363          	beqz	a2,8020041e <.LBB3_40+0x16>
    802002bc:	4609                	li	a2,2
    802002be:	12c50263          	beq	a0,a2,802003e2 <.LBB3_38>
    802002c2:	6994                	ld	a3,16(a1)
    802002c4:	1186b683          	ld	a3,280(a3)
    802002c8:	6298                	ld	a4,0(a3)
    802002ca:	00f77793          	andi	a5,a4,15
    802002ce:	14078963          	beqz	a5,80200420 <.LBB3_40+0x18>
    802002d2:	460d                	li	a2,3
    802002d4:	10c50763          	beq	a0,a2,802003e2 <.LBB3_38>
    802002d8:	6d94                	ld	a3,24(a1)
    802002da:	1186b683          	ld	a3,280(a3)
    802002de:	6298                	ld	a4,0(a3)
    802002e0:	00f77793          	andi	a5,a4,15
    802002e4:	12078e63          	beqz	a5,80200420 <.LBB3_40+0x18>
    802002e8:	4611                	li	a2,4
    802002ea:	0ec50c63          	beq	a0,a2,802003e2 <.LBB3_38>
    802002ee:	7194                	ld	a3,32(a1)
    802002f0:	1186b683          	ld	a3,280(a3)
    802002f4:	6298                	ld	a4,0(a3)
    802002f6:	00f77793          	andi	a5,a4,15
    802002fa:	12078363          	beqz	a5,80200420 <.LBB3_40+0x18>
    802002fe:	4615                	li	a2,5
    80200300:	0ec50163          	beq	a0,a2,802003e2 <.LBB3_38>
    80200304:	7594                	ld	a3,40(a1)
    80200306:	1186b683          	ld	a3,280(a3)
    8020030a:	6298                	ld	a4,0(a3)
    8020030c:	00f77793          	andi	a5,a4,15
    80200310:	10078863          	beqz	a5,80200420 <.LBB3_40+0x18>
    80200314:	4619                	li	a2,6
    80200316:	0cc50663          	beq	a0,a2,802003e2 <.LBB3_38>
    8020031a:	7994                	ld	a3,48(a1)
    8020031c:	1186b683          	ld	a3,280(a3)
    80200320:	6298                	ld	a4,0(a3)
    80200322:	00f77793          	andi	a5,a4,15
    80200326:	cfed                	beqz	a5,80200420 <.LBB3_40+0x18>
    80200328:	461d                	li	a2,7
    8020032a:	0ac50c63          	beq	a0,a2,802003e2 <.LBB3_38>
    8020032e:	7d94                	ld	a3,56(a1)
    80200330:	1186b683          	ld	a3,280(a3)
    80200334:	6298                	ld	a4,0(a3)
    80200336:	00f77793          	andi	a5,a4,15
    8020033a:	c3fd                	beqz	a5,80200420 <.LBB3_40+0x18>
    8020033c:	4621                	li	a2,8
    8020033e:	0ac50263          	beq	a0,a2,802003e2 <.LBB3_38>
    80200342:	61b4                	ld	a3,64(a1)
    80200344:	1186b683          	ld	a3,280(a3)
    80200348:	6298                	ld	a4,0(a3)
    8020034a:	00f77793          	andi	a5,a4,15
    8020034e:	cbe9                	beqz	a5,80200420 <.LBB3_40+0x18>
    80200350:	4625                	li	a2,9
    80200352:	08c50863          	beq	a0,a2,802003e2 <.LBB3_38>
    80200356:	65b4                	ld	a3,72(a1)
    80200358:	1186b683          	ld	a3,280(a3)
    8020035c:	6298                	ld	a4,0(a3)
    8020035e:	00f77793          	andi	a5,a4,15
    80200362:	cfdd                	beqz	a5,80200420 <.LBB3_40+0x18>
    80200364:	4629                	li	a2,10
    80200366:	06c50e63          	beq	a0,a2,802003e2 <.LBB3_38>
    8020036a:	69b4                	ld	a3,80(a1)
    8020036c:	1186b683          	ld	a3,280(a3)
    80200370:	6298                	ld	a4,0(a3)
    80200372:	00f77793          	andi	a5,a4,15
    80200376:	c7cd                	beqz	a5,80200420 <.LBB3_40+0x18>
    80200378:	462d                	li	a2,11
    8020037a:	06c50463          	beq	a0,a2,802003e2 <.LBB3_38>
    8020037e:	6db4                	ld	a3,88(a1)
    80200380:	1186b683          	ld	a3,280(a3)
    80200384:	6298                	ld	a4,0(a3)
    80200386:	00f77793          	andi	a5,a4,15
    8020038a:	cbd9                	beqz	a5,80200420 <.LBB3_40+0x18>
    8020038c:	4631                	li	a2,12
    8020038e:	04c50a63          	beq	a0,a2,802003e2 <.LBB3_38>
    80200392:	71b4                	ld	a3,96(a1)
    80200394:	1186b683          	ld	a3,280(a3)
    80200398:	6298                	ld	a4,0(a3)
    8020039a:	00f77793          	andi	a5,a4,15
    8020039e:	c3c9                	beqz	a5,80200420 <.LBB3_40+0x18>
    802003a0:	4635                	li	a2,13
    802003a2:	04c50063          	beq	a0,a2,802003e2 <.LBB3_38>
    802003a6:	75b4                	ld	a3,104(a1)
    802003a8:	1186b683          	ld	a3,280(a3)
    802003ac:	6298                	ld	a4,0(a3)
    802003ae:	00f77793          	andi	a5,a4,15
    802003b2:	c7bd                	beqz	a5,80200420 <.LBB3_40+0x18>
    802003b4:	4639                	li	a2,14
    802003b6:	02c50663          	beq	a0,a2,802003e2 <.LBB3_38>
    802003ba:	79b4                	ld	a3,112(a1)
    802003bc:	1186b683          	ld	a3,280(a3)
    802003c0:	6298                	ld	a4,0(a3)
    802003c2:	00f77793          	andi	a5,a4,15
    802003c6:	cfa9                	beqz	a5,80200420 <.LBB3_40+0x18>
    802003c8:	463d                	li	a2,15
    802003ca:	00c50c63          	beq	a0,a2,802003e2 <.LBB3_38>
    802003ce:	7dac                	ld	a1,120(a1)
    802003d0:	1185b683          	ld	a3,280(a1)
    802003d4:	6298                	ld	a4,0(a3)
    802003d6:	00f77593          	andi	a1,a4,15
    802003da:	c1b9                	beqz	a1,80200420 <.LBB3_40+0x18>
    802003dc:	45c1                	li	a1,16
    802003de:	04b51f63          	bne	a0,a1,8020043c <.LBB3_42>

00000000802003e2 <.LBB3_38>:
    802003e2:	00005517          	auipc	a0,0x5
    802003e6:	cb650513          	addi	a0,a0,-842 # 80205098 <.Lanon.7a58e6f878823a75fa9f850146af0afb.8>
    802003ea:	fca43823          	sd	a0,-48(s0)
    802003ee:	4505                	li	a0,1
    802003f0:	fca43c23          	sd	a0,-40(s0)
    802003f4:	fc043023          	sd	zero,-64(s0)

00000000802003f8 <.LBB3_39>:
    802003f8:	00005517          	auipc	a0,0x5
    802003fc:	c0850513          	addi	a0,a0,-1016 # 80205000 <.Lanon.7a58e6f878823a75fa9f850146af0afb.0>
    80200400:	fea43023          	sd	a0,-32(s0)
    80200404:	fe043423          	sd	zero,-24(s0)

0000000080200408 <.LBB3_40>:
    80200408:	00005597          	auipc	a1,0x5
    8020040c:	ca058593          	addi	a1,a1,-864 # 802050a8 <.Lanon.7a58e6f878823a75fa9f850146af0afb.9>
    80200410:	fc040513          	addi	a0,s0,-64
    80200414:	00002097          	auipc	ra,0x2
    80200418:	a3a080e7          	jalr	-1478(ra) # 80201e4e <_ZN4core9panicking9panic_fmt17h09608ae52bd0d3adE>
    8020041c:	0000                	unimp
    8020041e:	4605                	li	a2,1
    80200420:	ff077513          	andi	a0,a4,-16
    80200424:	00156513          	ori	a0,a0,1
    80200428:	e288                	sd	a0,0(a3)

000000008020042a <.LBB3_41>:
    8020042a:	00004517          	auipc	a0,0x4
    8020042e:	f5650513          	addi	a0,a0,-170 # 80204380 <_ZN4sel46kernel6thread11ksCurThread17h5a674989a535a6f6E>
    80200432:	e110                	sd	a2,0(a0)
    80200434:	70e2                	ld	ra,56(sp)
    80200436:	7442                	ld	s0,48(sp)
    80200438:	6121                	addi	sp,sp,64
    8020043a:	8082                	ret

000000008020043c <.LBB3_42>:
    8020043c:	00005617          	auipc	a2,0x5
    80200440:	c8460613          	addi	a2,a2,-892 # 802050c0 <.Lanon.7a58e6f878823a75fa9f850146af0afb.10>
    80200444:	4541                	li	a0,16
    80200446:	45c1                	li	a1,16
    80200448:	00002097          	auipc	ra,0x2
    8020044c:	aa8080e7          	jalr	-1368(ra) # 80201ef0 <_ZN4core9panicking18panic_bounds_check17h03ed6527cd415bf9E>
	...

0000000080200452 <_ZN4sel410heap_alloc9init_heap17h3294eb883f2849c6E>:
    80200452:	1101                	addi	sp,sp,-32
    80200454:	ec06                	sd	ra,24(sp)
    80200456:	e822                	sd	s0,16(sp)
    80200458:	e426                	sd	s1,8(sp)
    8020045a:	e04a                	sd	s2,0(sp)
    8020045c:	1000                	addi	s0,sp,32

000000008020045e <.LBB0_3>:
    8020045e:	0082d517          	auipc	a0,0x82d
    80200462:	c2250513          	addi	a0,a0,-990 # 80a2d080 <_ZN4sel410heap_alloc14HEAP_ALLOCATOR17hbb6e3d1831cfc824E.llvm.2016929478837662491>
    80200466:	00001097          	auipc	ra,0x1
    8020046a:	430080e7          	jalr	1072(ra) # 80201896 <_ZN78_$LT$buddy_system_allocator..LockedHeap$u20$as$u20$core..ops..deref..Deref$GT$5deref17h2474381731d24de7E>
    8020046e:	84aa                	mv	s1,a0
    80200470:	4505                	li	a0,1
    80200472:	00a4b92f          	amoadd.d	s2,a0,(s1)
    80200476:	6488                	ld	a0,8(s1)
    80200478:	0230000f          	fence	r,rw
    8020047c:	01250963          	beq	a0,s2,8020048e <.LBB0_3+0x30>
    80200480:	0100000f          	fence	w,unknown
    80200484:	6488                	ld	a0,8(s1)
    80200486:	0230000f          	fence	r,rw
    8020048a:	ff251be3          	bne	a0,s2,80200480 <.LBB0_3+0x22>
    8020048e:	01048513          	addi	a0,s1,16

0000000080200492 <.LBB0_4>:
    80200492:	0002d597          	auipc	a1,0x2d
    80200496:	bee58593          	addi	a1,a1,-1042 # 8022d080 <_ZN4sel410heap_alloc10HEAP_SPACE17h6de606521a529886E.llvm.2016929478837662491>
    8020049a:	00800637          	lui	a2,0x800
    8020049e:	00001097          	auipc	ra,0x1
    802004a2:	eca080e7          	jalr	-310(ra) # 80201368 <_ZN22buddy_system_allocator4Heap4init17h096a9c186af21a8bE>
    802004a6:	00190513          	addi	a0,s2,1
    802004aa:	0310000f          	fence	rw,w
    802004ae:	e488                	sd	a0,8(s1)
    802004b0:	60e2                	ld	ra,24(sp)
    802004b2:	6442                	ld	s0,16(sp)
    802004b4:	64a2                	ld	s1,8(sp)
    802004b6:	6902                	ld	s2,0(sp)
    802004b8:	6105                	addi	sp,sp,32
    802004ba:	8082                	ret

00000000802004bc <__rg_alloc>:
    802004bc:	1141                	addi	sp,sp,-16
    802004be:	e406                	sd	ra,8(sp)
    802004c0:	e022                	sd	s0,0(sp)
    802004c2:	0800                	addi	s0,sp,16

00000000802004c4 <.LBB1_1>:
    802004c4:	0082d617          	auipc	a2,0x82d
    802004c8:	bbc60613          	addi	a2,a2,-1092 # 80a2d080 <_ZN4sel410heap_alloc14HEAP_ALLOCATOR17hbb6e3d1831cfc824E.llvm.2016929478837662491>
    802004cc:	86ae                	mv	a3,a1
    802004ce:	85aa                	mv	a1,a0
    802004d0:	8532                	mv	a0,a2
    802004d2:	8636                	mv	a2,a3
    802004d4:	60a2                	ld	ra,8(sp)
    802004d6:	6402                	ld	s0,0(sp)
    802004d8:	0141                	addi	sp,sp,16
    802004da:	00001317          	auipc	t1,0x1
    802004de:	3cc30067          	jr	972(t1) # 802018a6 <_ZN87_$LT$buddy_system_allocator..LockedHeap$u20$as$u20$core..alloc..global..GlobalAlloc$GT$5alloc17haa7e9017b26f4174E>

00000000802004e2 <__rg_dealloc>:
    802004e2:	1141                	addi	sp,sp,-16
    802004e4:	e406                	sd	ra,8(sp)
    802004e6:	e022                	sd	s0,0(sp)
    802004e8:	0800                	addi	s0,sp,16

00000000802004ea <.LBB2_1>:
    802004ea:	0082d697          	auipc	a3,0x82d
    802004ee:	b9668693          	addi	a3,a3,-1130 # 80a2d080 <_ZN4sel410heap_alloc14HEAP_ALLOCATOR17hbb6e3d1831cfc824E.llvm.2016929478837662491>
    802004f2:	8732                	mv	a4,a2
    802004f4:	862e                	mv	a2,a1
    802004f6:	85aa                	mv	a1,a0
    802004f8:	8536                	mv	a0,a3
    802004fa:	86ba                	mv	a3,a4
    802004fc:	60a2                	ld	ra,8(sp)
    802004fe:	6402                	ld	s0,0(sp)
    80200500:	0141                	addi	sp,sp,16
    80200502:	00001317          	auipc	t1,0x1
    80200506:	3f230067          	jr	1010(t1) # 802018f4 <_ZN87_$LT$buddy_system_allocator..LockedHeap$u20$as$u20$core..alloc..global..GlobalAlloc$GT$7dealloc17ha5c23284bbaeea22E>

000000008020050a <_ZN4sel410heap_alloc18handle_alloc_error17h9322554a2fe4f4c8E>:
    8020050a:	711d                	addi	sp,sp,-96
    8020050c:	ec86                	sd	ra,88(sp)
    8020050e:	e8a2                	sd	s0,80(sp)
    80200510:	1080                	addi	s0,sp,96
    80200512:	faa43023          	sd	a0,-96(s0)
    80200516:	fab43423          	sd	a1,-88(s0)
    8020051a:	fa040513          	addi	a0,s0,-96
    8020051e:	fea43023          	sd	a0,-32(s0)

0000000080200522 <.LBB5_1>:
    80200522:	00003517          	auipc	a0,0x3
    80200526:	3b850513          	addi	a0,a0,952 # 802038da <_ZN64_$LT$core..alloc..layout..Layout$u20$as$u20$core..fmt..Debug$GT$3fmt17h4dffa51a136ebc57E>
    8020052a:	fea43423          	sd	a0,-24(s0)

000000008020052e <.LBB5_2>:
    8020052e:	00005517          	auipc	a0,0x5
    80200532:	c0a50513          	addi	a0,a0,-1014 # 80205138 <.Lanon.8416e864cf83239da1e4ac6d034ea70f.1>
    80200536:	fca43023          	sd	a0,-64(s0)
    8020053a:	4505                	li	a0,1
    8020053c:	fca43423          	sd	a0,-56(s0)
    80200540:	fa043823          	sd	zero,-80(s0)
    80200544:	fe040593          	addi	a1,s0,-32
    80200548:	fcb43823          	sd	a1,-48(s0)
    8020054c:	fca43c23          	sd	a0,-40(s0)

0000000080200550 <.LBB5_3>:
    80200550:	00005597          	auipc	a1,0x5
    80200554:	c1058593          	addi	a1,a1,-1008 # 80205160 <.Lanon.8416e864cf83239da1e4ac6d034ea70f.3>
    80200558:	fb040513          	addi	a0,s0,-80
    8020055c:	00002097          	auipc	ra,0x2
    80200560:	8f2080e7          	jalr	-1806(ra) # 80201e4e <_ZN4core9panicking9panic_fmt17h09608ae52bd0d3adE>
	...

0000000080200566 <__rg_oom>:
    80200566:	1141                	addi	sp,sp,-16
    80200568:	e406                	sd	ra,8(sp)
    8020056a:	e022                	sd	s0,0(sp)
    8020056c:	0800                	addi	s0,sp,16
    8020056e:	00000097          	auipc	ra,0x0
    80200572:	f9c080e7          	jalr	-100(ra) # 8020050a <_ZN4sel410heap_alloc18handle_alloc_error17h9322554a2fe4f4c8E>
	...

0000000080200578 <_ZN4sel43sbi8shutdown17h66331878ed4ddfbbE>:
    80200578:	7139                	addi	sp,sp,-64
    8020057a:	fc06                	sd	ra,56(sp)
    8020057c:	f822                	sd	s0,48(sp)
    8020057e:	0080                	addi	s0,sp,64
    80200580:	48a1                	li	a7,8
    80200582:	4501                	li	a0,0
    80200584:	4581                	li	a1,0
    80200586:	4601                	li	a2,0
    80200588:	00000073          	ecall

000000008020058c <.LBB2_1>:
    8020058c:	00005517          	auipc	a0,0x5
    80200590:	c5c50513          	addi	a0,a0,-932 # 802051e8 <anon.80fe6b9d78d729106af919ba2ad7f04e.2.llvm.8078065010875187348>
    80200594:	fca43823          	sd	a0,-48(s0)
    80200598:	4505                	li	a0,1
    8020059a:	fca43c23          	sd	a0,-40(s0)
    8020059e:	fc043023          	sd	zero,-64(s0)

00000000802005a2 <.LBB2_2>:
    802005a2:	00005517          	auipc	a0,0x5
    802005a6:	c2e50513          	addi	a0,a0,-978 # 802051d0 <anon.80fe6b9d78d729106af919ba2ad7f04e.1.llvm.8078065010875187348>
    802005aa:	fea43023          	sd	a0,-32(s0)
    802005ae:	fe043423          	sd	zero,-24(s0)

00000000802005b2 <.LBB2_3>:
    802005b2:	00005597          	auipc	a1,0x5
    802005b6:	c5658593          	addi	a1,a1,-938 # 80205208 <anon.80fe6b9d78d729106af919ba2ad7f04e.4.llvm.8078065010875187348>
    802005ba:	fc040513          	addi	a0,s0,-64
    802005be:	00002097          	auipc	ra,0x2
    802005c2:	890080e7          	jalr	-1904(ra) # 80201e4e <_ZN4core9panicking9panic_fmt17h09608ae52bd0d3adE>
	...

00000000802005c8 <rust_main>:
    802005c8:	7139                	addi	sp,sp,-64
    802005ca:	fc06                	sd	ra,56(sp)
    802005cc:	f822                	sd	s0,48(sp)
    802005ce:	0080                	addi	s0,sp,64

00000000802005d0 <.LBB2_1>:
    802005d0:	00005517          	auipc	a0,0x5
    802005d4:	c6850513          	addi	a0,a0,-920 # 80205238 <.Lanon.a4b046e8c8d06f61d8cf1bfbf66c30ce.2>
    802005d8:	fca43823          	sd	a0,-48(s0)
    802005dc:	4505                	li	a0,1
    802005de:	fca43c23          	sd	a0,-40(s0)
    802005e2:	fc043023          	sd	zero,-64(s0)

00000000802005e6 <.LBB2_2>:
    802005e6:	00005517          	auipc	a0,0x5
    802005ea:	c3a50513          	addi	a0,a0,-966 # 80205220 <.Lanon.a4b046e8c8d06f61d8cf1bfbf66c30ce.1>
    802005ee:	fea43023          	sd	a0,-32(s0)
    802005f2:	fe043423          	sd	zero,-24(s0)
    802005f6:	fc040513          	addi	a0,s0,-64
    802005fa:	00000097          	auipc	ra,0x0
    802005fe:	290080e7          	jalr	656(ra) # 8020088a <_ZN4sel47console5print17hac8e0d72989ef035E>
    80200602:	00000097          	auipc	ra,0x0
    80200606:	e50080e7          	jalr	-432(ra) # 80200452 <_ZN4sel410heap_alloc9init_heap17h3294eb883f2849c6E>
    8020060a:	00000097          	auipc	ra,0x0
    8020060e:	02a080e7          	jalr	42(ra) # 80200634 <_ZN4sel46kernel4boot17try_inital_kernel17hcd5a0f72a134865cE>
    80200612:	00000097          	auipc	ra,0x0
    80200616:	9fe080e7          	jalr	-1538(ra) # 80200010 <_ZN4sel49elfloader9load_apps17h203873c60f9c3c20E>
    8020061a:	00000097          	auipc	ra,0x0
    8020061e:	acc080e7          	jalr	-1332(ra) # 802000e6 <_ZN4sel49elfloader23create_thread_for_tasks17he5c994560888d61aE>
    80200622:	00000097          	auipc	ra,0x0
    80200626:	c14080e7          	jalr	-1004(ra) # 80200236 <_ZN4sel49elfloader14run_first_task17h03dcb03d8b95cd28E>
    8020062a:	00000097          	auipc	ra,0x0
    8020062e:	f4e080e7          	jalr	-178(ra) # 80200578 <_ZN4sel43sbi8shutdown17h66331878ed4ddfbbE>
	...

0000000080200634 <_ZN4sel46kernel4boot17try_inital_kernel17hcd5a0f72a134865cE>:
    80200634:	1141                	addi	sp,sp,-16
    80200636:	e406                	sd	ra,8(sp)
    80200638:	e022                	sd	s0,0(sp)
    8020063a:	0800                	addi	s0,sp,16
    8020063c:	00000097          	auipc	ra,0x0
    80200640:	3b6080e7          	jalr	950(ra) # 802009f2 <_ZN4sel45traps4init17h3fdfe01b44744affE>
    80200644:	22000513          	li	a0,544
    80200648:	104525f3          	csrrs	a1,sie,a0
    8020064c:	60a2                	ld	ra,8(sp)
    8020064e:	6402                	ld	s0,0(sp)
    80200650:	0141                	addi	sp,sp,16
    80200652:	00000317          	auipc	t1,0x0
    80200656:	3bc30067          	jr	956(t1) # 80200a0e <_ZN4sel45traps22enable_timer_interrupt17h587f2d4d79e42ea3E>

000000008020065a <_ZN4core3ptr37drop_in_place$LT$core..fmt..Error$GT$17h8a07bd9b64186cfeE.llvm.4889975796175582002>:
    8020065a:	1141                	addi	sp,sp,-16
    8020065c:	e406                	sd	ra,8(sp)
    8020065e:	e022                	sd	s0,0(sp)
    80200660:	0800                	addi	s0,sp,16
    80200662:	60a2                	ld	ra,8(sp)
    80200664:	6402                	ld	s0,0(sp)
    80200666:	0141                	addi	sp,sp,16
    80200668:	8082                	ret

000000008020066a <_ZN50_$LT$$RF$mut$u20$W$u20$as$u20$core..fmt..Write$GT$10write_char17hf0d505868795947eE.llvm.4889975796175582002>:
    8020066a:	1101                	addi	sp,sp,-32
    8020066c:	ec06                	sd	ra,24(sp)
    8020066e:	e822                	sd	s0,16(sp)
    80200670:	1000                	addi	s0,sp,32
    80200672:	0005851b          	sext.w	a0,a1
    80200676:	08000613          	li	a2,128
    8020067a:	fe042623          	sw	zero,-20(s0)
    8020067e:	00c57663          	bgeu	a0,a2,8020068a <_ZN50_$LT$$RF$mut$u20$W$u20$as$u20$core..fmt..Write$GT$10write_char17hf0d505868795947eE.llvm.4889975796175582002+0x20>
    80200682:	feb40623          	sb	a1,-20(s0)
    80200686:	4505                	li	a0,1
    80200688:	a851                	j	8020071c <_ZN50_$LT$$RF$mut$u20$W$u20$as$u20$core..fmt..Write$GT$10write_char17hf0d505868795947eE.llvm.4889975796175582002+0xb2>
    8020068a:	00b5d51b          	srliw	a0,a1,0xb
    8020068e:	ed19                	bnez	a0,802006ac <_ZN50_$LT$$RF$mut$u20$W$u20$as$u20$core..fmt..Write$GT$10write_char17hf0d505868795947eE.llvm.4889975796175582002+0x42>
    80200690:	0065d513          	srli	a0,a1,0x6
    80200694:	0c056513          	ori	a0,a0,192
    80200698:	fea40623          	sb	a0,-20(s0)
    8020069c:	03f5f513          	andi	a0,a1,63
    802006a0:	08056513          	ori	a0,a0,128
    802006a4:	fea406a3          	sb	a0,-19(s0)
    802006a8:	4509                	li	a0,2
    802006aa:	a88d                	j	8020071c <_ZN50_$LT$$RF$mut$u20$W$u20$as$u20$core..fmt..Write$GT$10write_char17hf0d505868795947eE.llvm.4889975796175582002+0xb2>
    802006ac:	0105d51b          	srliw	a0,a1,0x10
    802006b0:	e905                	bnez	a0,802006e0 <_ZN50_$LT$$RF$mut$u20$W$u20$as$u20$core..fmt..Write$GT$10write_char17hf0d505868795947eE.llvm.4889975796175582002+0x76>
    802006b2:	02059513          	slli	a0,a1,0x20
    802006b6:	9101                	srli	a0,a0,0x20
    802006b8:	00c5d61b          	srliw	a2,a1,0xc
    802006bc:	0e066613          	ori	a2,a2,224
    802006c0:	fec40623          	sb	a2,-20(s0)
    802006c4:	1552                	slli	a0,a0,0x34
    802006c6:	9169                	srli	a0,a0,0x3a
    802006c8:	08056513          	ori	a0,a0,128
    802006cc:	fea406a3          	sb	a0,-19(s0)
    802006d0:	03f5f513          	andi	a0,a1,63
    802006d4:	08056513          	ori	a0,a0,128
    802006d8:	fea40723          	sb	a0,-18(s0)
    802006dc:	450d                	li	a0,3
    802006de:	a83d                	j	8020071c <_ZN50_$LT$$RF$mut$u20$W$u20$as$u20$core..fmt..Write$GT$10write_char17hf0d505868795947eE.llvm.4889975796175582002+0xb2>
    802006e0:	02059513          	slli	a0,a1,0x20
    802006e4:	9101                	srli	a0,a0,0x20
    802006e6:	02b51613          	slli	a2,a0,0x2b
    802006ea:	9275                	srli	a2,a2,0x3d
    802006ec:	0f066613          	ori	a2,a2,240
    802006f0:	fec40623          	sb	a2,-20(s0)
    802006f4:	02e51613          	slli	a2,a0,0x2e
    802006f8:	9269                	srli	a2,a2,0x3a
    802006fa:	08066613          	ori	a2,a2,128
    802006fe:	fec406a3          	sb	a2,-19(s0)
    80200702:	1552                	slli	a0,a0,0x34
    80200704:	9169                	srli	a0,a0,0x3a
    80200706:	08056513          	ori	a0,a0,128
    8020070a:	fea40723          	sb	a0,-18(s0)
    8020070e:	03f5f513          	andi	a0,a1,63
    80200712:	08056513          	ori	a0,a0,128
    80200716:	fea407a3          	sb	a0,-17(s0)
    8020071a:	4511                	li	a0,4
    8020071c:	fec40693          	addi	a3,s0,-20
    80200720:	00a68733          	add	a4,a3,a0
    80200724:	0df00313          	li	t1,223
    80200728:	0f000813          	li	a6,240
    8020072c:	001102b7          	lui	t0,0x110
    80200730:	4885                	li	a7,1
    80200732:	a801                	j	80200742 <_ZN50_$LT$$RF$mut$u20$W$u20$as$u20$core..fmt..Write$GT$10write_char17hf0d505868795947eE.llvm.4889975796175582002+0xd8>
    80200734:	0685                	addi	a3,a3,1
    80200736:	4581                	li	a1,0
    80200738:	4601                	li	a2,0
    8020073a:	00000073          	ecall
    8020073e:	04e68f63          	beq	a3,a4,8020079c <_ZN50_$LT$$RF$mut$u20$W$u20$as$u20$core..fmt..Write$GT$10write_char17hf0d505868795947eE.llvm.4889975796175582002+0x132>
    80200742:	00068583          	lb	a1,0(a3)
    80200746:	0ff5f513          	andi	a0,a1,255
    8020074a:	fe05d5e3          	bgez	a1,80200734 <_ZN50_$LT$$RF$mut$u20$W$u20$as$u20$core..fmt..Write$GT$10write_char17hf0d505868795947eE.llvm.4889975796175582002+0xca>
    8020074e:	0016c603          	lbu	a2,1(a3)
    80200752:	01f57593          	andi	a1,a0,31
    80200756:	03f67613          	andi	a2,a2,63
    8020075a:	02a37763          	bgeu	t1,a0,80200788 <_ZN50_$LT$$RF$mut$u20$W$u20$as$u20$core..fmt..Write$GT$10write_char17hf0d505868795947eE.llvm.4889975796175582002+0x11e>
    8020075e:	0026c783          	lbu	a5,2(a3)
    80200762:	061a                	slli	a2,a2,0x6
    80200764:	03f7f793          	andi	a5,a5,63
    80200768:	8e5d                	or	a2,a2,a5
    8020076a:	03056463          	bltu	a0,a6,80200792 <_ZN50_$LT$$RF$mut$u20$W$u20$as$u20$core..fmt..Write$GT$10write_char17hf0d505868795947eE.llvm.4889975796175582002+0x128>
    8020076e:	0036c503          	lbu	a0,3(a3)
    80200772:	15f6                	slli	a1,a1,0x3d
    80200774:	91ad                	srli	a1,a1,0x2b
    80200776:	061a                	slli	a2,a2,0x6
    80200778:	03f57513          	andi	a0,a0,63
    8020077c:	8d51                	or	a0,a0,a2
    8020077e:	8d4d                	or	a0,a0,a1
    80200780:	00550e63          	beq	a0,t0,8020079c <_ZN50_$LT$$RF$mut$u20$W$u20$as$u20$core..fmt..Write$GT$10write_char17hf0d505868795947eE.llvm.4889975796175582002+0x132>
    80200784:	0691                	addi	a3,a3,4
    80200786:	bf45                	j	80200736 <_ZN50_$LT$$RF$mut$u20$W$u20$as$u20$core..fmt..Write$GT$10write_char17hf0d505868795947eE.llvm.4889975796175582002+0xcc>
    80200788:	0689                	addi	a3,a3,2
    8020078a:	00659513          	slli	a0,a1,0x6
    8020078e:	8d51                	or	a0,a0,a2
    80200790:	b75d                	j	80200736 <_ZN50_$LT$$RF$mut$u20$W$u20$as$u20$core..fmt..Write$GT$10write_char17hf0d505868795947eE.llvm.4889975796175582002+0xcc>
    80200792:	068d                	addi	a3,a3,3
    80200794:	00c59513          	slli	a0,a1,0xc
    80200798:	8d51                	or	a0,a0,a2
    8020079a:	bf71                	j	80200736 <_ZN50_$LT$$RF$mut$u20$W$u20$as$u20$core..fmt..Write$GT$10write_char17hf0d505868795947eE.llvm.4889975796175582002+0xcc>
    8020079c:	4501                	li	a0,0
    8020079e:	60e2                	ld	ra,24(sp)
    802007a0:	6442                	ld	s0,16(sp)
    802007a2:	6105                	addi	sp,sp,32
    802007a4:	8082                	ret

00000000802007a6 <_ZN50_$LT$$RF$mut$u20$W$u20$as$u20$core..fmt..Write$GT$9write_fmt17hea6da6f03dcdd814E.llvm.4889975796175582002>:
    802007a6:	715d                	addi	sp,sp,-80
    802007a8:	e486                	sd	ra,72(sp)
    802007aa:	e0a2                	sd	s0,64(sp)
    802007ac:	0880                	addi	s0,sp,80
    802007ae:	6108                	ld	a0,0(a0)
    802007b0:	7590                	ld	a2,40(a1)
    802007b2:	7194                	ld	a3,32(a1)
    802007b4:	faa43c23          	sd	a0,-72(s0)
    802007b8:	fec43423          	sd	a2,-24(s0)
    802007bc:	fed43023          	sd	a3,-32(s0)
    802007c0:	6d88                	ld	a0,24(a1)
    802007c2:	6990                	ld	a2,16(a1)
    802007c4:	6594                	ld	a3,8(a1)
    802007c6:	618c                	ld	a1,0(a1)
    802007c8:	fca43c23          	sd	a0,-40(s0)
    802007cc:	fcc43823          	sd	a2,-48(s0)
    802007d0:	fcd43423          	sd	a3,-56(s0)
    802007d4:	fcb43023          	sd	a1,-64(s0)

00000000802007d8 <.LBB2_1>:
    802007d8:	00005597          	auipc	a1,0x5
    802007dc:	a7058593          	addi	a1,a1,-1424 # 80205248 <anon.f016384ff5f45e36efedd53711d4611b.0.llvm.4889975796175582002>
    802007e0:	fb840513          	addi	a0,s0,-72
    802007e4:	fc040613          	addi	a2,s0,-64
    802007e8:	00002097          	auipc	ra,0x2
    802007ec:	dae080e7          	jalr	-594(ra) # 80202596 <_ZN4core3fmt5write17h42fcd7b837de3f75E>
    802007f0:	60a6                	ld	ra,72(sp)
    802007f2:	6406                	ld	s0,64(sp)
    802007f4:	6161                	addi	sp,sp,80
    802007f6:	8082                	ret

00000000802007f8 <_ZN50_$LT$$RF$mut$u20$W$u20$as$u20$core..fmt..Write$GT$9write_str17hff577ac6e379d064E.llvm.4889975796175582002>:
    802007f8:	1141                	addi	sp,sp,-16
    802007fa:	e406                	sd	ra,8(sp)
    802007fc:	e022                	sd	s0,0(sp)
    802007fe:	0800                	addi	s0,sp,16
    80200800:	c241                	beqz	a2,80200880 <_ZN50_$LT$$RF$mut$u20$W$u20$as$u20$core..fmt..Write$GT$9write_str17hff577ac6e379d064E.llvm.4889975796175582002+0x88>
    80200802:	86ae                	mv	a3,a1
    80200804:	00c58733          	add	a4,a1,a2
    80200808:	0df00313          	li	t1,223
    8020080c:	0f000813          	li	a6,240
    80200810:	001102b7          	lui	t0,0x110
    80200814:	4885                	li	a7,1
    80200816:	a801                	j	80200826 <_ZN50_$LT$$RF$mut$u20$W$u20$as$u20$core..fmt..Write$GT$9write_str17hff577ac6e379d064E.llvm.4889975796175582002+0x2e>
    80200818:	0685                	addi	a3,a3,1
    8020081a:	4581                	li	a1,0
    8020081c:	4601                	li	a2,0
    8020081e:	00000073          	ecall
    80200822:	04e68f63          	beq	a3,a4,80200880 <_ZN50_$LT$$RF$mut$u20$W$u20$as$u20$core..fmt..Write$GT$9write_str17hff577ac6e379d064E.llvm.4889975796175582002+0x88>
    80200826:	00068583          	lb	a1,0(a3)
    8020082a:	0ff5f513          	andi	a0,a1,255
    8020082e:	fe05d5e3          	bgez	a1,80200818 <_ZN50_$LT$$RF$mut$u20$W$u20$as$u20$core..fmt..Write$GT$9write_str17hff577ac6e379d064E.llvm.4889975796175582002+0x20>
    80200832:	0016c603          	lbu	a2,1(a3)
    80200836:	01f57593          	andi	a1,a0,31
    8020083a:	03f67613          	andi	a2,a2,63
    8020083e:	02a37763          	bgeu	t1,a0,8020086c <_ZN50_$LT$$RF$mut$u20$W$u20$as$u20$core..fmt..Write$GT$9write_str17hff577ac6e379d064E.llvm.4889975796175582002+0x74>
    80200842:	0026c783          	lbu	a5,2(a3)
    80200846:	061a                	slli	a2,a2,0x6
    80200848:	03f7f793          	andi	a5,a5,63
    8020084c:	8e5d                	or	a2,a2,a5
    8020084e:	03056463          	bltu	a0,a6,80200876 <_ZN50_$LT$$RF$mut$u20$W$u20$as$u20$core..fmt..Write$GT$9write_str17hff577ac6e379d064E.llvm.4889975796175582002+0x7e>
    80200852:	0036c503          	lbu	a0,3(a3)
    80200856:	15f6                	slli	a1,a1,0x3d
    80200858:	91ad                	srli	a1,a1,0x2b
    8020085a:	061a                	slli	a2,a2,0x6
    8020085c:	03f57513          	andi	a0,a0,63
    80200860:	8d51                	or	a0,a0,a2
    80200862:	8d4d                	or	a0,a0,a1
    80200864:	00550e63          	beq	a0,t0,80200880 <_ZN50_$LT$$RF$mut$u20$W$u20$as$u20$core..fmt..Write$GT$9write_str17hff577ac6e379d064E.llvm.4889975796175582002+0x88>
    80200868:	0691                	addi	a3,a3,4
    8020086a:	bf45                	j	8020081a <_ZN50_$LT$$RF$mut$u20$W$u20$as$u20$core..fmt..Write$GT$9write_str17hff577ac6e379d064E.llvm.4889975796175582002+0x22>
    8020086c:	0689                	addi	a3,a3,2
    8020086e:	00659513          	slli	a0,a1,0x6
    80200872:	8d51                	or	a0,a0,a2
    80200874:	b75d                	j	8020081a <_ZN50_$LT$$RF$mut$u20$W$u20$as$u20$core..fmt..Write$GT$9write_str17hff577ac6e379d064E.llvm.4889975796175582002+0x22>
    80200876:	068d                	addi	a3,a3,3
    80200878:	00c59513          	slli	a0,a1,0xc
    8020087c:	8d51                	or	a0,a0,a2
    8020087e:	bf71                	j	8020081a <_ZN50_$LT$$RF$mut$u20$W$u20$as$u20$core..fmt..Write$GT$9write_str17hff577ac6e379d064E.llvm.4889975796175582002+0x22>
    80200880:	4501                	li	a0,0
    80200882:	60a2                	ld	ra,8(sp)
    80200884:	6402                	ld	s0,0(sp)
    80200886:	0141                	addi	sp,sp,16
    80200888:	8082                	ret

000000008020088a <_ZN4sel47console5print17hac8e0d72989ef035E>:
    8020088a:	715d                	addi	sp,sp,-80
    8020088c:	e486                	sd	ra,72(sp)
    8020088e:	e0a2                	sd	s0,64(sp)
    80200890:	0880                	addi	s0,sp,80
    80200892:	750c                	ld	a1,40(a0)
    80200894:	7110                	ld	a2,32(a0)
    80200896:	fe840693          	addi	a3,s0,-24
    8020089a:	fad43823          	sd	a3,-80(s0)
    8020089e:	feb43023          	sd	a1,-32(s0)
    802008a2:	fcc43c23          	sd	a2,-40(s0)
    802008a6:	6d0c                	ld	a1,24(a0)
    802008a8:	6910                	ld	a2,16(a0)
    802008aa:	6514                	ld	a3,8(a0)
    802008ac:	6108                	ld	a0,0(a0)
    802008ae:	fcb43823          	sd	a1,-48(s0)
    802008b2:	fcc43423          	sd	a2,-56(s0)
    802008b6:	fcd43023          	sd	a3,-64(s0)
    802008ba:	faa43c23          	sd	a0,-72(s0)

00000000802008be <.LBB4_3>:
    802008be:	00005597          	auipc	a1,0x5
    802008c2:	98a58593          	addi	a1,a1,-1654 # 80205248 <anon.f016384ff5f45e36efedd53711d4611b.0.llvm.4889975796175582002>
    802008c6:	fb040513          	addi	a0,s0,-80
    802008ca:	fb840613          	addi	a2,s0,-72
    802008ce:	00002097          	auipc	ra,0x2
    802008d2:	cc8080e7          	jalr	-824(ra) # 80202596 <_ZN4core3fmt5write17h42fcd7b837de3f75E>
    802008d6:	e509                	bnez	a0,802008e0 <.LBB4_4>
    802008d8:	60a6                	ld	ra,72(sp)
    802008da:	6406                	ld	s0,64(sp)
    802008dc:	6161                	addi	sp,sp,80
    802008de:	8082                	ret

00000000802008e0 <.LBB4_4>:
    802008e0:	00005517          	auipc	a0,0x5
    802008e4:	99850513          	addi	a0,a0,-1640 # 80205278 <anon.f016384ff5f45e36efedd53711d4611b.1.llvm.4889975796175582002>

00000000802008e8 <.LBB4_5>:
    802008e8:	00005697          	auipc	a3,0x5
    802008ec:	9c068693          	addi	a3,a3,-1600 # 802052a8 <anon.f016384ff5f45e36efedd53711d4611b.2.llvm.4889975796175582002>

00000000802008f0 <.LBB4_6>:
    802008f0:	00005717          	auipc	a4,0x5
    802008f4:	9e870713          	addi	a4,a4,-1560 # 802052d8 <anon.f016384ff5f45e36efedd53711d4611b.4.llvm.4889975796175582002>
    802008f8:	02b00593          	li	a1,43
    802008fc:	fe840613          	addi	a2,s0,-24
    80200900:	00001097          	auipc	ra,0x1
    80200904:	630080e7          	jalr	1584(ra) # 80201f30 <_ZN4core6result13unwrap_failed17h93c501911315d321E>
    80200908:	0000                	unimp
	...

000000008020090c <trap_entry>:
    8020090c:	140292f3          	csrrw	t0,sscratch,t0
    80200910:	0012b023          	sd	ra,0(t0) # 110000 <.Lline_table_start0+0xe49f5>
    80200914:	0032b823          	sd	gp,16(t0)
    80200918:	0042bc23          	sd	tp,24(t0)
    8020091c:	0262b423          	sd	t1,40(t0)
    80200920:	0272b823          	sd	t2,48(t0)
    80200924:	0282bc23          	sd	s0,56(t0)
    80200928:	0492b023          	sd	s1,64(t0)
    8020092c:	04a2b423          	sd	a0,72(t0)
    80200930:	04b2b823          	sd	a1,80(t0)
    80200934:	04c2bc23          	sd	a2,88(t0)
    80200938:	06d2b023          	sd	a3,96(t0)
    8020093c:	06e2b423          	sd	a4,104(t0)
    80200940:	06f2b823          	sd	a5,112(t0)
    80200944:	0702bc23          	sd	a6,120(t0)
    80200948:	0912b023          	sd	a7,128(t0)
    8020094c:	0922b423          	sd	s2,136(t0)
    80200950:	0932b823          	sd	s3,144(t0)
    80200954:	0942bc23          	sd	s4,152(t0)
    80200958:	0b52b023          	sd	s5,160(t0)
    8020095c:	0b62b423          	sd	s6,168(t0)
    80200960:	0b72b823          	sd	s7,176(t0)
    80200964:	0b82bc23          	sd	s8,184(t0)
    80200968:	0d92b023          	sd	s9,192(t0)
    8020096c:	0da2b423          	sd	s10,200(t0)
    80200970:	0db2b823          	sd	s11,208(t0)
    80200974:	0dc2bc23          	sd	t3,216(t0)
    80200978:	0fd2b023          	sd	t4,224(t0)
    8020097c:	0fe2b423          	sd	t5,232(t0)
    80200980:	0ff2b823          	sd	t6,240(t0)
    80200984:	140020f3          	csrr	ra,sscratch
    80200988:	0212b023          	sd	ra,32(t0)
    8020098c:	100020f3          	csrr	ra,sstatus
    80200990:	1012b023          	sd	ra,256(t0)
    80200994:	14202473          	csrr	s0,scause
    80200998:	0e82bc23          	sd	s0,248(t0)
    8020099c:	141020f3          	csrr	ra,sepc
    802009a0:	1012b423          	sd	ra,264(t0)

00000000802009a4 <.Lpcrel_hi0>:
    802009a4:	0082d117          	auipc	sp,0x82d
    802009a8:	65c10113          	addi	sp,sp,1628 # 80a2e000 <ekernel_stack_alloc>
    802009ac:	00000097          	auipc	ra,0x0
    802009b0:	154080e7          	jalr	340(ra) # 80200b00 <trap_handler>

00000000802009b4 <_ZN5riscv8register6scause6Scause5cause17h6eb740bd40a4ecccE>:
    802009b4:	1101                	addi	sp,sp,-32
    802009b6:	ec06                	sd	ra,24(sp)
    802009b8:	e822                	sd	s0,16(sp)
    802009ba:	e426                	sd	s1,8(sp)
    802009bc:	1000                	addi	s0,sp,32
    802009be:	6104                	ld	s1,0(a0)
    802009c0:	00001097          	auipc	ra,0x1
    802009c4:	012080e7          	jalr	18(ra) # 802019d2 <_ZN5riscv8register6scause6Scause4code17h67514d7fe44e35d2E>
    802009c8:	0004c763          	bltz	s1,802009d6 <_ZN5riscv8register6scause6Scause5cause17h6eb740bd40a4ecccE+0x22>
    802009cc:	00001097          	auipc	ra,0x1
    802009d0:	fde080e7          	jalr	-34(ra) # 802019aa <_ZN5riscv8register6scause9Exception4from17hbf61d6d58c7966ffE>
    802009d4:	a029                	j	802009de <_ZN5riscv8register6scause6Scause5cause17h6eb740bd40a4ecccE+0x2a>
    802009d6:	00001097          	auipc	ra,0x1
    802009da:	fac080e7          	jalr	-84(ra) # 80201982 <_ZN5riscv8register6scause9Interrupt4from17ha9a0ca98bcff293eE>
    802009de:	0ff57593          	andi	a1,a0,255
    802009e2:	fff4c513          	not	a0,s1
    802009e6:	917d                	srli	a0,a0,0x3f
    802009e8:	60e2                	ld	ra,24(sp)
    802009ea:	6442                	ld	s0,16(sp)
    802009ec:	64a2                	ld	s1,8(sp)
    802009ee:	6105                	addi	sp,sp,32
    802009f0:	8082                	ret

00000000802009f2 <_ZN4sel45traps4init17h3fdfe01b44744affE>:
    802009f2:	1141                	addi	sp,sp,-16
    802009f4:	e406                	sd	ra,8(sp)
    802009f6:	e022                	sd	s0,0(sp)
    802009f8:	0800                	addi	s0,sp,16

00000000802009fa <.LBB1_1>:
    802009fa:	00000517          	auipc	a0,0x0
    802009fe:	f1250513          	addi	a0,a0,-238 # 8020090c <trap_entry>
    80200a02:	10551073          	csrw	stvec,a0
    80200a06:	60a2                	ld	ra,8(sp)
    80200a08:	6402                	ld	s0,0(sp)
    80200a0a:	0141                	addi	sp,sp,16
    80200a0c:	8082                	ret

0000000080200a0e <_ZN4sel45traps22enable_timer_interrupt17h587f2d4d79e42ea3E>:
    80200a0e:	1141                	addi	sp,sp,-16
    80200a10:	e406                	sd	ra,8(sp)
    80200a12:	e022                	sd	s0,0(sp)
    80200a14:	0800                	addi	s0,sp,16
    80200a16:	02000513          	li	a0,32
    80200a1a:	10452073          	csrs	sie,a0
    80200a1e:	60a2                	ld	ra,8(sp)
    80200a20:	6402                	ld	s0,0(sp)
    80200a22:	0141                	addi	sp,sp,16
    80200a24:	8082                	ret

0000000080200a26 <_ZN4sel45traps20restore_user_context17he67396054724b40fE>:
    80200a26:	1141                	addi	sp,sp,-16
    80200a28:	e406                	sd	ra,8(sp)
    80200a2a:	e022                	sd	s0,0(sp)
    80200a2c:	0800                	addi	s0,sp,16

0000000080200a2e <.LBB3_3>:
    80200a2e:	00004517          	auipc	a0,0x4
    80200a32:	95250513          	addi	a0,a0,-1710 # 80204380 <_ZN4sel46kernel6thread11ksCurThread17h5a674989a535a6f6E>
    80200a36:	6108                	ld	a0,0(a0)
    80200a38:	45bd                	li	a1,15
    80200a3a:	0aa5e963          	bltu	a1,a0,80200aec <.LBB3_5>
    80200a3e:	050e                	slli	a0,a0,0x3

0000000080200a40 <.LBB3_4>:
    80200a40:	0002c597          	auipc	a1,0x2c
    80200a44:	5c058593          	addi	a1,a1,1472 # 8022d000 <_ZN4sel49elfloader6THREAD17hd5d68928ba5b93e0E>
    80200a48:	952e                	add	a0,a0,a1
    80200a4a:	6108                	ld	a0,0(a0)
    80200a4c:	82aa                	mv	t0,a0
    80200a4e:	0002b083          	ld	ra,0(t0)
    80200a52:	0082b103          	ld	sp,8(t0)
    80200a56:	0102b183          	ld	gp,16(t0)
    80200a5a:	0302b383          	ld	t2,48(t0)
    80200a5e:	0382b403          	ld	s0,56(t0)
    80200a62:	0402b483          	ld	s1,64(t0)
    80200a66:	0482b503          	ld	a0,72(t0)
    80200a6a:	0502b583          	ld	a1,80(t0)
    80200a6e:	0582b603          	ld	a2,88(t0)
    80200a72:	0602b683          	ld	a3,96(t0)
    80200a76:	0682b703          	ld	a4,104(t0)
    80200a7a:	0702b783          	ld	a5,112(t0)
    80200a7e:	0782b803          	ld	a6,120(t0)
    80200a82:	0802b883          	ld	a7,128(t0)
    80200a86:	0882b903          	ld	s2,136(t0)
    80200a8a:	0902b983          	ld	s3,144(t0)
    80200a8e:	0982ba03          	ld	s4,152(t0)
    80200a92:	0a02ba83          	ld	s5,160(t0)
    80200a96:	0a82bb03          	ld	s6,168(t0)
    80200a9a:	0b02bb83          	ld	s7,176(t0)
    80200a9e:	0b82bc03          	ld	s8,184(t0)
    80200aa2:	0c02bc83          	ld	s9,192(t0)
    80200aa6:	0c82bd03          	ld	s10,200(t0)
    80200aaa:	0d02bd83          	ld	s11,208(t0)
    80200aae:	0d82be03          	ld	t3,216(t0)
    80200ab2:	0e02be83          	ld	t4,224(t0)
    80200ab6:	0e82bf03          	ld	t5,232(t0)
    80200aba:	0f02bf83          	ld	t6,240(t0)
    80200abe:	0182b303          	ld	t1,24(t0)
    80200ac2:	821a                	mv	tp,t1
    80200ac4:	1102b303          	ld	t1,272(t0)
    80200ac8:	14131073          	csrw	sepc,t1
    80200acc:	14029073          	csrw	sscratch,t0
    80200ad0:	1002b303          	ld	t1,256(t0)
    80200ad4:	10031073          	csrw	sstatus,t1
    80200ad8:	0282b303          	ld	t1,40(t0)
    80200adc:	0202b283          	ld	t0,32(t0)
    80200ae0:	10200073          	sret
    80200ae4:	60a2                	ld	ra,8(sp)
    80200ae6:	6402                	ld	s0,0(sp)
    80200ae8:	0141                	addi	sp,sp,16
    80200aea:	8082                	ret

0000000080200aec <.LBB3_5>:
    80200aec:	00005617          	auipc	a2,0x5
    80200af0:	87c60613          	addi	a2,a2,-1924 # 80205368 <.Lanon.349ad79921b4865228cfc4d2ddbdb451.1>
    80200af4:	45c1                	li	a1,16
    80200af6:	00001097          	auipc	ra,0x1
    80200afa:	3fa080e7          	jalr	1018(ra) # 80201ef0 <_ZN4core9panicking18panic_bounds_check17h03ed6527cd415bf9E>
	...

0000000080200b00 <trap_handler>:
    80200b00:	7175                	addi	sp,sp,-144
    80200b02:	e506                	sd	ra,136(sp)
    80200b04:	e122                	sd	s0,128(sp)
    80200b06:	fca6                	sd	s1,120(sp)
    80200b08:	f8ca                	sd	s2,112(sp)
    80200b0a:	0900                	addi	s0,sp,144
    80200b0c:	142024f3          	csrr	s1,scause
    80200b10:	f6943c23          	sd	s1,-136(s0)
    80200b14:	14302573          	csrr	a0,stval
    80200b18:	f8a43023          	sd	a0,-128(s0)
    80200b1c:	f7840513          	addi	a0,s0,-136
    80200b20:	00001097          	auipc	ra,0x1
    80200b24:	eb2080e7          	jalr	-334(ra) # 802019d2 <_ZN5riscv8register6scause6Scause4code17h67514d7fe44e35d2E>
    80200b28:	0e04c363          	bltz	s1,80200c0e <.LBB4_25+0xa6>
    80200b2c:	00001097          	auipc	ra,0x1
    80200b30:	e7e080e7          	jalr	-386(ra) # 802019aa <_ZN5riscv8register6scause9Exception4from17hbf61d6d58c7966ffE>
    80200b34:	0ff57513          	andi	a0,a0,255
    80200b38:	45ad                	li	a1,11
    80200b3a:	2aa5ea63          	bltu	a1,a0,80200dee <.LBB4_34+0x14>
    80200b3e:	6585                	lui	a1,0x1
    80200b40:	e565859b          	addiw	a1,a1,-426
    80200b44:	00a5d5b3          	srl	a1,a1,a0
    80200b48:	8985                	andi	a1,a1,1
    80200b4a:	1a058b63          	beqz	a1,80200d00 <.LBB4_27+0xb0>
    80200b4e:	fffff097          	auipc	ra,0xfffff
    80200b52:	722080e7          	jalr	1826(ra) # 80200270 <_ZN4sel49elfloader13run_next_task17h1a06d899a2d5b66eE>

0000000080200b56 <.LBB4_24>:
    80200b56:	00004517          	auipc	a0,0x4
    80200b5a:	82a50513          	addi	a0,a0,-2006 # 80204380 <_ZN4sel46kernel6thread11ksCurThread17h5a674989a535a6f6E>
    80200b5e:	6108                	ld	a0,0(a0)
    80200b60:	45c1                	li	a1,16
    80200b62:	26b57263          	bgeu	a0,a1,80200dc6 <.LBB4_33>
    80200b66:	050e                	slli	a0,a0,0x3

0000000080200b68 <.LBB4_25>:
    80200b68:	0002c597          	auipc	a1,0x2c
    80200b6c:	49858593          	addi	a1,a1,1176 # 8022d000 <_ZN4sel49elfloader6THREAD17hd5d68928ba5b93e0E>
    80200b70:	952e                	add	a0,a0,a1
    80200b72:	6108                	ld	a0,0(a0)
    80200b74:	82aa                	mv	t0,a0
    80200b76:	0002b083          	ld	ra,0(t0)
    80200b7a:	0082b103          	ld	sp,8(t0)
    80200b7e:	0102b183          	ld	gp,16(t0)
    80200b82:	0302b383          	ld	t2,48(t0)
    80200b86:	0382b403          	ld	s0,56(t0)
    80200b8a:	0402b483          	ld	s1,64(t0)
    80200b8e:	0482b503          	ld	a0,72(t0)
    80200b92:	0502b583          	ld	a1,80(t0)
    80200b96:	0582b603          	ld	a2,88(t0)
    80200b9a:	0602b683          	ld	a3,96(t0)
    80200b9e:	0682b703          	ld	a4,104(t0)
    80200ba2:	0702b783          	ld	a5,112(t0)
    80200ba6:	0782b803          	ld	a6,120(t0)
    80200baa:	0802b883          	ld	a7,128(t0)
    80200bae:	0882b903          	ld	s2,136(t0)
    80200bb2:	0902b983          	ld	s3,144(t0)
    80200bb6:	0982ba03          	ld	s4,152(t0)
    80200bba:	0a02ba83          	ld	s5,160(t0)
    80200bbe:	0a82bb03          	ld	s6,168(t0)
    80200bc2:	0b02bb83          	ld	s7,176(t0)
    80200bc6:	0b82bc03          	ld	s8,184(t0)
    80200bca:	0c02bc83          	ld	s9,192(t0)
    80200bce:	0c82bd03          	ld	s10,200(t0)
    80200bd2:	0d02bd83          	ld	s11,208(t0)
    80200bd6:	0d82be03          	ld	t3,216(t0)
    80200bda:	0e02be83          	ld	t4,224(t0)
    80200bde:	0e82bf03          	ld	t5,232(t0)
    80200be2:	0f02bf83          	ld	t6,240(t0)
    80200be6:	0182b303          	ld	t1,24(t0)
    80200bea:	821a                	mv	tp,t1
    80200bec:	1102b303          	ld	t1,272(t0)
    80200bf0:	14131073          	csrw	sepc,t1
    80200bf4:	14029073          	csrw	sscratch,t0
    80200bf8:	1002b303          	ld	t1,256(t0)
    80200bfc:	10031073          	csrw	sstatus,t1
    80200c00:	0282b303          	ld	t1,40(t0)
    80200c04:	0202b283          	ld	t0,32(t0)
    80200c08:	10200073          	sret
    80200c0c:	a0e5                	j	80200cf4 <.LBB4_27+0xa4>
    80200c0e:	00001097          	auipc	ra,0x1
    80200c12:	d74080e7          	jalr	-652(ra) # 80201982 <_ZN5riscv8register6scause9Interrupt4from17ha9a0ca98bcff293eE>
    80200c16:	0ff57513          	andi	a0,a0,255
    80200c1a:	4595                	li	a1,5
    80200c1c:	1cb51963          	bne	a0,a1,80200dee <.LBB4_34+0x14>
    80200c20:	c0102573          	rdtime	a0
    80200c24:	65fd                	lui	a1,0x1f
    80200c26:	8485859b          	addiw	a1,a1,-1976
    80200c2a:	952e                	add	a0,a0,a1
    80200c2c:	4581                	li	a1,0
    80200c2e:	4601                	li	a2,0
    80200c30:	4881                	li	a7,0
    80200c32:	00000073          	ecall
    80200c36:	fffff097          	auipc	ra,0xfffff
    80200c3a:	63a080e7          	jalr	1594(ra) # 80200270 <_ZN4sel49elfloader13run_next_task17h1a06d899a2d5b66eE>

0000000080200c3e <.LBB4_26>:
    80200c3e:	00003517          	auipc	a0,0x3
    80200c42:	74250513          	addi	a0,a0,1858 # 80204380 <_ZN4sel46kernel6thread11ksCurThread17h5a674989a535a6f6E>
    80200c46:	6108                	ld	a0,0(a0)
    80200c48:	45c1                	li	a1,16
    80200c4a:	16b57e63          	bgeu	a0,a1,80200dc6 <.LBB4_33>
    80200c4e:	050e                	slli	a0,a0,0x3

0000000080200c50 <.LBB4_27>:
    80200c50:	0002c597          	auipc	a1,0x2c
    80200c54:	3b058593          	addi	a1,a1,944 # 8022d000 <_ZN4sel49elfloader6THREAD17hd5d68928ba5b93e0E>
    80200c58:	952e                	add	a0,a0,a1
    80200c5a:	6108                	ld	a0,0(a0)
    80200c5c:	82aa                	mv	t0,a0
    80200c5e:	0002b083          	ld	ra,0(t0)
    80200c62:	0082b103          	ld	sp,8(t0)
    80200c66:	0102b183          	ld	gp,16(t0)
    80200c6a:	0302b383          	ld	t2,48(t0)
    80200c6e:	0382b403          	ld	s0,56(t0)
    80200c72:	0402b483          	ld	s1,64(t0)
    80200c76:	0482b503          	ld	a0,72(t0)
    80200c7a:	0502b583          	ld	a1,80(t0)
    80200c7e:	0582b603          	ld	a2,88(t0)
    80200c82:	0602b683          	ld	a3,96(t0)
    80200c86:	0682b703          	ld	a4,104(t0)
    80200c8a:	0702b783          	ld	a5,112(t0)
    80200c8e:	0782b803          	ld	a6,120(t0)
    80200c92:	0802b883          	ld	a7,128(t0)
    80200c96:	0882b903          	ld	s2,136(t0)
    80200c9a:	0902b983          	ld	s3,144(t0)
    80200c9e:	0982ba03          	ld	s4,152(t0)
    80200ca2:	0a02ba83          	ld	s5,160(t0)
    80200ca6:	0a82bb03          	ld	s6,168(t0)
    80200caa:	0b02bb83          	ld	s7,176(t0)
    80200cae:	0b82bc03          	ld	s8,184(t0)
    80200cb2:	0c02bc83          	ld	s9,192(t0)
    80200cb6:	0c82bd03          	ld	s10,200(t0)
    80200cba:	0d02bd83          	ld	s11,208(t0)
    80200cbe:	0d82be03          	ld	t3,216(t0)
    80200cc2:	0e02be83          	ld	t4,224(t0)
    80200cc6:	0e82bf03          	ld	t5,232(t0)
    80200cca:	0f02bf83          	ld	t6,240(t0)
    80200cce:	0182b303          	ld	t1,24(t0)
    80200cd2:	821a                	mv	tp,t1
    80200cd4:	1102b303          	ld	t1,272(t0)
    80200cd8:	14131073          	csrw	sepc,t1
    80200cdc:	14029073          	csrw	sscratch,t0
    80200ce0:	1002b303          	ld	t1,256(t0)
    80200ce4:	10031073          	csrw	sstatus,t1
    80200ce8:	0282b303          	ld	t1,40(t0)
    80200cec:	0202b283          	ld	t0,32(t0)
    80200cf0:	10200073          	sret
    80200cf4:	60aa                	ld	ra,136(sp)
    80200cf6:	640a                	ld	s0,128(sp)
    80200cf8:	74e6                	ld	s1,120(sp)
    80200cfa:	7946                	ld	s2,112(sp)
    80200cfc:	6149                	addi	sp,sp,144
    80200cfe:	8082                	ret
    80200d00:	459d                	li	a1,7
    80200d02:	0eb51663          	bne	a0,a1,80200dee <.LBB4_34+0x14>

0000000080200d06 <.LBB4_28>:
    80200d06:	00003517          	auipc	a0,0x3
    80200d0a:	67a50513          	addi	a0,a0,1658 # 80204380 <_ZN4sel46kernel6thread11ksCurThread17h5a674989a535a6f6E>
    80200d0e:	6108                	ld	a0,0(a0)
    80200d10:	45bd                	li	a1,15
    80200d12:	0ca5e463          	bltu	a1,a0,80200dda <.LBB4_34>
    80200d16:	050e                	slli	a0,a0,0x3

0000000080200d18 <.LBB4_29>:
    80200d18:	0002c597          	auipc	a1,0x2c
    80200d1c:	2e858593          	addi	a1,a1,744 # 8022d000 <_ZN4sel49elfloader6THREAD17hd5d68928ba5b93e0E>
    80200d20:	952e                	add	a0,a0,a1
    80200d22:	6104                	ld	s1,0(a0)
    80200d24:	1104b503          	ld	a0,272(s1)
    80200d28:	00450693          	addi	a3,a0,4
    80200d2c:	60d0                	ld	a2,128(s1)
    80200d2e:	64a8                	ld	a0,72(s1)
    80200d30:	68ac                	ld	a1,80(s1)
    80200d32:	0584b903          	ld	s2,88(s1)
    80200d36:	10d4b823          	sd	a3,272(s1)
    80200d3a:	07b00693          	li	a3,123
    80200d3e:	fac43423          	sd	a2,-88(s0)
    80200d42:	06c6d263          	bge	a3,a2,80200da6 <.LBB4_32+0x32>
    80200d46:	07c00593          	li	a1,124
    80200d4a:	06b60a63          	beq	a2,a1,80200dbe <.LBB4_32+0x4a>
    80200d4e:	0a900593          	li	a1,169
    80200d52:	12b61863          	bne	a2,a1,80200e82 <.LBB4_39+0x28>
    80200d56:	c01025f3          	rdtime	a1

0000000080200d5a <.LBB4_30>:
    80200d5a:	00003617          	auipc	a2,0x3
    80200d5e:	2a660613          	addi	a2,a2,678 # 80204000 <_sdata>
    80200d62:	6210                	ld	a2,0(a2)
    80200d64:	4901                	li	s2,0
    80200d66:	02c5b633          	mulhu	a2,a1,a2

0000000080200d6a <.LBB4_31>:
    80200d6a:	00003697          	auipc	a3,0x3
    80200d6e:	29e68693          	addi	a3,a3,670 # 80204008 <.LCPI4_1>
    80200d72:	6294                	ld	a3,0(a3)

0000000080200d74 <.LBB4_32>:
    80200d74:	00003717          	auipc	a4,0x3
    80200d78:	29c70713          	addi	a4,a4,668 # 80204010 <.LCPI4_2>
    80200d7c:	6318                	ld	a4,0(a4)
    80200d7e:	820d                	srli	a2,a2,0x3
    80200d80:	81a1                	srli	a1,a1,0x8
    80200d82:	02d5b5b3          	mulhu	a1,a1,a3
    80200d86:	02e636b3          	mulhu	a3,a2,a4
    80200d8a:	82c9                	srli	a3,a3,0x12
    80200d8c:	000f4737          	lui	a4,0xf4
    80200d90:	2407071b          	addiw	a4,a4,576
    80200d94:	02e686b3          	mul	a3,a3,a4
    80200d98:	819d                	srli	a1,a1,0x7
    80200d9a:	8e15                	sub	a2,a2,a3
    80200d9c:	e10c                	sd	a1,0(a0)
    80200d9e:	e510                	sd	a2,8(a0)
    80200da0:	0404b423          	sd	zero,72(s1)
    80200da4:	bf81                	j	80200cf4 <.LBB4_27+0xa4>
    80200da6:	04000693          	li	a3,64
    80200daa:	0cd61363          	bne	a2,a3,80200e70 <.LBB4_39+0x16>
    80200dae:	864a                	mv	a2,s2
    80200db0:	00000097          	auipc	ra,0x0
    80200db4:	430080e7          	jalr	1072(ra) # 802011e0 <_ZN4sel47syscall2fs9sys_write17hdd3ca81d921860cdE>
    80200db8:	0524b423          	sd	s2,72(s1)
    80200dbc:	bf25                	j	80200cf4 <.LBB4_27+0xa4>
    80200dbe:	4901                	li	s2,0
    80200dc0:	0404b423          	sd	zero,72(s1)
    80200dc4:	bf05                	j	80200cf4 <.LBB4_27+0xa4>

0000000080200dc6 <.LBB4_33>:
    80200dc6:	00004617          	auipc	a2,0x4
    80200dca:	5a260613          	addi	a2,a2,1442 # 80205368 <.Lanon.349ad79921b4865228cfc4d2ddbdb451.1>
    80200dce:	45c1                	li	a1,16
    80200dd0:	00001097          	auipc	ra,0x1
    80200dd4:	120080e7          	jalr	288(ra) # 80201ef0 <_ZN4core9panicking18panic_bounds_check17h03ed6527cd415bf9E>
	...

0000000080200dda <.LBB4_34>:
    80200dda:	00004617          	auipc	a2,0x4
    80200dde:	5a660613          	addi	a2,a2,1446 # 80205380 <.Lanon.349ad79921b4865228cfc4d2ddbdb451.2>
    80200de2:	45c1                	li	a1,16
    80200de4:	00001097          	auipc	ra,0x1
    80200de8:	10c080e7          	jalr	268(ra) # 80201ef0 <_ZN4core9panicking18panic_bounds_check17h03ed6527cd415bf9E>
    80200dec:	0000                	unimp
    80200dee:	f7840513          	addi	a0,s0,-136
    80200df2:	00000097          	auipc	ra,0x0
    80200df6:	bc2080e7          	jalr	-1086(ra) # 802009b4 <_ZN5riscv8register6scause6Scause5cause17h6eb740bd40a4ecccE>
    80200dfa:	faa40423          	sb	a0,-88(s0)
    80200dfe:	fab404a3          	sb	a1,-87(s0)
    80200e02:	fa840513          	addi	a0,s0,-88
    80200e06:	f8a43423          	sd	a0,-120(s0)

0000000080200e0a <.LBB4_35>:
    80200e0a:	00001517          	auipc	a0,0x1
    80200e0e:	bde50513          	addi	a0,a0,-1058 # 802019e8 <_ZN66_$LT$riscv..register..scause..Trap$u20$as$u20$core..fmt..Debug$GT$3fmt17hd2a7a3623887e373E>
    80200e12:	f8a43823          	sd	a0,-112(s0)
    80200e16:	f8040513          	addi	a0,s0,-128
    80200e1a:	f8a43c23          	sd	a0,-104(s0)

0000000080200e1e <.LBB4_36>:
    80200e1e:	00002517          	auipc	a0,0x2
    80200e22:	38650513          	addi	a0,a0,902 # 802031a4 <_ZN4core3fmt3num53_$LT$impl$u20$core..fmt..LowerHex$u20$for$u20$i64$GT$3fmt17hdf8f6c6faa92793eE>
    80200e26:	faa43023          	sd	a0,-96(s0)

0000000080200e2a <.LBB4_37>:
    80200e2a:	00004517          	auipc	a0,0x4
    80200e2e:	58e50513          	addi	a0,a0,1422 # 802053b8 <.Lanon.349ad79921b4865228cfc4d2ddbdb451.6>
    80200e32:	fca43023          	sd	a0,-64(s0)
    80200e36:	450d                	li	a0,3
    80200e38:	fca43423          	sd	a0,-56(s0)

0000000080200e3c <.LBB4_38>:
    80200e3c:	00004517          	auipc	a0,0x4
    80200e40:	5ac50513          	addi	a0,a0,1452 # 802053e8 <.Lanon.349ad79921b4865228cfc4d2ddbdb451.7>
    80200e44:	faa43823          	sd	a0,-80(s0)
    80200e48:	4509                	li	a0,2
    80200e4a:	faa43c23          	sd	a0,-72(s0)
    80200e4e:	f8840593          	addi	a1,s0,-120
    80200e52:	fcb43823          	sd	a1,-48(s0)
    80200e56:	fca43c23          	sd	a0,-40(s0)

0000000080200e5a <.LBB4_39>:
    80200e5a:	00004597          	auipc	a1,0x4
    80200e5e:	5fe58593          	addi	a1,a1,1534 # 80205458 <.Lanon.349ad79921b4865228cfc4d2ddbdb451.8>
    80200e62:	fb040513          	addi	a0,s0,-80
    80200e66:	00001097          	auipc	ra,0x1
    80200e6a:	fe8080e7          	jalr	-24(ra) # 80201e4e <_ZN4core9panicking9panic_fmt17h09608ae52bd0d3adE>
    80200e6e:	0000                	unimp
    80200e70:	05d00593          	li	a1,93
    80200e74:	00b61763          	bne	a2,a1,80200e82 <.LBB4_39+0x28>
    80200e78:	00000097          	auipc	ra,0x0
    80200e7c:	2b2080e7          	jalr	690(ra) # 8020112a <_ZN4sel47syscall7process8sys_exit17hfad03a5e0ed4186aE>
    80200e80:	0000                	unimp
    80200e82:	fa840513          	addi	a0,s0,-88
    80200e86:	f8a43423          	sd	a0,-120(s0)

0000000080200e8a <.LBB4_40>:
    80200e8a:	00002517          	auipc	a0,0x2
    80200e8e:	7e650513          	addi	a0,a0,2022 # 80203670 <_ZN4core3fmt3num3imp52_$LT$impl$u20$core..fmt..Display$u20$for$u20$u64$GT$3fmt17h77ff5d762b7f8e58E>
    80200e92:	f8a43823          	sd	a0,-112(s0)

0000000080200e96 <.LBB4_41>:
    80200e96:	00004517          	auipc	a0,0x4
    80200e9a:	2fa50513          	addi	a0,a0,762 # 80205190 <anon.7f3969e41db811b57f9edd8838dad321.1.llvm.16831457825886423800>
    80200e9e:	fca43023          	sd	a0,-64(s0)
    80200ea2:	4505                	li	a0,1
    80200ea4:	fca43423          	sd	a0,-56(s0)
    80200ea8:	fa043823          	sd	zero,-80(s0)
    80200eac:	f8840593          	addi	a1,s0,-120
    80200eb0:	fcb43823          	sd	a1,-48(s0)
    80200eb4:	fca43c23          	sd	a0,-40(s0)

0000000080200eb8 <.LBB4_42>:
    80200eb8:	00004597          	auipc	a1,0x4
    80200ebc:	30058593          	addi	a1,a1,768 # 802051b8 <anon.7f3969e41db811b57f9edd8838dad321.3.llvm.16831457825886423800>
    80200ec0:	fb040513          	addi	a0,s0,-80
    80200ec4:	00001097          	auipc	ra,0x1
    80200ec8:	f8a080e7          	jalr	-118(ra) # 80201e4e <_ZN4core9panicking9panic_fmt17h09608ae52bd0d3adE>
	...

0000000080200ece <rust_begin_unwind>:
    80200ece:	716d                	addi	sp,sp,-272
    80200ed0:	e606                	sd	ra,264(sp)
    80200ed2:	e222                	sd	s0,256(sp)
    80200ed4:	fda6                	sd	s1,248(sp)
    80200ed6:	0a00                	addi	s0,sp,272
    80200ed8:	84aa                	mv	s1,a0
    80200eda:	00001097          	auipc	ra,0x1
    80200ede:	f70080e7          	jalr	-144(ra) # 80201e4a <_ZN4core5panic10panic_info9PanicInfo8location17h43d8a14288f989fbE>
    80200ee2:	e515                	bnez	a0,80200f0e <.LBB0_10+0x16>
    80200ee4:	8526                	mv	a0,s1
    80200ee6:	00001097          	auipc	ra,0x1
    80200eea:	f60080e7          	jalr	-160(ra) # 80201e46 <_ZN4core5panic10panic_info9PanicInfo7message17hcb7a5a3e466be904E>
    80200eee:	ed31                	bnez	a0,80200f4a <.LBB0_12+0x16>

0000000080200ef0 <.LBB0_9>:
    80200ef0:	00004517          	auipc	a0,0x4
    80200ef4:	5b850513          	addi	a0,a0,1464 # 802054a8 <.Lanon.86a3613c128665d32fc75176e6ae67c2.8>

0000000080200ef8 <.LBB0_10>:
    80200ef8:	00004617          	auipc	a2,0x4
    80200efc:	5f060613          	addi	a2,a2,1520 # 802054e8 <.Lanon.86a3613c128665d32fc75176e6ae67c2.10>
    80200f00:	02b00593          	li	a1,43
    80200f04:	00001097          	auipc	ra,0x1
    80200f08:	f78080e7          	jalr	-136(ra) # 80201e7c <_ZN4core9panicking5panic17h968d2b6b541ffadfE>
    80200f0c:	0000                	unimp
    80200f0e:	610c                	ld	a1,0(a0)
    80200f10:	6510                	ld	a2,8(a0)
    80200f12:	f2b43023          	sd	a1,-224(s0)
    80200f16:	f2c43423          	sd	a2,-216(s0)
    80200f1a:	4908                	lw	a0,16(a0)
    80200f1c:	f2a42a23          	sw	a0,-204(s0)
    80200f20:	8526                	mv	a0,s1
    80200f22:	00001097          	auipc	ra,0x1
    80200f26:	f24080e7          	jalr	-220(ra) # 80201e46 <_ZN4core5panic10panic_info9PanicInfo7message17hcb7a5a3e466be904E>
    80200f2a:	e57d                	bnez	a0,80201018 <.LBB0_18+0x24>

0000000080200f2c <.LBB0_11>:
    80200f2c:	00004517          	auipc	a0,0x4
    80200f30:	57c50513          	addi	a0,a0,1404 # 802054a8 <.Lanon.86a3613c128665d32fc75176e6ae67c2.8>

0000000080200f34 <.LBB0_12>:
    80200f34:	00004617          	auipc	a2,0x4
    80200f38:	62460613          	addi	a2,a2,1572 # 80205558 <.Lanon.86a3613c128665d32fc75176e6ae67c2.15>
    80200f3c:	02b00593          	li	a1,43
    80200f40:	00001097          	auipc	ra,0x1
    80200f44:	f3c080e7          	jalr	-196(ra) # 80201e7c <_ZN4core9panicking5panic17h968d2b6b541ffadfE>
    80200f48:	0000                	unimp
    80200f4a:	faa43423          	sd	a0,-88(s0)
    80200f4e:	fa840513          	addi	a0,s0,-88
    80200f52:	eea43823          	sd	a0,-272(s0)

0000000080200f56 <.LBB0_13>:
    80200f56:	00000517          	auipc	a0,0x0
    80200f5a:	3c050513          	addi	a0,a0,960 # 80201316 <_ZN44_$LT$$RF$T$u20$as$u20$core..fmt..Display$GT$3fmt17hc83fb63968e07dbeE>
    80200f5e:	eea43c23          	sd	a0,-264(s0)

0000000080200f62 <.LBB0_14>:
    80200f62:	00004517          	auipc	a0,0x4
    80200f66:	52650513          	addi	a0,a0,1318 # 80205488 <.Lanon.86a3613c128665d32fc75176e6ae67c2.7>
    80200f6a:	f4a43823          	sd	a0,-176(s0)
    80200f6e:	4509                	li	a0,2
    80200f70:	f4a43c23          	sd	a0,-168(s0)
    80200f74:	f4043023          	sd	zero,-192(s0)
    80200f78:	ef040513          	addi	a0,s0,-272
    80200f7c:	f6a43023          	sd	a0,-160(s0)
    80200f80:	4505                	li	a0,1
    80200f82:	f6a43423          	sd	a0,-152(s0)
    80200f86:	457d                	li	a0,31
    80200f88:	f2a40a23          	sb	a0,-204(s0)
    80200f8c:	03100513          	li	a0,49
    80200f90:	f2a40c23          	sb	a0,-200(s0)
    80200f94:	f3440513          	addi	a0,s0,-204
    80200f98:	f6a43823          	sd	a0,-144(s0)

0000000080200f9c <.LBB0_15>:
    80200f9c:	00002517          	auipc	a0,0x2
    80200fa0:	69250513          	addi	a0,a0,1682 # 8020362e <_ZN4core3fmt3num3imp51_$LT$impl$u20$core..fmt..Display$u20$for$u20$u8$GT$3fmt17h93332490606bba67E>
    80200fa4:	f6a43c23          	sd	a0,-136(s0)
    80200fa8:	f3840593          	addi	a1,s0,-200
    80200fac:	f8b43023          	sd	a1,-128(s0)
    80200fb0:	f8a43423          	sd	a0,-120(s0)
    80200fb4:	f4040513          	addi	a0,s0,-192
    80200fb8:	f8a43823          	sd	a0,-112(s0)

0000000080200fbc <.LBB0_16>:
    80200fbc:	00001517          	auipc	a0,0x1
    80200fc0:	5a850513          	addi	a0,a0,1448 # 80202564 <_ZN59_$LT$core..fmt..Arguments$u20$as$u20$core..fmt..Display$GT$3fmt17h14b26a2a8d914ef0E>
    80200fc4:	f8a43c23          	sd	a0,-104(s0)
    80200fc8:	fe040513          	addi	a0,s0,-32
    80200fcc:	f2a43023          	sd	a0,-224(s0)
    80200fd0:	fa043823          	sd	zero,-80(s0)

0000000080200fd4 <.LBB0_17>:
    80200fd4:	00004517          	auipc	a0,0x4
    80200fd8:	33c50513          	addi	a0,a0,828 # 80205310 <anon.f016384ff5f45e36efedd53711d4611b.9.llvm.4889975796175582002>
    80200fdc:	fca43023          	sd	a0,-64(s0)
    80200fe0:	4511                	li	a0,4
    80200fe2:	fca43423          	sd	a0,-56(s0)
    80200fe6:	f7040513          	addi	a0,s0,-144
    80200fea:	fca43823          	sd	a0,-48(s0)
    80200fee:	450d                	li	a0,3
    80200ff0:	fca43c23          	sd	a0,-40(s0)

0000000080200ff4 <.LBB0_18>:
    80200ff4:	00004597          	auipc	a1,0x4
    80200ff8:	25458593          	addi	a1,a1,596 # 80205248 <anon.f016384ff5f45e36efedd53711d4611b.0.llvm.4889975796175582002>
    80200ffc:	f2040513          	addi	a0,s0,-224
    80201000:	fb040613          	addi	a2,s0,-80
    80201004:	00001097          	auipc	ra,0x1
    80201008:	592080e7          	jalr	1426(ra) # 80202596 <_ZN4core3fmt5write17h42fcd7b837de3f75E>
    8020100c:	e975                	bnez	a0,80201100 <.LBB0_27>
    8020100e:	fffff097          	auipc	ra,0xfffff
    80201012:	56a080e7          	jalr	1386(ra) # 80200578 <_ZN4sel43sbi8shutdown17h66331878ed4ddfbbE>
    80201016:	0000                	unimp
    80201018:	f2a43c23          	sd	a0,-200(s0)
    8020101c:	f2040513          	addi	a0,s0,-224
    80201020:	f4a43023          	sd	a0,-192(s0)

0000000080201024 <.LBB0_19>:
    80201024:	00000517          	auipc	a0,0x0
    80201028:	30a50513          	addi	a0,a0,778 # 8020132e <_ZN44_$LT$$RF$T$u20$as$u20$core..fmt..Display$GT$3fmt17he9e9b4aa0ef791bdE>
    8020102c:	f4a43423          	sd	a0,-184(s0)
    80201030:	f3440513          	addi	a0,s0,-204
    80201034:	f4a43823          	sd	a0,-176(s0)

0000000080201038 <.LBB0_20>:
    80201038:	00002517          	auipc	a0,0x2
    8020103c:	62850513          	addi	a0,a0,1576 # 80203660 <_ZN4core3fmt3num3imp52_$LT$impl$u20$core..fmt..Display$u20$for$u20$u32$GT$3fmt17h518678af98a1949fE>
    80201040:	f4a43c23          	sd	a0,-168(s0)
    80201044:	f3840513          	addi	a0,s0,-200
    80201048:	f6a43023          	sd	a0,-160(s0)

000000008020104c <.LBB0_21>:
    8020104c:	00000517          	auipc	a0,0x0
    80201050:	2ca50513          	addi	a0,a0,714 # 80201316 <_ZN44_$LT$$RF$T$u20$as$u20$core..fmt..Display$GT$3fmt17hc83fb63968e07dbeE>
    80201054:	f6a43423          	sd	a0,-152(s0)

0000000080201058 <.LBB0_22>:
    80201058:	00004517          	auipc	a0,0x4
    8020105c:	4c050513          	addi	a0,a0,1216 # 80205518 <.Lanon.86a3613c128665d32fc75176e6ae67c2.14>
    80201060:	f0a43023          	sd	a0,-256(s0)
    80201064:	4511                	li	a0,4
    80201066:	f0a43423          	sd	a0,-248(s0)
    8020106a:	ee043823          	sd	zero,-272(s0)
    8020106e:	f4040593          	addi	a1,s0,-192
    80201072:	f0b43823          	sd	a1,-240(s0)
    80201076:	458d                	li	a1,3
    80201078:	f0b43c23          	sd	a1,-232(s0)
    8020107c:	467d                	li	a2,31
    8020107e:	fac40323          	sb	a2,-90(s0)
    80201082:	03100613          	li	a2,49
    80201086:	fac403a3          	sb	a2,-89(s0)
    8020108a:	fa640613          	addi	a2,s0,-90
    8020108e:	f6c43823          	sd	a2,-144(s0)

0000000080201092 <.LBB0_23>:
    80201092:	00002617          	auipc	a2,0x2
    80201096:	59c60613          	addi	a2,a2,1436 # 8020362e <_ZN4core3fmt3num3imp51_$LT$impl$u20$core..fmt..Display$u20$for$u20$u8$GT$3fmt17h93332490606bba67E>
    8020109a:	f6c43c23          	sd	a2,-136(s0)
    8020109e:	fa740693          	addi	a3,s0,-89
    802010a2:	f8d43023          	sd	a3,-128(s0)
    802010a6:	f8c43423          	sd	a2,-120(s0)
    802010aa:	ef040613          	addi	a2,s0,-272
    802010ae:	f8c43823          	sd	a2,-112(s0)

00000000802010b2 <.LBB0_24>:
    802010b2:	00001617          	auipc	a2,0x1
    802010b6:	4b260613          	addi	a2,a2,1202 # 80202564 <_ZN59_$LT$core..fmt..Arguments$u20$as$u20$core..fmt..Display$GT$3fmt17h14b26a2a8d914ef0E>
    802010ba:	f8c43c23          	sd	a2,-104(s0)
    802010be:	fe040613          	addi	a2,s0,-32
    802010c2:	fac43423          	sd	a2,-88(s0)
    802010c6:	fa043823          	sd	zero,-80(s0)

00000000802010ca <.LBB0_25>:
    802010ca:	00004617          	auipc	a2,0x4
    802010ce:	24660613          	addi	a2,a2,582 # 80205310 <anon.f016384ff5f45e36efedd53711d4611b.9.llvm.4889975796175582002>
    802010d2:	fcc43023          	sd	a2,-64(s0)
    802010d6:	fca43423          	sd	a0,-56(s0)
    802010da:	f7040513          	addi	a0,s0,-144
    802010de:	fca43823          	sd	a0,-48(s0)
    802010e2:	fcb43c23          	sd	a1,-40(s0)

00000000802010e6 <.LBB0_26>:
    802010e6:	00004597          	auipc	a1,0x4
    802010ea:	16258593          	addi	a1,a1,354 # 80205248 <anon.f016384ff5f45e36efedd53711d4611b.0.llvm.4889975796175582002>
    802010ee:	fa840513          	addi	a0,s0,-88
    802010f2:	fb040613          	addi	a2,s0,-80
    802010f6:	00001097          	auipc	ra,0x1
    802010fa:	4a0080e7          	jalr	1184(ra) # 80202596 <_ZN4core3fmt5write17h42fcd7b837de3f75E>
    802010fe:	d901                	beqz	a0,8020100e <.LBB0_18+0x1a>

0000000080201100 <.LBB0_27>:
    80201100:	00004517          	auipc	a0,0x4
    80201104:	17850513          	addi	a0,a0,376 # 80205278 <anon.f016384ff5f45e36efedd53711d4611b.1.llvm.4889975796175582002>

0000000080201108 <.LBB0_28>:
    80201108:	00004697          	auipc	a3,0x4
    8020110c:	1a068693          	addi	a3,a3,416 # 802052a8 <anon.f016384ff5f45e36efedd53711d4611b.2.llvm.4889975796175582002>

0000000080201110 <.LBB0_29>:
    80201110:	00004717          	auipc	a4,0x4
    80201114:	24070713          	addi	a4,a4,576 # 80205350 <anon.f016384ff5f45e36efedd53711d4611b.10.llvm.4889975796175582002>
    80201118:	02b00593          	li	a1,43
    8020111c:	fe040613          	addi	a2,s0,-32
    80201120:	00001097          	auipc	ra,0x1
    80201124:	e10080e7          	jalr	-496(ra) # 80201f30 <_ZN4core6result13unwrap_failed17h93c501911315d321E>
	...

000000008020112a <_ZN4sel47syscall7process8sys_exit17hfad03a5e0ed4186aE>:
    8020112a:	711d                	addi	sp,sp,-96
    8020112c:	ec86                	sd	ra,88(sp)
    8020112e:	e8a2                	sd	s0,80(sp)
    80201130:	1080                	addi	s0,sp,96
    80201132:	faa42623          	sw	a0,-84(s0)

0000000080201136 <.LBB0_3>:
    80201136:	00003517          	auipc	a0,0x3
    8020113a:	25a50513          	addi	a0,a0,602 # 80204390 <_ZN3log20MAX_LOG_LEVEL_FILTER17hc6c0d544e89e4b49E>
    8020113e:	6108                	ld	a0,0(a0)
    80201140:	4589                	li	a1,2
    80201142:	04a5f963          	bgeu	a1,a0,80201194 <.LBB0_7>
    80201146:	fac40513          	addi	a0,s0,-84
    8020114a:	faa43823          	sd	a0,-80(s0)

000000008020114e <.LBB0_4>:
    8020114e:	00002517          	auipc	a0,0x2
    80201152:	4f050513          	addi	a0,a0,1264 # 8020363e <_ZN4core3fmt3num3imp52_$LT$impl$u20$core..fmt..Display$u20$for$u20$i32$GT$3fmt17hf957be9b21bfb453E>
    80201156:	faa43c23          	sd	a0,-72(s0)

000000008020115a <.LBB0_5>:
    8020115a:	00004517          	auipc	a0,0x4
    8020115e:	43e50513          	addi	a0,a0,1086 # 80205598 <anon.0f98314600a7d771ab313cf5202be391.2.llvm.7707664452954937080>
    80201162:	fca43823          	sd	a0,-48(s0)
    80201166:	4505                	li	a0,1
    80201168:	fca43c23          	sd	a0,-40(s0)
    8020116c:	fc043023          	sd	zero,-64(s0)
    80201170:	fb040593          	addi	a1,s0,-80
    80201174:	feb43023          	sd	a1,-32(s0)
    80201178:	fea43423          	sd	a0,-24(s0)

000000008020117c <.LBB0_6>:
    8020117c:	00004617          	auipc	a2,0x4
    80201180:	45c60613          	addi	a2,a2,1116 # 802055d8 <anon.0f98314600a7d771ab313cf5202be391.5.llvm.7707664452954937080>
    80201184:	fc040513          	addi	a0,s0,-64
    80201188:	458d                	li	a1,3
    8020118a:	4681                	li	a3,0
    8020118c:	00001097          	auipc	ra,0x1
    80201190:	baa080e7          	jalr	-1110(ra) # 80201d36 <_ZN3log17__private_api_log17he4dfcaf7e9ba9ed4E>

0000000080201194 <.LBB0_7>:
    80201194:	00004517          	auipc	a0,0x4
    80201198:	49450513          	addi	a0,a0,1172 # 80205628 <anon.0f98314600a7d771ab313cf5202be391.7.llvm.7707664452954937080>
    8020119c:	fca43823          	sd	a0,-48(s0)
    802011a0:	4505                	li	a0,1
    802011a2:	fca43c23          	sd	a0,-40(s0)
    802011a6:	fc043023          	sd	zero,-64(s0)

00000000802011aa <.LBB0_8>:
    802011aa:	00004517          	auipc	a0,0x4
    802011ae:	3c650513          	addi	a0,a0,966 # 80205570 <anon.0f98314600a7d771ab313cf5202be391.1.llvm.7707664452954937080>
    802011b2:	fea43023          	sd	a0,-32(s0)
    802011b6:	fe043423          	sd	zero,-24(s0)

00000000802011ba <.LBB0_9>:
    802011ba:	00004597          	auipc	a1,0x4
    802011be:	47e58593          	addi	a1,a1,1150 # 80205638 <anon.0f98314600a7d771ab313cf5202be391.8.llvm.7707664452954937080>
    802011c2:	fc040513          	addi	a0,s0,-64
    802011c6:	00001097          	auipc	ra,0x1
    802011ca:	c88080e7          	jalr	-888(ra) # 80201e4e <_ZN4core9panicking9panic_fmt17h09608ae52bd0d3adE>
	...

00000000802011d0 <_ZN4core3ptr48drop_in_place$LT$core..str..error..Utf8Error$GT$17h9e31f42c699c2e38E.llvm.11909959476408817528>:
    802011d0:	1141                	addi	sp,sp,-16
    802011d2:	e406                	sd	ra,8(sp)
    802011d4:	e022                	sd	s0,0(sp)
    802011d6:	0800                	addi	s0,sp,16
    802011d8:	60a2                	ld	ra,8(sp)
    802011da:	6402                	ld	s0,0(sp)
    802011dc:	0141                	addi	sp,sp,16
    802011de:	8082                	ret

00000000802011e0 <_ZN4sel47syscall2fs9sys_write17hdd3ca81d921860cdE>:
    802011e0:	7119                	addi	sp,sp,-128
    802011e2:	fc86                	sd	ra,120(sp)
    802011e4:	f8a2                	sd	s0,112(sp)
    802011e6:	f4a6                	sd	s1,104(sp)
    802011e8:	0100                	addi	s0,sp,128
    802011ea:	4685                	li	a3,1
    802011ec:	08d51663          	bne	a0,a3,80201278 <.LBB1_10>
    802011f0:	84b2                	mv	s1,a2
    802011f2:	fb040513          	addi	a0,s0,-80
    802011f6:	00002097          	auipc	ra,0x2
    802011fa:	bdc080e7          	jalr	-1060(ra) # 80202dd2 <_ZN4core3str8converts9from_utf817h41c2ca4493b63f8bE>
    802011fe:	fb043503          	ld	a0,-80(s0)
    80201202:	e945                	bnez	a0,802012b2 <.LBB1_12+0x16>
    80201204:	fb843503          	ld	a0,-72(s0)
    80201208:	fc043583          	ld	a1,-64(s0)
    8020120c:	f8a43423          	sd	a0,-120(s0)
    80201210:	f8b43823          	sd	a1,-112(s0)
    80201214:	f8840513          	addi	a0,s0,-120
    80201218:	f8a43c23          	sd	a0,-104(s0)

000000008020121c <.LBB1_7>:
    8020121c:	00000517          	auipc	a0,0x0
    80201220:	11250513          	addi	a0,a0,274 # 8020132e <_ZN44_$LT$$RF$T$u20$as$u20$core..fmt..Display$GT$3fmt17he9e9b4aa0ef791bdE>
    80201224:	faa43023          	sd	a0,-96(s0)
    80201228:	fe040513          	addi	a0,s0,-32
    8020122c:	faa43423          	sd	a0,-88(s0)
    80201230:	fa043823          	sd	zero,-80(s0)

0000000080201234 <.LBB1_8>:
    80201234:	00004517          	auipc	a0,0x4
    80201238:	4e450513          	addi	a0,a0,1252 # 80205718 <anon.b06e9663df27bc0d4ec753b2705c8f1e.8.llvm.11909959476408817528>
    8020123c:	fca43023          	sd	a0,-64(s0)
    80201240:	4505                	li	a0,1
    80201242:	fca43423          	sd	a0,-56(s0)
    80201246:	f9840593          	addi	a1,s0,-104
    8020124a:	fcb43823          	sd	a1,-48(s0)
    8020124e:	fca43c23          	sd	a0,-40(s0)

0000000080201252 <.LBB1_9>:
    80201252:	00004597          	auipc	a1,0x4
    80201256:	ff658593          	addi	a1,a1,-10 # 80205248 <anon.f016384ff5f45e36efedd53711d4611b.0.llvm.4889975796175582002>
    8020125a:	fa840513          	addi	a0,s0,-88
    8020125e:	fb040613          	addi	a2,s0,-80
    80201262:	00001097          	auipc	ra,0x1
    80201266:	334080e7          	jalr	820(ra) # 80202596 <_ZN4core3fmt5write17h42fcd7b837de3f75E>
    8020126a:	e149                	bnez	a0,802012ec <.LBB1_16>
    8020126c:	8526                	mv	a0,s1
    8020126e:	70e6                	ld	ra,120(sp)
    80201270:	7446                	ld	s0,112(sp)
    80201272:	74a6                	ld	s1,104(sp)
    80201274:	6109                	addi	sp,sp,128
    80201276:	8082                	ret

0000000080201278 <.LBB1_10>:
    80201278:	00004517          	auipc	a0,0x4
    8020127c:	3f850513          	addi	a0,a0,1016 # 80205670 <anon.b06e9663df27bc0d4ec753b2705c8f1e.2.llvm.11909959476408817528>
    80201280:	fca43023          	sd	a0,-64(s0)
    80201284:	fcd43423          	sd	a3,-56(s0)
    80201288:	fa043823          	sd	zero,-80(s0)

000000008020128c <.LBB1_11>:
    8020128c:	00004517          	auipc	a0,0x4
    80201290:	3c450513          	addi	a0,a0,964 # 80205650 <anon.b06e9663df27bc0d4ec753b2705c8f1e.1.llvm.11909959476408817528>
    80201294:	fca43823          	sd	a0,-48(s0)
    80201298:	fc043c23          	sd	zero,-40(s0)

000000008020129c <.LBB1_12>:
    8020129c:	00004597          	auipc	a1,0x4
    802012a0:	3fc58593          	addi	a1,a1,1020 # 80205698 <anon.b06e9663df27bc0d4ec753b2705c8f1e.4.llvm.11909959476408817528>
    802012a4:	fb040513          	addi	a0,s0,-80
    802012a8:	00001097          	auipc	ra,0x1
    802012ac:	ba6080e7          	jalr	-1114(ra) # 80201e4e <_ZN4core9panicking9panic_fmt17h09608ae52bd0d3adE>
    802012b0:	0000                	unimp
    802012b2:	fc043503          	ld	a0,-64(s0)
    802012b6:	fb843583          	ld	a1,-72(s0)
    802012ba:	faa43023          	sd	a0,-96(s0)
    802012be:	f8b43c23          	sd	a1,-104(s0)

00000000802012c2 <.LBB1_13>:
    802012c2:	00004517          	auipc	a0,0x4
    802012c6:	3ee50513          	addi	a0,a0,1006 # 802056b0 <anon.b06e9663df27bc0d4ec753b2705c8f1e.5.llvm.11909959476408817528>

00000000802012ca <.LBB1_14>:
    802012ca:	00004697          	auipc	a3,0x4
    802012ce:	41668693          	addi	a3,a3,1046 # 802056e0 <anon.b06e9663df27bc0d4ec753b2705c8f1e.6.llvm.11909959476408817528>

00000000802012d2 <.LBB1_15>:
    802012d2:	00004717          	auipc	a4,0x4
    802012d6:	42e70713          	addi	a4,a4,1070 # 80205700 <anon.b06e9663df27bc0d4ec753b2705c8f1e.7.llvm.11909959476408817528>
    802012da:	02b00593          	li	a1,43
    802012de:	f9840613          	addi	a2,s0,-104
    802012e2:	00001097          	auipc	ra,0x1
    802012e6:	c4e080e7          	jalr	-946(ra) # 80201f30 <_ZN4core6result13unwrap_failed17h93c501911315d321E>
	...

00000000802012ec <.LBB1_16>:
    802012ec:	00004517          	auipc	a0,0x4
    802012f0:	f8c50513          	addi	a0,a0,-116 # 80205278 <anon.f016384ff5f45e36efedd53711d4611b.1.llvm.4889975796175582002>

00000000802012f4 <.LBB1_17>:
    802012f4:	00004697          	auipc	a3,0x4
    802012f8:	fb468693          	addi	a3,a3,-76 # 802052a8 <anon.f016384ff5f45e36efedd53711d4611b.2.llvm.4889975796175582002>

00000000802012fc <.LBB1_18>:
    802012fc:	00004717          	auipc	a4,0x4
    80201300:	fdc70713          	addi	a4,a4,-36 # 802052d8 <anon.f016384ff5f45e36efedd53711d4611b.4.llvm.4889975796175582002>
    80201304:	02b00593          	li	a1,43
    80201308:	fe040613          	addi	a2,s0,-32
    8020130c:	00001097          	auipc	ra,0x1
    80201310:	c24080e7          	jalr	-988(ra) # 80201f30 <_ZN4core6result13unwrap_failed17h93c501911315d321E>
	...

0000000080201316 <_ZN44_$LT$$RF$T$u20$as$u20$core..fmt..Display$GT$3fmt17hc83fb63968e07dbeE>:
    80201316:	1141                	addi	sp,sp,-16
    80201318:	e406                	sd	ra,8(sp)
    8020131a:	e022                	sd	s0,0(sp)
    8020131c:	0800                	addi	s0,sp,16
    8020131e:	6108                	ld	a0,0(a0)
    80201320:	60a2                	ld	ra,8(sp)
    80201322:	6402                	ld	s0,0(sp)
    80201324:	0141                	addi	sp,sp,16
    80201326:	00001317          	auipc	t1,0x1
    8020132a:	23e30067          	jr	574(t1) # 80202564 <_ZN59_$LT$core..fmt..Arguments$u20$as$u20$core..fmt..Display$GT$3fmt17h14b26a2a8d914ef0E>

000000008020132e <_ZN44_$LT$$RF$T$u20$as$u20$core..fmt..Display$GT$3fmt17he9e9b4aa0ef791bdE>:
    8020132e:	1141                	addi	sp,sp,-16
    80201330:	e406                	sd	ra,8(sp)
    80201332:	e022                	sd	s0,0(sp)
    80201334:	0800                	addi	s0,sp,16
    80201336:	6110                	ld	a2,0(a0)
    80201338:	6514                	ld	a3,8(a0)
    8020133a:	872e                	mv	a4,a1
    8020133c:	8532                	mv	a0,a2
    8020133e:	85b6                	mv	a1,a3
    80201340:	863a                	mv	a2,a4
    80201342:	60a2                	ld	ra,8(sp)
    80201344:	6402                	ld	s0,0(sp)
    80201346:	0141                	addi	sp,sp,16
    80201348:	00002317          	auipc	t1,0x2
    8020134c:	94a30067          	jr	-1718(t1) # 80202c92 <_ZN42_$LT$str$u20$as$u20$core..fmt..Display$GT$3fmt17h8884fddb1f24a834E>

0000000080201350 <__rust_alloc>:
    80201350:	fffff317          	auipc	t1,0xfffff
    80201354:	16c30067          	jr	364(t1) # 802004bc <__rg_alloc>

0000000080201358 <__rust_dealloc>:
    80201358:	fffff317          	auipc	t1,0xfffff
    8020135c:	18a30067          	jr	394(t1) # 802004e2 <__rg_dealloc>

0000000080201360 <__rust_alloc_error_handler>:
    80201360:	fffff317          	auipc	t1,0xfffff
    80201364:	20630067          	jr	518(t1) # 80200566 <__rg_oom>

0000000080201368 <_ZN22buddy_system_allocator4Heap4init17h096a9c186af21a8bE>:
    80201368:	1141                	addi	sp,sp,-16
    8020136a:	e406                	sd	ra,8(sp)
    8020136c:	e022                	sd	s0,0(sp)
    8020136e:	0800                	addi	s0,sp,16
    80201370:	962e                	add	a2,a2,a1
    80201372:	059d                	addi	a1,a1,7
    80201374:	99e1                	andi	a1,a1,-8
    80201376:	ff867e93          	andi	t4,a2,-8
    8020137a:	12beeb63          	bltu	t4,a1,802014b0 <.LBB5_20>
    8020137e:	4701                	li	a4,0
    80201380:	00858613          	addi	a2,a1,8
    80201384:	10cee163          	bltu	t4,a2,80201486 <.LBB5_18+0xda>

0000000080201388 <.LBB5_15>:
    80201388:	00003617          	auipc	a2,0x3
    8020138c:	cb060613          	addi	a2,a2,-848 # 80204038 <.LCPI5_0>
    80201390:	00063803          	ld	a6,0(a2)

0000000080201394 <.LBB5_16>:
    80201394:	00003617          	auipc	a2,0x3
    80201398:	cac60613          	addi	a2,a2,-852 # 80204040 <.LCPI5_1>
    8020139c:	00063f03          	ld	t5,0(a2)

00000000802013a0 <.LBB5_17>:
    802013a0:	00003617          	auipc	a2,0x3
    802013a4:	ca860613          	addi	a2,a2,-856 # 80204048 <.LCPI5_2>
    802013a8:	00063883          	ld	a7,0(a2)

00000000802013ac <.LBB5_18>:
    802013ac:	00003617          	auipc	a2,0x3
    802013b0:	ca460613          	addi	a2,a2,-860 # 80204050 <.LCPI5_3>
    802013b4:	00063283          	ld	t0,0(a2)
    802013b8:	03f00313          	li	t1,63
    802013bc:	4385                	li	t2,1
    802013be:	4e7d                	li	t3,31
    802013c0:	40be8633          	sub	a2,t4,a1
    802013c4:	ca31                	beqz	a2,80201418 <.LBB5_18+0x6c>
    802013c6:	00165693          	srli	a3,a2,0x1
    802013ca:	8e55                	or	a2,a2,a3
    802013cc:	00265693          	srli	a3,a2,0x2
    802013d0:	8e55                	or	a2,a2,a3
    802013d2:	00465693          	srli	a3,a2,0x4
    802013d6:	8e55                	or	a2,a2,a3
    802013d8:	00865693          	srli	a3,a2,0x8
    802013dc:	8e55                	or	a2,a2,a3
    802013de:	01065693          	srli	a3,a2,0x10
    802013e2:	8e55                	or	a2,a2,a3
    802013e4:	02065693          	srli	a3,a2,0x20
    802013e8:	8e55                	or	a2,a2,a3
    802013ea:	fff64613          	not	a2,a2
    802013ee:	00165693          	srli	a3,a2,0x1
    802013f2:	0106f6b3          	and	a3,a3,a6
    802013f6:	8e15                	sub	a2,a2,a3
    802013f8:	01e676b3          	and	a3,a2,t5
    802013fc:	8209                	srli	a2,a2,0x2
    802013fe:	01e67633          	and	a2,a2,t5
    80201402:	9636                	add	a2,a2,a3
    80201404:	00465693          	srli	a3,a2,0x4
    80201408:	9636                	add	a2,a2,a3
    8020140a:	01167633          	and	a2,a2,a7
    8020140e:	02560633          	mul	a2,a2,t0
    80201412:	03865693          	srli	a3,a2,0x38
    80201416:	a019                	j	8020141c <.LBB5_18+0x70>
    80201418:	04000693          	li	a3,64
    8020141c:	40b00633          	neg	a2,a1
    80201420:	8e6d                	and	a2,a2,a1
    80201422:	40d306b3          	sub	a3,t1,a3
    80201426:	00d396b3          	sll	a3,t2,a3
    8020142a:	00d66363          	bltu	a2,a3,80201430 <.LBB5_18+0x84>
    8020142e:	8636                	mv	a2,a3
    80201430:	ce05                	beqz	a2,80201468 <.LBB5_18+0xbc>
    80201432:	fff60693          	addi	a3,a2,-1
    80201436:	fff64793          	not	a5,a2
    8020143a:	8efd                	and	a3,a3,a5
    8020143c:	0016d793          	srli	a5,a3,0x1
    80201440:	0107f7b3          	and	a5,a5,a6
    80201444:	8e9d                	sub	a3,a3,a5
    80201446:	01e6f7b3          	and	a5,a3,t5
    8020144a:	8289                	srli	a3,a3,0x2
    8020144c:	01e6f6b3          	and	a3,a3,t5
    80201450:	96be                	add	a3,a3,a5
    80201452:	0046d793          	srli	a5,a3,0x4
    80201456:	96be                	add	a3,a3,a5
    80201458:	0116f6b3          	and	a3,a3,a7
    8020145c:	025686b3          	mul	a3,a3,t0
    80201460:	92e1                	srli	a3,a3,0x38
    80201462:	00de7763          	bgeu	t3,a3,80201470 <.LBB5_18+0xc4>
    80201466:	a80d                	j	80201498 <.LBB5_19>
    80201468:	04000693          	li	a3,64
    8020146c:	02de6663          	bltu	t3,a3,80201498 <.LBB5_19>
    80201470:	068e                	slli	a3,a3,0x3
    80201472:	96aa                	add	a3,a3,a0
    80201474:	629c                	ld	a5,0(a3)
    80201476:	e19c                	sd	a5,0(a1)
    80201478:	e28c                	sd	a1,0(a3)
    8020147a:	95b2                	add	a1,a1,a2
    8020147c:	00858693          	addi	a3,a1,8
    80201480:	9732                	add	a4,a4,a2
    80201482:	f2deffe3          	bgeu	t4,a3,802013c0 <.LBB5_18+0x14>
    80201486:	11053583          	ld	a1,272(a0)
    8020148a:	95ba                	add	a1,a1,a4
    8020148c:	10b53823          	sd	a1,272(a0)
    80201490:	60a2                	ld	ra,8(sp)
    80201492:	6402                	ld	s0,0(sp)
    80201494:	0141                	addi	sp,sp,16
    80201496:	8082                	ret

0000000080201498 <.LBB5_19>:
    80201498:	00004617          	auipc	a2,0x4
    8020149c:	33060613          	addi	a2,a2,816 # 802057c8 <.Lanon.5ff63f546c367859a8a259c546cee8d5.3>
    802014a0:	02000593          	li	a1,32
    802014a4:	8536                	mv	a0,a3
    802014a6:	00001097          	auipc	ra,0x1
    802014aa:	a4a080e7          	jalr	-1462(ra) # 80201ef0 <_ZN4core9panicking18panic_bounds_check17h03ed6527cd415bf9E>
	...

00000000802014b0 <.LBB5_20>:
    802014b0:	00004517          	auipc	a0,0x4
    802014b4:	27850513          	addi	a0,a0,632 # 80205728 <.Lanon.5ff63f546c367859a8a259c546cee8d5.0>

00000000802014b8 <.LBB5_21>:
    802014b8:	00004617          	auipc	a2,0x4
    802014bc:	2f860613          	addi	a2,a2,760 # 802057b0 <.Lanon.5ff63f546c367859a8a259c546cee8d5.2>
    802014c0:	45f9                	li	a1,30
    802014c2:	00001097          	auipc	ra,0x1
    802014c6:	9ba080e7          	jalr	-1606(ra) # 80201e7c <_ZN4core9panicking5panic17h968d2b6b541ffadfE>
	...

00000000802014cc <_ZN22buddy_system_allocator4Heap5alloc17hf05baaf2c83be7a0E>:
    802014cc:	1141                	addi	sp,sp,-16
    802014ce:	e406                	sd	ra,8(sp)
    802014d0:	e022                	sd	s0,0(sp)
    802014d2:	0800                	addi	s0,sp,16
    802014d4:	4705                	li	a4,1
    802014d6:	4789                	li	a5,2

00000000802014d8 <.LBB6_28>:
    802014d8:	00003317          	auipc	t1,0x3
    802014dc:	b8030313          	addi	t1,t1,-1152 # 80204058 <.LCPI6_0>

00000000802014e0 <.LBB6_29>:
    802014e0:	00003297          	auipc	t0,0x3
    802014e4:	b8028293          	addi	t0,t0,-1152 # 80204060 <.LCPI6_1>

00000000802014e8 <.LBB6_30>:
    802014e8:	00003897          	auipc	a7,0x3
    802014ec:	b8088893          	addi	a7,a7,-1152 # 80204068 <.LCPI6_2>

00000000802014f0 <.LBB6_31>:
    802014f0:	00003817          	auipc	a6,0x3
    802014f4:	b8080813          	addi	a6,a6,-1152 # 80204070 <.LCPI6_3>
    802014f8:	0ef5fc63          	bgeu	a1,a5,802015f0 <.LBB6_31+0x100>
    802014fc:	16c77163          	bgeu	a4,a2,8020165e <.LBB6_31+0x16e>
    80201500:	46a1                	li	a3,8
    80201502:	16c6f263          	bgeu	a3,a2,80201666 <.LBB6_31+0x176>
    80201506:	16060363          	beqz	a2,8020166c <.LBB6_31+0x17c>
    8020150a:	fff60693          	addi	a3,a2,-1
    8020150e:	fff64713          	not	a4,a2
    80201512:	00033303          	ld	t1,0(t1)
    80201516:	8ef9                	and	a3,a3,a4
    80201518:	0002b703          	ld	a4,0(t0)
    8020151c:	0016d793          	srli	a5,a3,0x1
    80201520:	0067f7b3          	and	a5,a5,t1
    80201524:	8e9d                	sub	a3,a3,a5
    80201526:	00e6f7b3          	and	a5,a3,a4
    8020152a:	8289                	srli	a3,a3,0x2
    8020152c:	8ef9                	and	a3,a3,a4
    8020152e:	96be                	add	a3,a3,a5
    80201530:	0008b883          	ld	a7,0(a7)
    80201534:	00083783          	ld	a5,0(a6)
    80201538:	0046d713          	srli	a4,a3,0x4
    8020153c:	96ba                	add	a3,a3,a4
    8020153e:	0116f6b3          	and	a3,a3,a7
    80201542:	02f686b3          	mul	a3,a3,a5
    80201546:	0386d893          	srli	a7,a3,0x38
    8020154a:	02000693          	li	a3,32
    8020154e:	82c6                	mv	t0,a7
    80201550:	0116e463          	bltu	a3,a7,80201558 <.LBB6_31+0x68>
    80201554:	02000293          	li	t0,32
    80201558:	00389693          	slli	a3,a7,0x3
    8020155c:	00a68833          	add	a6,a3,a0
    80201560:	ff080793          	addi	a5,a6,-16
    80201564:	86c6                	mv	a3,a7
    80201566:	06d28f63          	beq	t0,a3,802015e4 <.LBB6_31+0xf4>
    8020156a:	0107bf03          	ld	t5,16(a5)
    8020156e:	0685                	addi	a3,a3,1
    80201570:	07a1                	addi	a5,a5,8
    80201572:	fe0f0ae3          	beqz	t5,80201566 <.LBB6_31+0x76>
    80201576:	fff68713          	addi	a4,a3,-1
    8020157a:	02e8ff63          	bgeu	a7,a4,802015b8 <.LBB6_31+0xc8>
    8020157e:	00188293          	addi	t0,a7,1
    80201582:	02000313          	li	t1,32
    80201586:	43fd                	li	t2,31
    80201588:	4e05                	li	t3,1
    8020158a:	fff68e93          	addi	t4,a3,-1
    8020158e:	0e6ef763          	bgeu	t4,t1,8020167c <.LBB6_31+0x18c>
    80201592:	000f3703          	ld	a4,0(t5)
    80201596:	16f9                	addi	a3,a3,-2
    80201598:	e798                	sd	a4,8(a5)
    8020159a:	0ed3e863          	bltu	t2,a3,8020168a <.LBB6_33>
    8020159e:	6398                	ld	a4,0(a5)
    802015a0:	00de16b3          	sll	a3,t3,a3
    802015a4:	96fa                	add	a3,a3,t5
    802015a6:	e298                	sd	a4,0(a3)
    802015a8:	00df3023          	sd	a3,0(t5)
    802015ac:	01e7b023          	sd	t5,0(a5)
    802015b0:	17e1                	addi	a5,a5,-8
    802015b2:	86f6                	mv	a3,t4
    802015b4:	fdd2ebe3          	bltu	t0,t4,8020158a <.LBB6_31+0x9a>
    802015b8:	02000693          	li	a3,32
    802015bc:	0ed8f363          	bgeu	a7,a3,802016a2 <.LBB6_34>
    802015c0:	00083683          	ld	a3,0(a6)
    802015c4:	cafd                	beqz	a3,802016ba <.LBB6_35>
    802015c6:	6298                	ld	a4,0(a3)
    802015c8:	00e83023          	sd	a4,0(a6)
    802015cc:	10053703          	ld	a4,256(a0)
    802015d0:	10853783          	ld	a5,264(a0)
    802015d4:	95ba                	add	a1,a1,a4
    802015d6:	10b53023          	sd	a1,256(a0)
    802015da:	00c785b3          	add	a1,a5,a2
    802015de:	10b53423          	sd	a1,264(a0)
    802015e2:	a011                	j	802015e6 <.LBB6_31+0xf6>
    802015e4:	4681                	li	a3,0
    802015e6:	8536                	mv	a0,a3
    802015e8:	60a2                	ld	ra,8(sp)
    802015ea:	6402                	ld	s0,0(sp)
    802015ec:	0141                	addi	sp,sp,16
    802015ee:	8082                	ret
    802015f0:	fff58713          	addi	a4,a1,-1
    802015f4:	00175793          	srli	a5,a4,0x1
    802015f8:	8f5d                	or	a4,a4,a5
    802015fa:	00275793          	srli	a5,a4,0x2
    802015fe:	8f5d                	or	a4,a4,a5
    80201600:	00475793          	srli	a5,a4,0x4
    80201604:	8f5d                	or	a4,a4,a5
    80201606:	00875793          	srli	a5,a4,0x8
    8020160a:	8f5d                	or	a4,a4,a5
    8020160c:	01075793          	srli	a5,a4,0x10
    80201610:	8f5d                	or	a4,a4,a5
    80201612:	02075793          	srli	a5,a4,0x20
    80201616:	8f5d                	or	a4,a4,a5
    80201618:	00033383          	ld	t2,0(t1)
    8020161c:	fff74713          	not	a4,a4
    80201620:	0002b683          	ld	a3,0(t0)
    80201624:	00175793          	srli	a5,a4,0x1
    80201628:	0077f7b3          	and	a5,a5,t2
    8020162c:	8f1d                	sub	a4,a4,a5
    8020162e:	00d777b3          	and	a5,a4,a3
    80201632:	8309                	srli	a4,a4,0x2
    80201634:	8ef9                	and	a3,a3,a4
    80201636:	96be                	add	a3,a3,a5
    80201638:	0008b383          	ld	t2,0(a7)
    8020163c:	00083783          	ld	a5,0(a6)
    80201640:	0046d713          	srli	a4,a3,0x4
    80201644:	96ba                	add	a3,a3,a4
    80201646:	0076f6b3          	and	a3,a3,t2
    8020164a:	02f686b3          	mul	a3,a3,a5
    8020164e:	92e1                	srli	a3,a3,0x38
    80201650:	577d                	li	a4,-1
    80201652:	00d756b3          	srl	a3,a4,a3
    80201656:	00168713          	addi	a4,a3,1
    8020165a:	eac763e3          	bltu	a4,a2,80201500 <.LBB6_31+0x10>
    8020165e:	863a                	mv	a2,a4
    80201660:	46a1                	li	a3,8
    80201662:	eac6e2e3          	bltu	a3,a2,80201506 <.LBB6_31+0x16>
    80201666:	4621                	li	a2,8
    80201668:	ea0611e3          	bnez	a2,8020150a <.LBB6_31+0x1a>
    8020166c:	04000893          	li	a7,64
    80201670:	02000693          	li	a3,32
    80201674:	82c6                	mv	t0,a7
    80201676:	ed16ffe3          	bgeu	a3,a7,80201554 <.LBB6_31+0x64>
    8020167a:	bdf9                	j	80201558 <.LBB6_31+0x68>
    8020167c:	fff68513          	addi	a0,a3,-1

0000000080201680 <.LBB6_32>:
    80201680:	00004617          	auipc	a2,0x4
    80201684:	16060613          	addi	a2,a2,352 # 802057e0 <.Lanon.5ff63f546c367859a8a259c546cee8d5.4>
    80201688:	a031                	j	80201694 <.LBB6_33+0xa>

000000008020168a <.LBB6_33>:
    8020168a:	00004617          	auipc	a2,0x4
    8020168e:	16e60613          	addi	a2,a2,366 # 802057f8 <.Lanon.5ff63f546c367859a8a259c546cee8d5.5>
    80201692:	557d                	li	a0,-1
    80201694:	02000593          	li	a1,32
    80201698:	00001097          	auipc	ra,0x1
    8020169c:	858080e7          	jalr	-1960(ra) # 80201ef0 <_ZN4core9panicking18panic_bounds_check17h03ed6527cd415bf9E>
	...

00000000802016a2 <.LBB6_34>:
    802016a2:	00004617          	auipc	a2,0x4
    802016a6:	16e60613          	addi	a2,a2,366 # 80205810 <.Lanon.5ff63f546c367859a8a259c546cee8d5.6>
    802016aa:	02000593          	li	a1,32
    802016ae:	8546                	mv	a0,a7
    802016b0:	00001097          	auipc	ra,0x1
    802016b4:	840080e7          	jalr	-1984(ra) # 80201ef0 <_ZN4core9panicking18panic_bounds_check17h03ed6527cd415bf9E>
	...

00000000802016ba <.LBB6_35>:
    802016ba:	00004517          	auipc	a0,0x4
    802016be:	16e50513          	addi	a0,a0,366 # 80205828 <.Lanon.5ff63f546c367859a8a259c546cee8d5.7>

00000000802016c2 <.LBB6_36>:
    802016c2:	00004617          	auipc	a2,0x4
    802016c6:	14e60613          	addi	a2,a2,334 # 80205810 <.Lanon.5ff63f546c367859a8a259c546cee8d5.6>
    802016ca:	02800593          	li	a1,40
    802016ce:	00000097          	auipc	ra,0x0
    802016d2:	76a080e7          	jalr	1898(ra) # 80201e38 <_ZN4core6option13expect_failed17h7e81b10b1a12193cE>
	...

00000000802016d8 <_ZN22buddy_system_allocator4Heap7dealloc17h5c5bb6edc7877f64E>:
    802016d8:	1141                	addi	sp,sp,-16
    802016da:	e406                	sd	ra,8(sp)
    802016dc:	e022                	sd	s0,0(sp)
    802016de:	0800                	addi	s0,sp,16
    802016e0:	4705                	li	a4,1
    802016e2:	4789                	li	a5,2

00000000802016e4 <.LBB7_22>:
    802016e4:	00003317          	auipc	t1,0x3
    802016e8:	99430313          	addi	t1,t1,-1644 # 80204078 <.LCPI7_0>

00000000802016ec <.LBB7_23>:
    802016ec:	00003297          	auipc	t0,0x3
    802016f0:	99428293          	addi	t0,t0,-1644 # 80204080 <.LCPI7_1>

00000000802016f4 <.LBB7_24>:
    802016f4:	00003897          	auipc	a7,0x3
    802016f8:	99488893          	addi	a7,a7,-1644 # 80204088 <.LCPI7_2>

00000000802016fc <.LBB7_25>:
    802016fc:	00003817          	auipc	a6,0x3
    80201700:	99480813          	addi	a6,a6,-1644 # 80204090 <.LCPI7_3>
    80201704:	0cf67d63          	bgeu	a2,a5,802017de <.LBB7_25+0xe2>
    80201708:	14d77263          	bgeu	a4,a3,8020184c <.LBB7_25+0x150>
    8020170c:	4721                	li	a4,8
    8020170e:	14d77363          	bgeu	a4,a3,80201854 <.LBB7_25+0x158>
    80201712:	14068463          	beqz	a3,8020185a <.LBB7_25+0x15e>
    80201716:	fff68393          	addi	t2,a3,-1
    8020171a:	fff6c793          	not	a5,a3
    8020171e:	00033303          	ld	t1,0(t1)
    80201722:	0077f3b3          	and	t2,a5,t2
    80201726:	0002b703          	ld	a4,0(t0)
    8020172a:	0013d793          	srli	a5,t2,0x1
    8020172e:	0067f7b3          	and	a5,a5,t1
    80201732:	40f387b3          	sub	a5,t2,a5
    80201736:	00e7f2b3          	and	t0,a5,a4
    8020173a:	8389                	srli	a5,a5,0x2
    8020173c:	8f7d                	and	a4,a4,a5
    8020173e:	9716                	add	a4,a4,t0
    80201740:	0008b883          	ld	a7,0(a7)
    80201744:	00083803          	ld	a6,0(a6)
    80201748:	00475793          	srli	a5,a4,0x4
    8020174c:	973e                	add	a4,a4,a5
    8020174e:	01177733          	and	a4,a4,a7
    80201752:	03070733          	mul	a4,a4,a6
    80201756:	03875313          	srli	t1,a4,0x38
    8020175a:	487d                	li	a6,31
    8020175c:	10686463          	bltu	a6,t1,80201864 <.LBB7_26>
    80201760:	00331713          	slli	a4,t1,0x3
    80201764:	972a                	add	a4,a4,a0
    80201766:	631c                	ld	a5,0(a4)
    80201768:	e19c                	sd	a5,0(a1)
    8020176a:	e30c                	sd	a1,0(a4)
    8020176c:	4885                	li	a7,1
    8020176e:	82ae                	mv	t0,a1
    80201770:	00689733          	sll	a4,a7,t1
    80201774:	00331793          	slli	a5,t1,0x3
    80201778:	00f503b3          	add	t2,a0,a5
    8020177c:	00574e33          	xor	t3,a4,t0
    80201780:	871e                	mv	a4,t2
    80201782:	cd9d                	beqz	a1,802017c0 <.LBB7_25+0xc4>
    80201784:	87ae                	mv	a5,a1
    80201786:	8eba                	mv	t4,a4
    80201788:	618c                	ld	a1,0(a1)
    8020178a:	873e                	mv	a4,a5
    8020178c:	fefe1be3          	bne	t3,a5,80201782 <.LBB7_25+0x86>
    80201790:	00beb023          	sd	a1,0(t4)
    80201794:	0003b583          	ld	a1,0(t2)
    80201798:	c581                	beqz	a1,802017a0 <.LBB7_25+0xa4>
    8020179a:	618c                	ld	a1,0(a1)
    8020179c:	00b3b023          	sd	a1,0(t2)
    802017a0:	0d030e63          	beq	t1,a6,8020187c <.LBB7_27>
    802017a4:	01c2e363          	bltu	t0,t3,802017aa <.LBB7_25+0xae>
    802017a8:	82f2                	mv	t0,t3
    802017aa:	0305                	addi	t1,t1,1
    802017ac:	00331593          	slli	a1,t1,0x3
    802017b0:	95aa                	add	a1,a1,a0
    802017b2:	6198                	ld	a4,0(a1)
    802017b4:	00e2b023          	sd	a4,0(t0)
    802017b8:	0055b023          	sd	t0,0(a1)
    802017bc:	8596                	mv	a1,t0
    802017be:	bf4d                	j	80201770 <.LBB7_25+0x74>
    802017c0:	10053583          	ld	a1,256(a0)
    802017c4:	10853703          	ld	a4,264(a0)
    802017c8:	8d91                	sub	a1,a1,a2
    802017ca:	10b53023          	sd	a1,256(a0)
    802017ce:	40d705b3          	sub	a1,a4,a3
    802017d2:	10b53423          	sd	a1,264(a0)
    802017d6:	60a2                	ld	ra,8(sp)
    802017d8:	6402                	ld	s0,0(sp)
    802017da:	0141                	addi	sp,sp,16
    802017dc:	8082                	ret
    802017de:	fff60713          	addi	a4,a2,-1
    802017e2:	00175793          	srli	a5,a4,0x1
    802017e6:	8f5d                	or	a4,a4,a5
    802017e8:	00275793          	srli	a5,a4,0x2
    802017ec:	8f5d                	or	a4,a4,a5
    802017ee:	00475793          	srli	a5,a4,0x4
    802017f2:	8f5d                	or	a4,a4,a5
    802017f4:	00875793          	srli	a5,a4,0x8
    802017f8:	8f5d                	or	a4,a4,a5
    802017fa:	01075793          	srli	a5,a4,0x10
    802017fe:	8f5d                	or	a4,a4,a5
    80201800:	02075793          	srli	a5,a4,0x20
    80201804:	8f5d                	or	a4,a4,a5
    80201806:	00033383          	ld	t2,0(t1)
    8020180a:	fff74e13          	not	t3,a4
    8020180e:	0002b783          	ld	a5,0(t0)
    80201812:	001e5713          	srli	a4,t3,0x1
    80201816:	00777733          	and	a4,a4,t2
    8020181a:	40ee0733          	sub	a4,t3,a4
    8020181e:	00f773b3          	and	t2,a4,a5
    80201822:	8309                	srli	a4,a4,0x2
    80201824:	8f7d                	and	a4,a4,a5
    80201826:	971e                	add	a4,a4,t2
    80201828:	0008b383          	ld	t2,0(a7)
    8020182c:	00083e03          	ld	t3,0(a6)
    80201830:	00475793          	srli	a5,a4,0x4
    80201834:	973e                	add	a4,a4,a5
    80201836:	00777733          	and	a4,a4,t2
    8020183a:	03c70733          	mul	a4,a4,t3
    8020183e:	9361                	srli	a4,a4,0x38
    80201840:	57fd                	li	a5,-1
    80201842:	00e7d733          	srl	a4,a5,a4
    80201846:	0705                	addi	a4,a4,1
    80201848:	ecd762e3          	bltu	a4,a3,8020170c <.LBB7_25+0x10>
    8020184c:	86ba                	mv	a3,a4
    8020184e:	4721                	li	a4,8
    80201850:	ecd761e3          	bltu	a4,a3,80201712 <.LBB7_25+0x16>
    80201854:	46a1                	li	a3,8
    80201856:	ec0690e3          	bnez	a3,80201716 <.LBB7_25+0x1a>
    8020185a:	04000313          	li	t1,64
    8020185e:	487d                	li	a6,31
    80201860:	f06870e3          	bgeu	a6,t1,8020176