
target/riscv64gc-unknown-none-elf/release/sel4:	file format elf64-littleriscv

Disassembly of section .text:

0000000080200000 <stext>:
80200000: 17 81 08 00  	auipc	sp, 136
80200004: 13 01 01 00  	mv	sp, sp
80200008: 97 10 00 00  	auipc	ra, 1
8020000c: e7 80 c0 74  	jalr	1868(ra)
		...

0000000080201000 <strampoline>:
80201000: 31 71        	addi	sp, sp, -192
80201002: 06 fd        	sd	ra, 184(sp)
80201004: 22 f9        	sd	s0, 176(sp)
80201006: 26 f5        	sd	s1, 168(sp)
80201008: 80 01        	addi	s0, sp, 192

000000008020100a <.LBB0_1>:
8020100a: 17 75 08 00  	auipc	a0, 135
8020100e: 13 05 65 ff  	addi	a0, a0, -10
80201012: 97 10 00 00  	auipc	ra, 1
80201016: e7 80 60 04  	jalr	70(ra)
8020101a: 97 00 00 00  	auipc	ra, 0
8020101e: e7 80 c0 6a  	jalr	1708(ra)
80201022: aa 84        	mv	s1, a0
80201024: 09 45        	li	a0, 2
80201026: 23 88 a4 06  	sb	a0, 112(s1)
8020102a: 88 61        	ld	a0, 0(a1)
8020102c: 05 05        	addi	a0, a0, 1
8020102e: 88 e1        	sd	a0, 0(a1)
80201030: 13 05 84 f4  	addi	a0, s0, -184
80201034: 13 06 00 07  	li	a2, 112
80201038: 81 45        	li	a1, 0
8020103a: 97 30 00 00  	auipc	ra, 3
8020103e: e7 80 20 4d  	jalr	1234(ra)
80201042: 13 05 84 f4  	addi	a0, s0, -184
80201046: a6 85        	mv	a1, s1
80201048: 97 00 00 00  	auipc	ra, 0
8020104c: e7 80 40 60  	jalr	1540(ra)

0000000080201050 <.LBB0_2>:
80201050: 17 45 00 00  	auipc	a0, 4
80201054: 13 05 05 fd  	addi	a0, a0, -48
80201058: 23 34 a4 fc  	sd	a0, -56(s0)
8020105c: 05 45        	li	a0, 1
8020105e: 23 38 a4 fc  	sd	a0, -48(s0)
80201062: 23 3c 04 fa  	sd	zero, -72(s0)

0000000080201066 <.LBB0_3>:
80201066: 17 45 00 00  	auipc	a0, 4
8020106a: 13 05 a5 f9  	addi	a0, a0, -102
8020106e: 23 3c a4 fc  	sd	a0, -40(s0)
80201072: 23 30 04 fe  	sd	zero, -32(s0)

0000000080201076 <.LBB0_4>:
80201076: 97 45 00 00  	auipc	a1, 4
8020107a: 93 85 a5 fe  	addi	a1, a1, -22
8020107e: 13 05 84 fb  	addi	a0, s0, -72
80201082: 97 20 00 00  	auipc	ra, 2
80201086: e7 80 40 be  	jalr	-1052(ra)
8020108a: 00 00        	unimp	

000000008020108c <_ZN4sel45tasks13run_next_task17h1b1964c9a804d163E.llvm.13123764365632939100>:
8020108c: 39 71        	addi	sp, sp, -64
8020108e: 06 fc        	sd	ra, 56(sp)
80201090: 22 f8        	sd	s0, 48(sp)
80201092: 80 00        	addi	s0, sp, 64

0000000080201094 <.LBB1_16>:
80201094: 17 75 08 00  	auipc	a0, 135
80201098: 13 05 c5 f6  	addi	a0, a0, -148
8020109c: 97 10 00 00  	auipc	ra, 1
802010a0: e7 80 c0 fb  	jalr	-68(ra)
802010a4: 0c 61        	ld	a1, 0(a0)
802010a6: 63 9d 05 10  	bnez	a1, 0x802011c0 <.LBB1_24>
802010aa: 03 38 85 78  	ld	a6, 1928(a0)
802010ae: 03 3e 05 79  	ld	t3, 1936(a0)
802010b2: fd 56        	li	a3, -1
802010b4: 13 06 18 00  	addi	a2, a6, 1
802010b8: b3 05 ce 00  	add	a1, t3, a2
802010bc: 14 e1        	sd	a3, 0(a0)
802010be: 2e 87        	mv	a4, a1
802010c0: 63 63 b6 00  	bltu	a2, a1, 0x802010c6 <.LBB1_16+0x32>
802010c4: 32 87        	mv	a4, a2
802010c6: 63 01 0e 08  	beqz	t3, 0x80201148 <.LBB1_17+0x16>
802010ca: 93 03 85 00  	addi	t2, a0, 8
802010ce: c1 48        	li	a7, 16
802010d0: 93 02 80 07  	li	t0, 120
802010d4: 05 43        	li	t1, 1
802010d6: 63 05 c7 0a  	beq	a4, a2, 0x80201180 <.LBB1_20+0x16>
802010da: b3 76 c6 03  	remu	a3, a2, t3
802010de: 63 fa 16 05  	bgeu	a3, a7, 0x80201132 <.LBB1_17>
802010e2: b3 85 56 02  	mul	a1, a3, t0
802010e6: 9e 95        	add	a1, a1, t2
802010e8: 83 c7 05 07  	lbu	a5, 112(a1)
802010ec: 05 06        	addi	a2, a2, 1
802010ee: e3 94 67 fe  	bne	a5, t1, 0x802010d6 <.LBB1_16+0x42>
802010f2: 93 85 05 07  	addi	a1, a1, 112
802010f6: 7d 56        	li	a2, -1
802010f8: 10 e1        	sd	a2, 0(a0)
802010fa: 09 46        	li	a2, 2
802010fc: 23 80 c5 00  	sb	a2, 0(a1)
80201100: c1 45        	li	a1, 16
80201102: 23 34 d5 78  	sd	a3, 1928(a0)
80201106: 63 72 b8 06  	bgeu	a6, a1, 0x8020116a <.LBB1_20>
8020110a: 93 05 80 07  	li	a1, 120
8020110e: 33 06 b8 02  	mul	a2, a6, a1
80201112: 18 61        	ld	a4, 0(a0)
80201114: b3 85 b6 02  	mul	a1, a3, a1
80201118: 1e 96        	add	a2, a2, t2
8020111a: 9e 95        	add	a1, a1, t2
8020111c: 93 06 17 00  	addi	a3, a4, 1
80201120: 14 e1        	sd	a3, 0(a0)
80201122: 32 85        	mv	a0, a2
80201124: e2 70        	ld	ra, 56(sp)
80201126: 42 74        	ld	s0, 48(sp)
80201128: 21 61        	addi	sp, sp, 64
8020112a: 17 03 00 00  	auipc	t1, 0
8020112e: 67 00 23 52  	jr	1314(t1)

0000000080201132 <.LBB1_17>:
80201132: 17 46 00 00  	auipc	a2, 4
80201136: 13 06 e6 33  	addi	a2, a2, 830
8020113a: c1 45        	li	a1, 16
8020113c: 36 85        	mv	a0, a3
8020113e: 97 20 00 00  	auipc	ra, 2
80201142: e7 80 20 b8  	jalr	-1150(ra)
80201146: 00 00        	unimp	
80201148: 63 7c b6 02  	bgeu	a2, a1, 0x80201180 <.LBB1_20+0x16>

000000008020114c <.LBB1_18>:
8020114c: 17 45 00 00  	auipc	a0, 4
80201150: 13 05 45 2e  	addi	a0, a0, 740

0000000080201154 <.LBB1_19>:
80201154: 17 46 00 00  	auipc	a2, 4
80201158: 13 06 46 2c  	addi	a2, a2, 708
8020115c: 93 05 90 03  	li	a1, 57
80201160: 97 20 00 00  	auipc	ra, 2
80201164: e7 80 40 b3  	jalr	-1228(ra)
80201168: 00 00        	unimp	

000000008020116a <.LBB1_20>:
8020116a: 17 46 00 00  	auipc	a2, 4
8020116e: 13 06 66 f5  	addi	a2, a2, -170
80201172: c1 45        	li	a1, 16
80201174: 42 85        	mv	a0, a6
80201176: 97 20 00 00  	auipc	ra, 2
8020117a: e7 80 a0 b4  	jalr	-1206(ra)
8020117e: 00 00        	unimp	
80201180: 23 30 05 00  	sd	zero, 0(a0)

0000000080201184 <.LBB1_21>:
80201184: 17 45 00 00  	auipc	a0, 4
80201188: 13 05 45 f1  	addi	a0, a0, -236
8020118c: 23 38 a4 fc  	sd	a0, -48(s0)
80201190: 05 45        	li	a0, 1
80201192: 23 3c a4 fc  	sd	a0, -40(s0)
80201196: 23 30 04 fc  	sd	zero, -64(s0)

000000008020119a <.LBB1_22>:
8020119a: 17 45 00 00  	auipc	a0, 4
8020119e: 13 05 65 e6  	addi	a0, a0, -410
802011a2: 23 30 a4 fe  	sd	a0, -32(s0)
802011a6: 23 34 04 fe  	sd	zero, -24(s0)

00000000802011aa <.LBB1_23>:
802011aa: 97 45 00 00  	auipc	a1, 4
802011ae: 93 85 e5 ef  	addi	a1, a1, -258
802011b2: 13 05 04 fc  	addi	a0, s0, -64
802011b6: 97 20 00 00  	auipc	ra, 2
802011ba: e7 80 00 ab  	jalr	-1360(ra)
802011be: 00 00        	unimp	

00000000802011c0 <.LBB1_24>:
802011c0: 17 45 00 00  	auipc	a0, 4
802011c4: 13 05 05 e7  	addi	a0, a0, -400

00000000802011c8 <.LBB1_25>:
802011c8: 97 46 00 00  	auipc	a3, 4
802011cc: 93 86 06 1e  	addi	a3, a3, 480

00000000802011d0 <.LBB1_26>:
802011d0: 17 47 00 00  	auipc	a4, 4
802011d4: 13 07 87 20  	addi	a4, a4, 520
802011d8: c1 45        	li	a1, 16
802011da: 13 06 04 fc  	addi	a2, s0, -64
802011de: 97 20 00 00  	auipc	ra, 2
802011e2: e7 80 20 b2  	jalr	-1246(ra)
802011e6: 00 00        	unimp	

00000000802011e8 <_ZN4sel45tasks25exit_current_and_run_next17h7182b0dcba0aa63aE>:
802011e8: 01 11        	addi	sp, sp, -32
802011ea: 06 ec        	sd	ra, 24(sp)
802011ec: 22 e8        	sd	s0, 16(sp)
802011ee: 00 10        	addi	s0, sp, 32

00000000802011f0 <.LBB3_5>:
802011f0: 17 75 08 00  	auipc	a0, 135
802011f4: 13 05 05 e1  	addi	a0, a0, -496
802011f8: 97 10 00 00  	auipc	ra, 1
802011fc: e7 80 00 e6  	jalr	-416(ra)
80201200: 0c 61        	ld	a1, 0(a0)
80201202: a9 e5        	bnez	a1, 0x8020124c <.LBB3_7>
80201204: 83 36 85 78  	ld	a3, 1928(a0)
80201208: fd 55        	li	a1, -1
8020120a: 41 46        	li	a2, 16
8020120c: 0c e1        	sd	a1, 0(a0)
8020120e: 63 f4 c6 02  	bgeu	a3, a2, 0x80201236 <.LBB3_6>
80201212: 93 05 80 07  	li	a1, 120
80201216: b3 85 b6 02  	mul	a1, a3, a1
8020121a: aa 95        	add	a1, a1, a0
8020121c: 0d 46        	li	a2, 3
8020121e: 23 8c c5 06  	sb	a2, 120(a1)
80201222: 0c 61        	ld	a1, 0(a0)
80201224: 85 05        	addi	a1, a1, 1
80201226: 0c e1        	sd	a1, 0(a0)
80201228: e2 60        	ld	ra, 24(sp)
8020122a: 42 64        	ld	s0, 16(sp)
8020122c: 05 61        	addi	sp, sp, 32
8020122e: 17 03 00 00  	auipc	t1, 0
80201232: 67 00 e3 e5  	jr	-418(t1)

0000000080201236 <.LBB3_6>:
80201236: 17 46 00 00  	auipc	a2, 4
8020123a: 13 06 a6 eb  	addi	a2, a2, -326
8020123e: c1 45        	li	a1, 16
80201240: 36 85        	mv	a0, a3
80201242: 97 20 00 00  	auipc	ra, 2
80201246: e7 80 e0 a7  	jalr	-1410(ra)
8020124a: 00 00        	unimp	

000000008020124c <.LBB3_7>:
8020124c: 17 45 00 00  	auipc	a0, 4
80201250: 13 05 45 de  	addi	a0, a0, -540

0000000080201254 <.LBB3_8>:
80201254: 97 46 00 00  	auipc	a3, 4
80201258: 93 86 46 15  	addi	a3, a3, 340

000000008020125c <.LBB3_9>:
8020125c: 17 47 00 00  	auipc	a4, 4
80201260: 13 07 c7 17  	addi	a4, a4, 380
80201264: c1 45        	li	a1, 16
80201266: 13 06 84 fe  	addi	a2, s0, -24
8020126a: 97 20 00 00  	auipc	ra, 2
8020126e: e7 80 60 a9  	jalr	-1386(ra)
80201272: 00 00        	unimp	

0000000080201274 <__alltraps>:
80201274: 73 11 01 14  	csrrw	sp, sscratch, sp
80201278: 6d 71        	addi	sp, sp, -272
8020127a: 06 e4        	sd	ra, 8(sp)
8020127c: 0e ec        	sd	gp, 24(sp)
8020127e: 16 f4        	sd	t0, 40(sp)
80201280: 1a f8        	sd	t1, 48(sp)
80201282: 1e fc        	sd	t2, 56(sp)
80201284: a2 e0        	sd	s0, 64(sp)
80201286: a6 e4        	sd	s1, 72(sp)
80201288: aa e8        	sd	a0, 80(sp)
8020128a: ae ec        	sd	a1, 88(sp)
8020128c: b2 f0        	sd	a2, 96(sp)
8020128e: b6 f4        	sd	a3, 104(sp)
80201290: ba f8        	sd	a4, 112(sp)
80201292: be fc        	sd	a5, 120(sp)
80201294: 42 e1        	sd	a6, 128(sp)
80201296: 46 e5        	sd	a7, 136(sp)
80201298: 4a e9        	sd	s2, 144(sp)
8020129a: 4e ed        	sd	s3, 152(sp)
8020129c: 52 f1        	sd	s4, 160(sp)
8020129e: 56 f5        	sd	s5, 168(sp)
802012a0: 5a f9        	sd	s6, 176(sp)
802012a2: 5e fd        	sd	s7, 184(sp)
802012a4: e2 e1        	sd	s8, 192(sp)
802012a6: e6 e5        	sd	s9, 200(sp)
802012a8: ea e9        	sd	s10, 208(sp)
802012aa: ee ed        	sd	s11, 216(sp)
802012ac: f2 f1        	sd	t3, 224(sp)
802012ae: f6 f5        	sd	t4, 232(sp)
802012b0: fa f9        	sd	t5, 240(sp)
802012b2: fe fd        	sd	t6, 248(sp)
802012b4: f3 22 00 10  	csrr	t0, sstatus
802012b8: 73 23 10 14  	csrr	t1, sepc
802012bc: 16 e2        	sd	t0, 256(sp)
802012be: 1a e6        	sd	t1, 264(sp)
802012c0: f3 23 00 14  	csrr	t2, sscratch
802012c4: 1e e8        	sd	t2, 16(sp)
802012c6: 0a 85        	mv	a0, sp
802012c8: 97 00 00 00  	auipc	ra, 0
802012cc: e7 80 00 0d  	jalr	208(ra)

00000000802012d0 <__restore>:
802012d0: 92 62        	ld	t0, 256(sp)
802012d2: 32 63        	ld	t1, 264(sp)
802012d4: c2 63        	ld	t2, 16(sp)
802012d6: 73 90 02 10  	csrw	sstatus, t0
802012da: 73 10 13 14  	csrw	sepc, t1
802012de: 73 90 03 14  	csrw	sscratch, t2
802012e2: a2 60        	ld	ra, 8(sp)
802012e4: e2 61        	ld	gp, 24(sp)
802012e6: a2 72        	ld	t0, 40(sp)
802012e8: 42 73        	ld	t1, 48(sp)
802012ea: e2 73        	ld	t2, 56(sp)
802012ec: 06 64        	ld	s0, 64(sp)
802012ee: a6 64        	ld	s1, 72(sp)
802012f0: 46 65        	ld	a0, 80(sp)
802012f2: e6 65        	ld	a1, 88(sp)
802012f4: 06 76        	ld	a2, 96(sp)
802012f6: a6 76        	ld	a3, 104(sp)
802012f8: 46 77        	ld	a4, 112(sp)
802012fa: e6 77        	ld	a5, 120(sp)
802012fc: 0a 68        	ld	a6, 128(sp)
802012fe: aa 68        	ld	a7, 136(sp)
80201300: 4a 69        	ld	s2, 144(sp)
80201302: ea 69        	ld	s3, 152(sp)
80201304: 0a 7a        	ld	s4, 160(sp)
80201306: aa 7a        	ld	s5, 168(sp)
80201308: 4a 7b        	ld	s6, 176(sp)
8020130a: ea 7b        	ld	s7, 184(sp)
8020130c: 0e 6c        	ld	s8, 192(sp)
8020130e: ae 6c        	ld	s9, 200(sp)
80201310: 4e 6d        	ld	s10, 208(sp)
80201312: ee 6d        	ld	s11, 216(sp)
80201314: 0e 7e        	ld	t3, 224(sp)
80201316: ae 7e        	ld	t4, 232(sp)
80201318: 4e 7f        	ld	t5, 240(sp)
8020131a: ee 7f        	ld	t6, 248(sp)
8020131c: 51 61        	addi	sp, sp, 272
8020131e: 73 11 01 14  	csrrw	sp, sscratch, sp
80201322: 73 00 20 10  	sret	

0000000080201326 <_ZN5riscv8register6scause6Scause5cause17h6eb740bd40a4ecccE>:
80201326: 01 11        	addi	sp, sp, -32
80201328: 06 ec        	sd	ra, 24(sp)
8020132a: 22 e8        	sd	s0, 16(sp)
8020132c: 26 e4        	sd	s1, 8(sp)
8020132e: 00 10        	addi	s0, sp, 32
80201330: 04 61        	ld	s1, 0(a0)
80201332: 97 10 00 00  	auipc	ra, 1
80201336: e7 80 c0 33  	jalr	828(ra)
8020133a: 63 c7 04 00  	bltz	s1, 0x80201348 <_ZN5riscv8register6scause6Scause5cause17h6eb740bd40a4ecccE+0x22>
8020133e: 97 10 00 00  	auipc	ra, 1
80201342: e7 80 80 30  	jalr	776(ra)
80201346: 29 a0        	j	0x80201350 <_ZN5riscv8register6scause6Scause5cause17h6eb740bd40a4ecccE+0x2a>
80201348: 97 10 00 00  	auipc	ra, 1
8020134c: e7 80 60 2d  	jalr	726(ra)
80201350: 93 75 f5 0f  	andi	a1, a0, 255
80201354: 13 c5 f4 ff  	not	a0, s1
80201358: 7d 91        	srli	a0, a0, 63
8020135a: e2 60        	ld	ra, 24(sp)
8020135c: 42 64        	ld	s0, 16(sp)
8020135e: a2 64        	ld	s1, 8(sp)
80201360: 05 61        	addi	sp, sp, 32
80201362: 82 80        	ret

0000000080201364 <_ZN4sel44trap4init17hc786936662feda75E>:
80201364: 41 11        	addi	sp, sp, -16
80201366: 06 e4        	sd	ra, 8(sp)
80201368: 22 e0        	sd	s0, 0(sp)
8020136a: 00 08        	addi	s0, sp, 16

000000008020136c <.LBB1_1>:
8020136c: 17 05 00 00  	auipc	a0, 0
80201370: 13 05 85 f0  	addi	a0, a0, -248
80201374: 73 10 55 10  	csrw	stvec, a0
80201378: a2 60        	ld	ra, 8(sp)
8020137a: 02 64        	ld	s0, 0(sp)
8020137c: 41 01        	addi	sp, sp, 16
8020137e: 82 80        	ret

0000000080201380 <_ZN4sel44trap22enable_timer_interrupt17hf1078d39c670b34aE>:
80201380: 41 11        	addi	sp, sp, -16
80201382: 06 e4        	sd	ra, 8(sp)
80201384: 22 e0        	sd	s0, 0(sp)
80201386: 00 08        	addi	s0, sp, 16
80201388: 13 05 00 02  	li	a0, 32
8020138c: 73 20 45 10  	csrs	sie, a0
80201390: a2 60        	ld	ra, 8(sp)
80201392: 02 64        	ld	s0, 0(sp)
80201394: 41 01        	addi	sp, sp, 16
80201396: 82 80        	ret

0000000080201398 <trap_handler>:
80201398: 75 71        	addi	sp, sp, -144
8020139a: 06 e5        	sd	ra, 136(sp)
8020139c: 22 e1        	sd	s0, 128(sp)
8020139e: a6 fc        	sd	s1, 120(sp)
802013a0: ca f8        	sd	s2, 112(sp)
802013a2: 00 09        	addi	s0, sp, 144
802013a4: f3 24 20 14  	csrr	s1, scause
802013a8: 23 3c 94 f6  	sd	s1, -136(s0)
802013ac: f3 25 30 14  	csrr	a1, stval
802013b0: 2a 89        	mv	s2, a0
802013b2: 23 30 b4 f8  	sd	a1, -128(s0)
802013b6: 13 05 84 f7  	addi	a0, s0, -136
802013ba: 97 10 00 00  	auipc	ra, 1
802013be: e7 80 40 2b  	jalr	692(ra)
802013c2: 63 c2 04 02  	bltz	s1, 0x802013e6 <trap_handler+0x4e>
802013c6: 97 10 00 00  	auipc	ra, 1
802013ca: e7 80 00 28  	jalr	640(ra)
802013ce: 13 75 f5 0f  	andi	a0, a0, 255
802013d2: 99 45        	li	a1, 6
802013d4: 63 c6 a5 06  	blt	a1, a0, 0x80201440 <.LBB3_26+0x32>
802013d8: 89 45        	li	a1, 2
802013da: 63 0c b5 0c  	beq	a0, a1, 0x802014b2 <.LBB3_32>
802013de: 99 45        	li	a1, 6
802013e0: 63 06 b5 06  	beq	a0, a1, 0x8020144c <.LBB3_27>
802013e4: dd a2        	j	0x802015ca <.LBB3_41+0x18>
802013e6: 97 10 00 00  	auipc	ra, 1
802013ea: e7 80 80 23  	jalr	568(ra)
802013ee: 13 75 f5 0f  	andi	a0, a0, 255
802013f2: 95 45        	li	a1, 5
802013f4: 63 1b b5 1c  	bne	a0, a1, 0x802015ca <.LBB3_41+0x18>
802013f8: 73 25 10 c0  	rdtime	a0
802013fc: fd 65        	lui	a1, 31
802013fe: 9b 85 85 84  	addiw	a1, a1, -1976
80201402: 2e 95        	add	a0, a0, a1
80201404: 81 45        	li	a1, 0
80201406: 01 46        	li	a2, 0
80201408: 81 48        	li	a7, 0
8020140a: 73 00 00 00  	ecall	

000000008020140e <.LBB3_26>:
8020140e: 17 75 08 00  	auipc	a0, 135
80201412: 13 05 25 bf  	addi	a0, a0, -1038
80201416: 97 10 00 00  	auipc	ra, 1
8020141a: e7 80 20 c4  	jalr	-958(ra)
8020141e: 0c 61        	ld	a1, 0(a0)
80201420: 63 91 05 18  	bnez	a1, 0x802015a2 <.LBB3_39>
80201424: 83 36 85 78  	ld	a3, 1928(a0)
80201428: fd 55        	li	a1, -1
8020142a: 41 46        	li	a2, 16
8020142c: 0c e1        	sd	a1, 0(a0)
8020142e: 63 ff c6 14  	bgeu	a3, a2, 0x8020158c <.LBB3_38>
80201432: 93 05 80 07  	li	a1, 120
80201436: b3 85 b6 02  	mul	a1, a3, a1
8020143a: aa 95        	add	a1, a1, a0
8020143c: 05 46        	li	a2, 1
8020143e: f5 a0        	j	0x8020152a <.LBB3_36+0x2e>
80201440: 9d 45        	li	a1, 7
80201442: 63 04 b5 10  	beq	a0, a1, 0x8020154a <.LBB3_36+0x4e>
80201446: ad 45        	li	a1, 11
80201448: 63 11 b5 18  	bne	a0, a1, 0x802015ca <.LBB3_41+0x18>

000000008020144c <.LBB3_27>:
8020144c: 17 75 28 00  	auipc	a0, 647
80201450: 13 05 c5 48  	addi	a0, a0, 1164
80201454: 08 61        	ld	a0, 0(a0)
80201456: 5d c1        	beqz	a0, 0x802014fc <.LBB3_36>
80201458: 13 05 89 10  	addi	a0, s2, 264
8020145c: 93 05 04 f8  	addi	a1, s0, -128
80201460: 23 3c b4 fa  	sd	a1, -72(s0)

0000000080201464 <.LBB3_28>:
80201464: 97 35 00 00  	auipc	a1, 3
80201468: 93 85 85 af  	addi	a1, a1, -1288
8020146c: 23 30 b4 fc  	sd	a1, -64(s0)
80201470: 23 34 a4 fc  	sd	a0, -56(s0)
80201474: 23 38 b4 fc  	sd	a1, -48(s0)

0000000080201478 <.LBB3_29>:
80201478: 17 45 00 00  	auipc	a0, 4
8020147c: 13 05 05 ce  	addi	a0, a0, -800
80201480: 23 3c a4 f8  	sd	a0, -104(s0)
80201484: 0d 45        	li	a0, 3
80201486: 23 30 a4 fa  	sd	a0, -96(s0)

000000008020148a <.LBB3_30>:
8020148a: 17 45 00 00  	auipc	a0, 4
8020148e: 13 05 e5 cf  	addi	a0, a0, -770
80201492: 23 34 a4 f8  	sd	a0, -120(s0)
80201496: 09 45        	li	a0, 2
80201498: 23 38 a4 f8  	sd	a0, -112(s0)
8020149c: 93 05 84 fb  	addi	a1, s0, -72
802014a0: 23 34 b4 fa  	sd	a1, -88(s0)
802014a4: 23 38 a4 fa  	sd	a0, -80(s0)

00000000802014a8 <.LBB3_31>:
802014a8: 17 46 00 00  	auipc	a2, 4
802014ac: 13 06 06 d7  	addi	a2, a2, -656
802014b0: 35 a8        	j	0x802014ec <.LBB3_35+0x8>

00000000802014b2 <.LBB3_32>:
802014b2: 17 75 28 00  	auipc	a0, 647
802014b6: 13 05 65 42  	addi	a0, a0, 1062
802014ba: 08 61        	ld	a0, 0(a0)
802014bc: 21 c1        	beqz	a0, 0x802014fc <.LBB3_36>

00000000802014be <.LBB3_33>:
802014be: 17 45 00 00  	auipc	a0, 4
802014c2: 13 05 a5 dc  	addi	a0, a0, -566
802014c6: 23 3c a4 f8  	sd	a0, -104(s0)
802014ca: 05 45        	li	a0, 1
802014cc: 23 30 a4 fa  	sd	a0, -96(s0)
802014d0: 23 34 04 f8  	sd	zero, -120(s0)

00000000802014d4 <.LBB3_34>:
802014d4: 17 45 00 00  	auipc	a0, 4
802014d8: 13 05 45 c3  	addi	a0, a0, -972
802014dc: 23 34 a4 fa  	sd	a0, -88(s0)
802014e0: 23 38 04 fa  	sd	zero, -80(s0)

00000000802014e4 <.LBB3_35>:
802014e4: 17 46 00 00  	auipc	a2, 4
802014e8: 13 06 46 db  	addi	a2, a2, -588
802014ec: 13 05 84 f8  	addi	a0, s0, -120
802014f0: 85 45        	li	a1, 1
802014f2: 81 46        	li	a3, 0
802014f4: 97 10 00 00  	auipc	ra, 1
802014f8: e7 80 60 65  	jalr	1622(ra)

00000000802014fc <.LBB3_36>:
802014fc: 17 75 08 00  	auipc	a0, 135
80201500: 13 05 45 b0  	addi	a0, a0, -1276
80201504: 97 10 00 00  	auipc	ra, 1
80201508: e7 80 40 b5  	jalr	-1196(ra)
8020150c: 0c 61        	ld	a1, 0(a0)
8020150e: d1 e9        	bnez	a1, 0x802015a2 <.LBB3_39>
80201510: 83 36 85 78  	ld	a3, 1928(a0)
80201514: fd 55        	li	a1, -1
80201516: 41 46        	li	a2, 16
80201518: 0c e1        	sd	a1, 0(a0)
8020151a: 63 f4 c6 06  	bgeu	a3, a2, 0x80201582 <.LBB3_37>
8020151e: 93 05 80 07  	li	a1, 120
80201522: b3 85 b6 02  	mul	a1, a3, a1
80201526: aa 95        	add	a1, a1, a0
80201528: 0d 46        	li	a2, 3
8020152a: 23 8c c5 06  	sb	a2, 120(a1)
8020152e: 0c 61        	ld	a1, 0(a0)
80201530: 85 05        	addi	a1, a1, 1
80201532: 0c e1        	sd	a1, 0(a0)
80201534: 97 00 00 00  	auipc	ra, 0
80201538: e7 80 80 b5  	jalr	-1192(ra)
8020153c: 4a 85        	mv	a0, s2
8020153e: aa 60        	ld	ra, 136(sp)
80201540: 0a 64        	ld	s0, 128(sp)
80201542: e6 74        	ld	s1, 120(sp)
80201544: 46 79        	ld	s2, 112(sp)
80201546: 49 61        	addi	sp, sp, 144
80201548: 82 80        	ret
8020154a: 03 35 89 10  	ld	a0, 264(s2)
8020154e: 11 05        	addi	a0, a0, 4
80201550: 23 34 a9 10  	sd	a0, 264(s2)
80201554: 83 35 09 05  	ld	a1, 80(s2)
80201558: 03 36 89 05  	ld	a2, 88(s2)
8020155c: 83 36 09 06  	ld	a3, 96(s2)
80201560: 03 35 89 08  	ld	a0, 136(s2)
80201564: 23 34 b4 f8  	sd	a1, -120(s0)
80201568: 23 38 c4 f8  	sd	a2, -112(s0)
8020156c: 23 3c d4 f8  	sd	a3, -104(s0)
80201570: 93 05 84 f8  	addi	a1, s0, -120
80201574: 97 00 00 00  	auipc	ra, 0
80201578: e7 80 c0 2c  	jalr	716(ra)
8020157c: 23 38 a9 04  	sd	a0, 80(s2)
80201580: 75 bf        	j	0x8020153c <.LBB3_36+0x40>

0000000080201582 <.LBB3_37>:
80201582: 17 46 00 00  	auipc	a2, 4
80201586: 13 06 e6 b6  	addi	a2, a2, -1170
8020158a: 29 a0        	j	0x80201594 <.LBB3_38+0x8>

000000008020158c <.LBB3_38>:
8020158c: 17 46 00 00  	auipc	a2, 4
80201590: 13 06 c6 b4  	addi	a2, a2, -1204
80201594: c1 45        	li	a1, 16
80201596: 36 85        	mv	a0, a3
80201598: 97 10 00 00  	auipc	ra, 1
8020159c: e7 80 80 72  	jalr	1832(ra)
802015a0: 00 00        	unimp	

00000000802015a2 <.LBB3_39>:
802015a2: 17 45 00 00  	auipc	a0, 4
802015a6: 13 05 e5 a8  	addi	a0, a0, -1394

00000000802015aa <.LBB3_40>:
802015aa: 97 46 00 00  	auipc	a3, 4
802015ae: 93 86 e6 df  	addi	a3, a3, -514

00000000802015b2 <.LBB3_41>:
802015b2: 17 47 00 00  	auipc	a4, 4
802015b6: 13 07 67 e2  	addi	a4, a4, -474
802015ba: c1 45        	li	a1, 16
802015bc: 13 06 84 f8  	addi	a2, s0, -120
802015c0: 97 10 00 00  	auipc	ra, 1
802015c4: e7 80 00 74  	jalr	1856(ra)
802015c8: 00 00        	unimp	
802015ca: 13 05 84 f7  	addi	a0, s0, -136
802015ce: 97 00 00 00  	auipc	ra, 0
802015d2: e7 80 80 d5  	jalr	-680(ra)
802015d6: 23 0c a4 fc  	sb	a0, -40(s0)
802015da: a3 0c b4 fc  	sb	a1, -39(s0)
802015de: 13 05 84 fd  	addi	a0, s0, -40
802015e2: 23 3c a4 fa  	sd	a0, -72(s0)

00000000802015e6 <.LBB3_42>:
802015e6: 17 15 00 00  	auipc	a0, 1
802015ea: 13 05 e5 09  	addi	a0, a0, 158
802015ee: 23 30 a4 fc  	sd	a0, -64(s0)
802015f2: 13 05 04 f8  	addi	a0, s0, -128
802015f6: 23 34 a4 fc  	sd	a0, -56(s0)

00000000802015fa <.LBB3_43>:
802015fa: 17 35 00 00  	auipc	a0, 3
802015fe: 13 05 25 96  	addi	a0, a0, -1694
80201602: 23 38 a4 fc  	sd	a0, -48(s0)

0000000080201606 <.LBB3_44>:
80201606: 17 45 00 00  	auipc	a0, 4
8020160a: 13 05 a5 ce  	addi	a0, a0, -790
8020160e: 23 3c a4 f8  	sd	a0, -104(s0)
80201612: 0d 45        	li	a0, 3
80201614: 23 30 a4 fa  	sd	a0, -96(s0)

0000000080201618 <.LBB3_45>:
80201618: 17 45 00 00  	auipc	a0, 4
8020161c: 13 05 85 d0  	addi	a0, a0, -760
80201620: 23 34 a4 f8  	sd	a0, -120(s0)
80201624: 09 45        	li	a0, 2
80201626: 23 38 a4 f8  	sd	a0, -112(s0)
8020162a: 93 05 84 fb  	addi	a1, s0, -72
8020162e: 23 34 b4 fa  	sd	a1, -88(s0)
80201632: 23 38 a4 fa  	sd	a0, -80(s0)

0000000080201636 <.LBB3_46>:
80201636: 97 45 00 00  	auipc	a1, 4
8020163a: 93 85 a5 d5  	addi	a1, a1, -678
8020163e: 13 05 84 f8  	addi	a0, s0, -120
80201642: 97 10 00 00  	auipc	ra, 1
80201646: e7 80 40 62  	jalr	1572(ra)
8020164a: 00 00        	unimp	

000000008020164c <__switch>:
8020164c: 23 34 25 00  	sd	sp, 8(a0)
80201650: 23 30 15 00  	sd	ra, 0(a0)
80201654: 00 e9        	sd	s0, 16(a0)
80201656: 04 ed        	sd	s1, 24(a0)
80201658: 23 30 25 03  	sd	s2, 32(a0)
8020165c: 23 34 35 03  	sd	s3, 40(a0)
80201660: 23 38 45 03  	sd	s4, 48(a0)
80201664: 23 3c 55 03  	sd	s5, 56(a0)
80201668: 23 30 65 05  	sd	s6, 64(a0)
8020166c: 23 34 75 05  	sd	s7, 72(a0)
80201670: 23 38 85 05  	sd	s8, 80(a0)
80201674: 23 3c 95 05  	sd	s9, 88(a0)
80201678: 23 30 a5 07  	sd	s10, 96(a0)
8020167c: 23 34 b5 07  	sd	s11, 104(a0)
80201680: 83 b0 05 00  	ld	ra, 0(a1)
80201684: 80 69        	ld	s0, 16(a1)
80201686: 84 6d        	ld	s1, 24(a1)
80201688: 03 b9 05 02  	ld	s2, 32(a1)
8020168c: 83 b9 85 02  	ld	s3, 40(a1)
80201690: 03 ba 05 03  	ld	s4, 48(a1)
80201694: 83 ba 85 03  	ld	s5, 56(a1)
80201698: 03 bb 05 04  	ld	s6, 64(a1)
8020169c: 83 bb 85 04  	ld	s7, 72(a1)
802016a0: 03 bc 05 05  	ld	s8, 80(a1)
802016a4: 83 bc 85 05  	ld	s9, 88(a1)
802016a8: 03 bd 05 06  	ld	s10, 96(a1)
802016ac: 83 bd 85 06  	ld	s11, 104(a1)
802016b0: 03 b1 85 00  	ld	sp, 8(a1)
802016b4: 82 80        	ret

00000000802016b6 <_ZN4core3ptr47drop_in_place$LT$core..cell..BorrowMutError$GT$17h1c74932dfe841b87E.llvm.13592730992780682078>:
802016b6: 41 11        	addi	sp, sp, -16
802016b8: 06 e4        	sd	ra, 8(sp)
802016ba: 22 e0        	sd	s0, 0(sp)
802016bc: 00 08        	addi	s0, sp, 16
802016be: a2 60        	ld	ra, 8(sp)
802016c0: 02 64        	ld	s0, 0(sp)
802016c2: 41 01        	addi	sp, sp, 16
802016c4: 82 80        	ret

00000000802016c6 <_ZN4sel44sync2up19UPSafeCell$LT$T$GT$16exclusive_access17hd28e6b249af2e160E>:
802016c6: 01 11        	addi	sp, sp, -32
802016c8: 06 ec        	sd	ra, 24(sp)
802016ca: 22 e8        	sd	s0, 16(sp)
802016cc: 00 10        	addi	s0, sp, 32
802016ce: aa 85        	mv	a1, a0
802016d0: 08 61        	ld	a0, 0(a0)
802016d2: 09 e9        	bnez	a0, 0x802016e4 <.LBB6_3>
802016d4: 7d 56        	li	a2, -1
802016d6: 13 85 85 00  	addi	a0, a1, 8
802016da: 90 e1        	sd	a2, 0(a1)
802016dc: e2 60        	ld	ra, 24(sp)
802016de: 42 64        	ld	s0, 16(sp)
802016e0: 05 61        	addi	sp, sp, 32
802016e2: 82 80        	ret

00000000802016e4 <.LBB6_3>:
802016e4: 17 45 00 00  	auipc	a0, 4
802016e8: 13 05 c5 94  	addi	a0, a0, -1716

00000000802016ec <.LBB6_4>:
802016ec: 97 46 00 00  	auipc	a3, 4
802016f0: 93 86 c6 cb  	addi	a3, a3, -836

00000000802016f4 <.LBB6_5>:
802016f4: 17 47 00 00  	auipc	a4, 4
802016f8: 13 07 47 ce  	addi	a4, a4, -796
802016fc: c1 45        	li	a1, 16
802016fe: 13 06 84 fe  	addi	a2, s0, -24
80201702: 97 10 00 00  	auipc	ra, 1
80201706: e7 80 e0 5f  	jalr	1534(ra)
8020170a: 00 00        	unimp	

000000008020170c <_ZN4sel44trap7context11TrapContext16app_init_context17h534600b8bf72dac9E>:
8020170c: 79 71        	addi	sp, sp, -48
8020170e: 06 f4        	sd	ra, 40(sp)
80201710: 22 f0        	sd	s0, 32(sp)
80201712: 26 ec        	sd	s1, 24(sp)
80201714: 4a e8        	sd	s2, 16(sp)
80201716: 4e e4        	sd	s3, 8(sp)
80201718: 52 e0        	sd	s4, 0(sp)
8020171a: 00 18        	addi	s0, sp, 48
8020171c: f3 26 00 10  	csrr	a3, sstatus
80201720: 32 89        	mv	s2, a2
80201722: ae 89        	mv	s3, a1
80201724: aa 84        	mv	s1, a0
80201726: 13 fa f6 ef  	andi	s4, a3, -257
8020172a: 13 06 00 10  	li	a2, 256
8020172e: 81 45        	li	a1, 0
80201730: 97 30 00 00  	auipc	ra, 3
80201734: e7 80 c0 dd  	jalr	-548(ra)
80201738: 23 b0 44 11  	sd	s4, 256(s1)
8020173c: 23 b4 34 11  	sd	s3, 264(s1)
80201740: 23 b8 24 01  	sd	s2, 16(s1)
80201744: a2 70        	ld	ra, 40(sp)
80201746: 02 74        	ld	s0, 32(sp)
80201748: e2 64        	ld	s1, 24(sp)
8020174a: 42 69        	ld	s2, 16(sp)
8020174c: a2 69        	ld	s3, 8(sp)
8020174e: 02 6a        	ld	s4, 0(sp)
80201750: 45 61        	addi	sp, sp, 48
80201752: 82 80        	ret

0000000080201754 <rust_main>:
80201754: 39 71        	addi	sp, sp, -64
80201756: 06 fc        	sd	ra, 56(sp)
80201758: 22 f8        	sd	s0, 48(sp)
8020175a: 80 00        	addi	s0, sp, 64

000000008020175c <.LBB0_3>:
8020175c: 17 75 08 00  	auipc	a0, 135
80201760: 13 05 45 8a  	addi	a0, a0, -1884

0000000080201764 <.LBB0_4>:
80201764: 97 85 28 00  	auipc	a1, 648
80201768: 93 85 c5 89  	addi	a1, a1, -1892
8020176c: 33 86 a5 40  	sub	a2, a1, a0
80201770: 11 c6        	beqz	a2, 0x8020177c <.LBB0_5>
80201772: 81 45        	li	a1, 0
80201774: 97 30 00 00  	auipc	ra, 3
80201778: e7 80 80 d9  	jalr	-616(ra)

000000008020177c <.LBB0_5>:
8020177c: 17 45 00 00  	auipc	a0, 4
80201780: 13 05 c5 c8  	addi	a0, a0, -884
80201784: 23 38 a4 fc  	sd	a0, -48(s0)
80201788: 05 45        	li	a0, 1
8020178a: 23 3c a4 fc  	sd	a0, -40(s0)
8020178e: 23 30 04 fc  	sd	zero, -64(s0)

0000000080201792 <.LBB0_6>:
80201792: 17 45 00 00  	auipc	a0, 4
80201796: 13 05 e5 c5  	addi	a0, a0, -930
8020179a: 23 30 a4 fe  	sd	a0, -32(s0)
8020179e: 23 34 04 fe  	sd	zero, -24(s0)
802017a2: 13 05 04 fc  	addi	a0, s0, -64
802017a6: 97 00 00 00  	auipc	ra, 0
802017aa: e7 80 60 5d  	jalr	1494(ra)
802017ae: 97 00 00 00  	auipc	ra, 0
802017b2: e7 80 40 33  	jalr	820(ra)
802017b6: 97 00 00 00  	auipc	ra, 0
802017ba: e7 80 e0 ba  	jalr	-1106(ra)
802017be: 97 00 00 00  	auipc	ra, 0
802017c2: e7 80 e0 24  	jalr	590(ra)
802017c6: 97 00 00 00  	auipc	ra, 0
802017ca: e7 80 a0 bb  	jalr	-1094(ra)
802017ce: 97 00 00 00  	auipc	ra, 0
802017d2: e7 80 c0 04  	jalr	76(ra)
802017d6: 97 00 00 00  	auipc	ra, 0
802017da: e7 80 a0 82  	jalr	-2006(ra)
802017de: 00 00        	unimp	

00000000802017e0 <_ZN44_$LT$$RF$T$u20$as$u20$core..fmt..Display$GT$3fmt17hc83fb63968e07dbeE>:
802017e0: 41 11        	addi	sp, sp, -16
802017e2: 06 e4        	sd	ra, 8(sp)
802017e4: 22 e0        	sd	s0, 0(sp)
802017e6: 00 08        	addi	s0, sp, 16
802017e8: 08 61        	ld	a0, 0(a0)
802017ea: a2 60        	ld	ra, 8(sp)
802017ec: 02 64        	ld	s0, 0(sp)
802017ee: 41 01        	addi	sp, sp, 16
802017f0: 17 23 00 00  	auipc	t1, 2
802017f4: 67 00 43 b4  	jr	-1212(t1)

00000000802017f8 <_ZN44_$LT$$RF$T$u20$as$u20$core..fmt..Display$GT$3fmt17he9e9b4aa0ef791bdE>:
802017f8: 41 11        	addi	sp, sp, -16
802017fa: 06 e4        	sd	ra, 8(sp)
802017fc: 22 e0        	sd	s0, 0(sp)
802017fe: 00 08        	addi	s0, sp, 16
80201800: 10 61        	ld	a2, 0(a0)
80201802: 14 65        	ld	a3, 8(a0)
80201804: 2e 87        	mv	a4, a1
80201806: 32 85        	mv	a0, a2
80201808: b6 85        	mv	a1, a3
8020180a: 3a 86        	mv	a2, a4
8020180c: a2 60        	ld	ra, 8(sp)
8020180e: 02 64        	ld	s0, 0(sp)
80201810: 41 01        	addi	sp, sp, 16
80201812: 17 23 00 00  	auipc	t1, 2
80201816: 67 00 03 25  	jr	592(t1)

000000008020181a <_ZN4sel45timer16set_next_trigger17h513b968853dec90cE>:
8020181a: 41 11        	addi	sp, sp, -16
8020181c: 06 e4        	sd	ra, 8(sp)
8020181e: 22 e0        	sd	s0, 0(sp)
80201820: 00 08        	addi	s0, sp, 16
80201822: 73 25 10 c0  	rdtime	a0
80201826: fd 65        	lui	a1, 31
80201828: 9b 85 85 84  	addiw	a1, a1, -1976
8020182c: 2e 95        	add	a0, a0, a1
8020182e: 81 45        	li	a1, 0
80201830: 01 46        	li	a2, 0
80201832: 81 48        	li	a7, 0
80201834: 73 00 00 00  	ecall	
80201838: a2 60        	ld	ra, 8(sp)
8020183a: 02 64        	ld	s0, 0(sp)
8020183c: 41 01        	addi	sp, sp, 16
8020183e: 82 80        	ret

0000000080201840 <_ZN4sel47syscall7syscall17hc24d219189e4a5a1E>:
80201840: 1d 71        	addi	sp, sp, -96
80201842: 86 ec        	sd	ra, 88(sp)
80201844: a2 e8        	sd	s0, 80(sp)
80201846: a6 e4        	sd	s1, 72(sp)
80201848: 80 10        	addi	s0, sp, 96
8020184a: 13 06 b0 07  	li	a2, 123
8020184e: 23 30 a4 fa  	sd	a0, -96(s0)
80201852: 63 51 a6 06  	bge	a2, a0, 0x802018b4 <.LBB0_17+0x2e>
80201856: 13 06 c0 07  	li	a2, 124
8020185a: 63 0b c5 06  	beq	a0, a2, 0x802018d0 <.LBB0_18>
8020185e: 13 06 90 0a  	li	a2, 169
80201862: 63 17 c5 10  	bne	a0, a2, 0x80201970 <.LBB0_22+0x18>
80201866: 88 61        	ld	a0, 0(a1)
80201868: f3 25 10 c0  	rdtime	a1

000000008020186c <.LBB0_15>:
8020186c: 17 66 07 00  	auipc	a2, 118
80201870: 13 06 c6 11  	addi	a2, a2, 284
80201874: 10 62        	ld	a2, 0(a2)
80201876: 81 44        	li	s1, 0
80201878: 33 b6 c5 02  	mulhu	a2, a1, a2

000000008020187c <.LBB0_16>:
8020187c: 97 66 07 00  	auipc	a3, 118
80201880: 93 86 46 11  	addi	a3, a3, 276
80201884: 94 62        	ld	a3, 0(a3)

0000000080201886 <.LBB0_17>:
80201886: 17 67 07 00  	auipc	a4, 118
8020188a: 13 07 27 11  	addi	a4, a4, 274
8020188e: 18 63        	ld	a4, 0(a4)
80201890: 0d 82        	srli	a2, a2, 3
80201892: a1 81        	srli	a1, a1, 8
80201894: b3 b5 d5 02  	mulhu	a1, a1, a3
80201898: b3 36 e6 02  	mulhu	a3, a2, a4
8020189c: c9 82        	srli	a3, a3, 18
8020189e: 37 47 0f 00  	lui	a4, 244
802018a2: 1b 07 07 24  	addiw	a4, a4, 576
802018a6: b3 86 e6 02  	mul	a3, a3, a4
802018aa: 9d 81        	srli	a1, a1, 7
802018ac: 15 8e        	sub	a2, a2, a3
802018ae: 0c e1        	sd	a1, 0(a0)
802018b0: 10 e5        	sd	a2, 8(a0)
802018b2: 85 a0        	j	0x80201912 <.LBB0_18+0x42>
802018b4: 13 06 00 04  	li	a2, 64
802018b8: 63 1e c5 06  	bne	a0, a2, 0x80201934 <.LBB0_19+0x16>
802018bc: 88 61        	ld	a0, 0(a1)
802018be: 90 65        	ld	a2, 8(a1)
802018c0: 84 69        	ld	s1, 16(a1)
802018c2: b2 85        	mv	a1, a2
802018c4: 26 86        	mv	a2, s1
802018c6: 97 10 00 00  	auipc	ra, 1
802018ca: e7 80 20 be  	jalr	-1054(ra)
802018ce: 91 a0        	j	0x80201912 <.LBB0_18+0x42>

00000000802018d0 <.LBB0_18>:
802018d0: 17 65 08 00  	auipc	a0, 134
802018d4: 13 05 05 73  	addi	a0, a0, 1840
802018d8: 97 00 00 00  	auipc	ra, 0
802018dc: e7 80 00 78  	jalr	1920(ra)
802018e0: 0c 61        	ld	a1, 0(a0)
802018e2: bd e1        	bnez	a1, 0x80201948 <.LBB0_20>
802018e4: 83 36 85 78  	ld	a3, 1928(a0)
802018e8: fd 55        	li	a1, -1
802018ea: 41 46        	li	a2, 16
802018ec: 0c e1        	sd	a1, 0(a0)
802018ee: 63 f8 c6 02  	bgeu	a3, a2, 0x8020191e <.LBB0_19>
802018f2: 93 05 80 07  	li	a1, 120
802018f6: b3 85 b6 02  	mul	a1, a3, a1
802018fa: aa 95        	add	a1, a1, a0
802018fc: 05 46        	li	a2, 1
802018fe: 23 8c c5 06  	sb	a2, 120(a1)
80201902: 0c 61        	ld	a1, 0(a0)
80201904: 85 05        	addi	a1, a1, 1
80201906: 0c e1        	sd	a1, 0(a0)
80201908: 97 f0 ff ff  	auipc	ra, 1048575
8020190c: e7 80 40 78  	jalr	1924(ra)
80201910: 81 44        	li	s1, 0
80201912: 26 85        	mv	a0, s1
80201914: e6 60        	ld	ra, 88(sp)
80201916: 46 64        	ld	s0, 80(sp)
80201918: a6 64        	ld	s1, 72(sp)
8020191a: 25 61        	addi	sp, sp, 96
8020191c: 82 80        	ret

000000008020191e <.LBB0_19>:
8020191e: 17 36 00 00  	auipc	a2, 3
80201922: 13 06 a6 7b  	addi	a2, a2, 1978
80201926: c1 45        	li	a1, 16
80201928: 36 85        	mv	a0, a3
8020192a: 97 10 00 00  	auipc	ra, 1
8020192e: e7 80 60 39  	jalr	918(ra)
80201932: 00 00        	unimp	
80201934: 13 06 d0 05  	li	a2, 93
80201938: 63 1c c5 02  	bne	a0, a2, 0x80201970 <.LBB0_22+0x18>
8020193c: 88 61        	ld	a0, 0(a1)
8020193e: 97 10 00 00  	auipc	ra, 1
80201942: e7 80 c0 aa  	jalr	-1364(ra)
80201946: 00 00        	unimp	

0000000080201948 <.LBB0_20>:
80201948: 17 35 00 00  	auipc	a0, 3
8020194c: 13 05 85 6e  	addi	a0, a0, 1768

0000000080201950 <.LBB0_21>:
80201950: 97 46 00 00  	auipc	a3, 4
80201954: 93 86 86 a5  	addi	a3, a3, -1448

0000000080201958 <.LBB0_22>:
80201958: 17 47 00 00  	auipc	a4, 4
8020195c: 13 07 07 a8  	addi	a4, a4, -1408
80201960: c1 45        	li	a1, 16
80201962: 13 06 84 fa  	addi	a2, s0, -88
80201966: 97 10 00 00  	auipc	ra, 1
8020196a: e7 80 a0 39  	jalr	922(ra)
8020196e: 00 00        	unimp	
80201970: 13 05 04 fa  	addi	a0, s0, -96
80201974: 23 3c a4 fc  	sd	a0, -40(s0)

0000000080201978 <.LBB0_23>:
80201978: 17 35 00 00  	auipc	a0, 3
8020197c: 13 05 05 9d  	addi	a0, a0, -1584
80201980: 23 30 a4 fe  	sd	a0, -32(s0)

0000000080201984 <.LBB0_24>:
80201984: 17 45 00 00  	auipc	a0, 4
80201988: 13 05 c5 b1  	addi	a0, a0, -1252
8020198c: 23 3c a4 fa  	sd	a0, -72(s0)
80201990: 05 45        	li	a0, 1
80201992: 23 30 a4 fc  	sd	a0, -64(s0)
80201996: 23 34 04 fa  	sd	zero, -88(s0)
8020199a: 93 05 84 fd  	addi	a1, s0, -40
8020199e: 23 34 b4 fc  	sd	a1, -56(s0)
802019a2: 23 38 a4 fc  	sd	a0, -48(s0)

00000000802019a6 <.LBB0_25>:
802019a6: 97 45 00 00  	auipc	a1, 4
802019aa: 93 85 25 b2  	addi	a1, a1, -1246
802019ae: 13 05 84 fa  	addi	a0, s0, -88
802019b2: 97 10 00 00  	auipc	ra, 1
802019b6: e7 80 40 2b  	jalr	692(ra)
802019ba: 00 00        	unimp	

00000000802019bc <_ZN4sel43sbi8shutdown17h66331878ed4ddfbbE>:
802019bc: 39 71        	addi	sp, sp, -64
802019be: 06 fc        	sd	ra, 56(sp)
802019c0: 22 f8        	sd	s0, 48(sp)
802019c2: 80 00        	addi	s0, sp, 64
802019c4: a1 48        	li	a7, 8
802019c6: 01 45        	li	a0, 0
802019c8: 81 45        	li	a1, 0
802019ca: 01 46        	li	a2, 0
802019cc: 73 00 00 00  	ecall	

00000000802019d0 <.LBB2_1>:
802019d0: 17 45 00 00  	auipc	a0, 4
802019d4: 13 05 85 b2  	addi	a0, a0, -1240
802019d8: 23 38 a4 fc  	sd	a0, -48(s0)
802019dc: 05 45        	li	a0, 1
802019de: 23 3c a4 fc  	sd	a0, -40(s0)
802019e2: 23 30 04 fc  	sd	zero, -64(s0)

00000000802019e6 <.LBB2_2>:
802019e6: 17 45 00 00  	auipc	a0, 4
802019ea: 13 05 a5 af  	addi	a0, a0, -1286
802019ee: 23 30 a4 fe  	sd	a0, -32(s0)
802019f2: 23 34 04 fe  	sd	zero, -24(s0)

00000000802019f6 <.LBB2_3>:
802019f6: 97 45 00 00  	auipc	a1, 4
802019fa: 93 85 25 b2  	addi	a1, a1, -1246
802019fe: 13 05 04 fc  	addi	a0, s0, -64
80201a02: 97 10 00 00  	auipc	ra, 1
80201a06: e7 80 40 26  	jalr	612(ra)
80201a0a: 00 00        	unimp	

0000000080201a0c <_ZN4sel46loader9load_apps17h5e41873732504132E>:
80201a0c: 5d 71        	addi	sp, sp, -80
80201a0e: 86 e4        	sd	ra, 72(sp)
80201a10: a2 e0        	sd	s0, 64(sp)
80201a12: 26 fc        	sd	s1, 56(sp)
80201a14: 4a f8        	sd	s2, 48(sp)
80201a16: 4e f4        	sd	s3, 40(sp)
80201a18: 52 f0        	sd	s4, 32(sp)
80201a1a: 56 ec        	sd	s5, 24(sp)
80201a1c: 5a e8        	sd	s6, 16(sp)
80201a1e: 5e e4        	sd	s7, 8(sp)
80201a20: 80 08        	addi	s0, sp, 80

0000000080201a22 <.LBB1_14>:
80201a22: 17 55 04 00  	auipc	a0, 69
80201a26: 13 05 e5 5d  	addi	a0, a0, 1502
80201a2a: 83 39 05 00  	ld	s3, 0(a0)
80201a2e: 0f 10 00 00  	fence.i	
80201a32: 63 8c 09 06  	beqz	s3, 0x80201aaa <.LBB1_14+0x88>
80201a36: 13 89 19 00  	addi	s2, s3, 1
80201a3a: 85 45        	li	a1, 1
80201a3c: 4a 86        	mv	a2, s2
80201a3e: 63 e3 25 01  	bltu	a1, s2, 0x80201a44 <.LBB1_14+0x22>
80201a42: 05 46        	li	a2, 1
80201a44: 81 45        	li	a1, 0
80201a46: 13 0a f6 ff  	addi	s4, a2, -1
80201a4a: 13 06 10 20  	li	a2, 513
80201a4e: 93 1a 66 01  	slli	s5, a2, 22
80201a52: 37 16 02 04  	lui	a2, 16417
80201a56: 13 1b 56 00  	slli	s6, a2, 5
80201a5a: 93 0b 85 00  	addi	s7, a0, 8
80201a5e: 13 96 15 01  	slli	a2, a1, 17
80201a62: 33 05 56 01  	add	a0, a2, s5
80201a66: 5a 96        	add	a2, a2, s6
80201a68: 63 7c c5 00  	bgeu	a0, a2, 0x80201a80 <.LBB1_14+0x5e>
80201a6c: 37 06 02 00  	lui	a2, 32
80201a70: aa 86        	mv	a3, a0
80201a72: 13 87 16 00  	addi	a4, a3, 1
80201a76: 7d 16        	addi	a2, a2, -1
80201a78: 23 80 06 00  	sb	zero, 0(a3)
80201a7c: ba 86        	mv	a3, a4
80201a7e: 75 fa        	bnez	a2, 0x80201a72 <.LBB1_14+0x50>
80201a80: 63 80 25 05  	beq	a1, s2, 0x80201ac0 <.LBB1_15>
80201a84: 93 84 15 00  	addi	s1, a1, 1
80201a88: 63 82 45 05  	beq	a1, s4, 0x80201acc <.LBB1_16>
80201a8c: 8e 05        	slli	a1, a1, 3
80201a8e: de 95        	add	a1, a1, s7
80201a90: 8c 61        	ld	a1, 0(a1)
80201a92: 13 96 34 00  	slli	a2, s1, 3
80201a96: 5e 96        	add	a2, a2, s7
80201a98: 10 62        	ld	a2, 0(a2)
80201a9a: 0d 8e        	sub	a2, a2, a1
80201a9c: 97 30 00 00  	auipc	ra, 3
80201aa0: e7 80 e0 b8  	jalr	-1138(ra)
80201aa4: a6 85        	mv	a1, s1
80201aa6: e3 9c 34 fb  	bne	s1, s3, 0x80201a5e <.LBB1_14+0x3c>
80201aaa: a6 60        	ld	ra, 72(sp)
80201aac: 06 64        	ld	s0, 64(sp)
80201aae: e2 74        	ld	s1, 56(sp)
80201ab0: 42 79        	ld	s2, 48(sp)
80201ab2: a2 79        	ld	s3, 40(sp)
80201ab4: 02 7a        	ld	s4, 32(sp)
80201ab6: e2 6a        	ld	s5, 24(sp)
80201ab8: 42 6b        	ld	s6, 16(sp)
80201aba: a2 6b        	ld	s7, 8(sp)
80201abc: 61 61        	addi	sp, sp, 80
80201abe: 82 80        	ret

0000000080201ac0 <.LBB1_15>:
80201ac0: 17 46 04 00  	auipc	a2, 68
80201ac4: 13 06 06 55  	addi	a2, a2, 1360
80201ac8: 4a 85        	mv	a0, s2
80201aca: 31 a0        	j	0x80201ad6 <.LBB1_16+0xa>

0000000080201acc <.LBB1_16>:
80201acc: 17 46 04 00  	auipc	a2, 68
80201ad0: 13 06 c6 55  	addi	a2, a2, 1372
80201ad4: 26 85        	mv	a0, s1
80201ad6: ca 85        	mv	a1, s2
80201ad8: 97 10 00 00  	auipc	ra, 1
80201adc: e7 80 80 1e  	jalr	488(ra)
80201ae0: 00 00        	unimp	

0000000080201ae2 <_ZN4sel410heap_alloc9init_heap17h3294eb883f2849c6E>:
80201ae2: 01 11        	addi	sp, sp, -32
80201ae4: 06 ec        	sd	ra, 24(sp)
80201ae6: 22 e8        	sd	s0, 16(sp)
80201ae8: 26 e4        	sd	s1, 8(sp)
80201aea: 4a e0        	sd	s2, 0(sp)
80201aec: 00 10        	addi	s0, sp, 32

0000000080201aee <.LBB0_3>:
80201aee: 17 75 28 00  	auipc	a0, 647
80201af2: 13 05 a5 cb  	addi	a0, a0, -838
80201af6: 97 10 00 00  	auipc	ra, 1
80201afa: e7 80 20 00  	jalr	2(ra)
80201afe: aa 84        	mv	s1, a0
80201b00: 05 45        	li	a0, 1
80201b02: 2f b9 a4 00  	amoadd.d	s2, a0, (s1)
80201b06: 88 64        	ld	a0, 8(s1)
80201b08: 0f 00 30 02  	fence	r, rw
80201b0c: 63 09 25 01  	beq	a0, s2, 0x80201b1e <.LBB0_3+0x30>
80201b10: 0f 00 00 01  	fence	w, 0
80201b14: 88 64        	ld	a0, 8(s1)
80201b16: 0f 00 30 02  	fence	r, rw
80201b1a: e3 1b 25 ff  	bne	a0, s2, 0x80201b10 <.LBB0_3+0x22>
80201b1e: 13 85 04 01  	addi	a0, s1, 16

0000000080201b22 <.LBB0_4>:
80201b22: 97 75 08 00  	auipc	a1, 135
80201b26: 93 85 65 c8  	addi	a1, a1, -890
80201b2a: 37 06 20 00  	lui	a2, 512
80201b2e: 97 10 00 00  	auipc	ra, 1
80201b32: e7 80 60 e6  	jalr	-410(ra)
80201b36: 13 05 19 00  	addi	a0, s2, 1
80201b3a: 0f 00 10 03  	fence	rw, w
80201b3e: 88 e4        	sd	a0, 8(s1)
80201b40: e2 60        	ld	ra, 24(sp)
80201b42: 42 64        	ld	s0, 16(sp)
80201b44: a2 64        	ld	s1, 8(sp)
80201b46: 02 69        	ld	s2, 0(sp)
80201b48: 05 61        	addi	sp, sp, 32
80201b4a: 82 80        	ret

0000000080201b4c <_ZN4core3ptr54drop_in_place$LT$$RF$mut$u20$sel4..console..Stdout$GT$17he26c29928d3f96b5E.llvm.17772250532125793796>:
80201b4c: 41 11        	addi	sp, sp, -16
80201b4e: 06 e4        	sd	ra, 8(sp)
80201b50: 22 e0        	sd	s0, 0(sp)
80201b52: 00 08        	addi	s0, sp, 16
80201b54: a2 60        	ld	ra, 8(sp)
80201b56: 02 64        	ld	s0, 0(sp)
80201b58: 41 01        	addi	sp, sp, 16
80201b5a: 82 80        	ret

0000000080201b5c <_ZN50_$LT$$RF$mut$u20$W$u20$as$u20$core..fmt..Write$GT$10write_char17hf0d505868795947eE.llvm.17772250532125793796>:
80201b5c: 01 11        	addi	sp, sp, -32
80201b5e: 06 ec        	sd	ra, 24(sp)
80201b60: 22 e8        	sd	s0, 16(sp)
80201b62: 00 10        	addi	s0, sp, 32
80201b64: 1b 85 05 00  	sext.w	a0, a1
80201b68: 13 06 00 08  	li	a2, 128
80201b6c: 23 26 04 fe  	sw	zero, -20(s0)
80201b70: 63 76 c5 00  	bgeu	a0, a2, 0x80201b7c <_ZN50_$LT$$RF$mut$u20$W$u20$as$u20$core..fmt..Write$GT$10write_char17hf0d505868795947eE.llvm.17772250532125793796+0x20>
80201b74: 23 06 b4 fe  	sb	a1, -20(s0)
80201b78: 05 45        	li	a0, 1
80201b7a: 51 a8        	j	0x80201c0e <_ZN50_$LT$$RF$mut$u20$W$u20$as$u20$core..fmt..Write$GT$10write_char17hf0d505868795947eE.llvm.17772250532125793796+0xb2>
80201b7c: 1b d5 b5 00  	srliw	a0, a1, 11
80201b80: 19 ed        	bnez	a0, 0x80201b9e <_ZN50_$LT$$RF$mut$u20$W$u20$as$u20$core..fmt..Write$GT$10write_char17hf0d505868795947eE.llvm.17772250532125793796+0x42>
80201b82: 13 d5 65 00  	srli	a0, a1, 6
80201b86: 13 65 05 0c  	ori	a0, a0, 192
80201b8a: 23 06 a4 fe  	sb	a0, -20(s0)
80201b8e: 13 f5 f5 03  	andi	a0, a1, 63
80201b92: 13 65 05 08  	ori	a0, a0, 128
80201b96: a3 06 a4 fe  	sb	a0, -19(s0)
80201b9a: 09 45        	li	a0, 2
80201b9c: 8d a8        	j	0x80201c0e <_ZN50_$LT$$RF$mut$u20$W$u20$as$u20$core..fmt..Write$GT$10write_char17hf0d505868795947eE.llvm.17772250532125793796+0xb2>
80201b9e: 1b d5 05 01  	srliw	a0, a1, 16
80201ba2: 05 e9        	bnez	a0, 0x80201bd2 <_ZN50_$LT$$RF$mut$u20$W$u20$as$u20$core..fmt..Write$GT$10write_char17hf0d505868795947eE.llvm.17772250532125793796+0x76>
80201ba4: 13 95 05 02  	slli	a0, a1, 32
80201ba8: 01 91        	srli	a0, a0, 32
80201baa: 1b d6 c5 00  	srliw	a2, a1, 12
80201bae: 13 66 06 0e  	ori	a2, a2, 224
80201bb2: 23 06 c4 fe  	sb	a2, -20(s0)
80201bb6: 52 15        	slli	a0, a0, 52
80201bb8: 69 91        	srli	a0, a0, 58
80201bba: 13 65 05 08  	ori	a0, a0, 128
80201bbe: a3 06 a4 fe  	sb	a0, -19(s0)
80201bc2: 13 f5 f5 03  	andi	a0, a1, 63
80201bc6: 13 65 05 08  	ori	a0, a0, 128
80201bca: 23 07 a4 fe  	sb	a0, -18(s0)
80201bce: 0d 45        	li	a0, 3
80201bd0: 3d a8        	j	0x80201c0e <_ZN50_$LT$$RF$mut$u20$W$u20$as$u20$core..fmt..Write$GT$10write_char17hf0d505868795947eE.llvm.17772250532125793796+0xb2>
80201bd2: 13 95 05 02  	slli	a0, a1, 32
80201bd6: 01 91        	srli	a0, a0, 32
80201bd8: 13 16 b5 02  	slli	a2, a0, 43
80201bdc: 75 92        	srli	a2, a2, 61
80201bde: 13 66 06 0f  	ori	a2, a2, 240
80201be2: 23 06 c4 fe  	sb	a2, -20(s0)
80201be6: 13 16 e5 02  	slli	a2, a0, 46
80201bea: 69 92        	srli	a2, a2, 58
80201bec: 13 66 06 08  	ori	a2, a2, 128
80201bf0: a3 06 c4 fe  	sb	a2, -19(s0)
80201bf4: 52 15        	slli	a0, a0, 52
80201bf6: 69 91        	srli	a0, a0, 58
80201bf8: 13 65 05 08  	ori	a0, a0, 128
80201bfc: 23 07 a4 fe  	sb	a0, -18(s0)
80201c00: 13 f5 f5 03  	andi	a0, a1, 63
80201c04: 13 65 05 08  	ori	a0, a0, 128
80201c08: a3 07 a4 fe  	sb	a0, -17(s0)
80201c0c: 11 45        	li	a0, 4
80201c0e: 93 06 c4 fe  	addi	a3, s0, -20
80201c12: 33 87 a6 00  	add	a4, a3, a0
80201c16: 13 03 f0 0d  	li	t1, 223
80201c1a: 13 08 00 0f  	li	a6, 240
80201c1e: b7 02 11 00  	lui	t0, 272
80201c22: 85 48        	li	a7, 1
80201c24: 01 a8        	j	0x80201c34 <_ZN50_$LT$$RF$mut$u20$W$u20$as$u20$core..fmt..Write$GT$10write_char17hf0d505868795947eE.llvm.17772250532125793796+0xd8>
80201c26: 85 06        	addi	a3, a3, 1
80201c28: 81 45        	li	a1, 0
80201c2a: 01 46        	li	a2, 0
80201c2c: 73 00 00 00  	ecall	
80201c30: 63 8f e6 04  	beq	a3, a4, 0x80201c8e <_ZN50_$LT$$RF$mut$u20$W$u20$as$u20$core..fmt..Write$GT$10write_char17hf0d505868795947eE.llvm.17772250532125793796+0x132>
80201c34: 83 85 06 00  	lb	a1, 0(a3)
80201c38: 13 f5 f5 0f  	andi	a0, a1, 255
80201c3c: e3 d5 05 fe  	bgez	a1, 0x80201c26 <_ZN50_$LT$$RF$mut$u20$W$u20$as$u20$core..fmt..Write$GT$10write_char17hf0d505868795947eE.llvm.17772250532125793796+0xca>
80201c40: 03 c6 16 00  	lbu	a2, 1(a3)
80201c44: 93 75 f5 01  	andi	a1, a0, 31
80201c48: 13 76 f6 03  	andi	a2, a2, 63
80201c4c: 63 77 a3 02  	bgeu	t1, a0, 0x80201c7a <_ZN50_$LT$$RF$mut$u20$W$u20$as$u20$core..fmt..Write$GT$10write_char17hf0d505868795947eE.llvm.17772250532125793796+0x11e>
80201c50: 83 c7 26 00  	lbu	a5, 2(a3)
80201c54: 1a 06        	slli	a2, a2, 6
80201c56: 93 f7 f7 03  	andi	a5, a5, 63
80201c5a: 5d 8e        	or	a2, a2, a5
80201c5c: 63 64 05 03  	bltu	a0, a6, 0x80201c84 <_ZN50_$LT$$RF$mut$u20$W$u20$as$u20$core..fmt..Write$GT$10write_char17hf0d505868795947eE.llvm.17772250532125793796+0x128>
80201c60: 03 c5 36 00  	lbu	a0, 3(a3)
80201c64: f6 15        	slli	a1, a1, 61
80201c66: ad 91        	srli	a1, a1, 43
80201c68: 1a 06        	slli	a2, a2, 6
80201c6a: 13 75 f5 03  	andi	a0, a0, 63
80201c6e: 51 8d        	or	a0, a0, a2
80201c70: 4d 8d        	or	a0, a0, a1
80201c72: 63 0e 55 00  	beq	a0, t0, 0x80201c8e <_ZN50_$LT$$RF$mut$u20$W$u20$as$u20$core..fmt..Write$GT$10write_char17hf0d505868795947eE.llvm.17772250532125793796+0x132>
80201c76: 91 06        	addi	a3, a3, 4
80201c78: 45 bf        	j	0x80201c28 <_ZN50_$LT$$RF$mut$u20$W$u20$as$u20$core..fmt..Write$GT$10write_char17hf0d505868795947eE.llvm.17772250532125793796+0xcc>
80201c7a: 89 06        	addi	a3, a3, 2
80201c7c: 13 95 65 00  	slli	a0, a1, 6
80201c80: 51 8d        	or	a0, a0, a2
80201c82: 5d b7        	j	0x80201c28 <_ZN50_$LT$$RF$mut$u20$W$u20$as$u20$core..fmt..Write$GT$10write_char17hf0d505868795947eE.llvm.17772250532125793796+0xcc>
80201c84: 8d 06        	addi	a3, a3, 3
80201c86: 13 95 c5 00  	slli	a0, a1, 12
80201c8a: 51 8d        	or	a0, a0, a2
80201c8c: 71 bf        	j	0x80201c28 <_ZN50_$LT$$RF$mut$u20$W$u20$as$u20$core..fmt..Write$GT$10write_char17hf0d505868795947eE.llvm.17772250532125793796+0xcc>
80201c8e: 01 45        	li	a0, 0
80201c90: e2 60        	ld	ra, 24(sp)
80201c92: 42 64        	ld	s0, 16(sp)
80201c94: 05 61        	addi	sp, sp, 32
80201c96: 82 80        	ret

0000000080201c98 <_ZN50_$LT$$RF$mut$u20$W$u20$as$u20$core..fmt..Write$GT$9write_fmt17hea6da6f03dcdd814E.llvm.17772250532125793796>:
80201c98: 5d 71        	addi	sp, sp, -80
80201c9a: 86 e4        	sd	ra, 72(sp)
80201c9c: a2 e0        	sd	s0, 64(sp)
80201c9e: 80 08        	addi	s0, sp, 80
80201ca0: 08 61        	ld	a0, 0(a0)
80201ca2: 90 75        	ld	a2, 40(a1)
80201ca4: 94 71        	ld	a3, 32(a1)
80201ca6: 23 3c a4 fa  	sd	a0, -72(s0)
80201caa: 23 34 c4 fe  	sd	a2, -24(s0)
80201cae: 23 30 d4 fe  	sd	a3, -32(s0)
80201cb2: 88 6d        	ld	a0, 24(a1)
80201cb4: 90 69        	ld	a2, 16(a1)
80201cb6: 94 65        	ld	a3, 8(a1)
80201cb8: 8c 61        	ld	a1, 0(a1)
80201cba: 23 3c a4 fc  	sd	a0, -40(s0)
80201cbe: 23 38 c4 fc  	sd	a2, -48(s0)
80201cc2: 23 34 d4 fc  	sd	a3, -56(s0)
80201cc6: 23 30 b4 fc  	sd	a1, -64(s0)

0000000080201cca <.LBB2_1>:
80201cca: 97 45 04 00  	auipc	a1, 68
80201cce: 93 85 65 37  	addi	a1, a1, 886
80201cd2: 13 05 84 fb  	addi	a0, s0, -72
80201cd6: 13 06 04 fc  	addi	a2, s0, -64
80201cda: 97 10 00 00  	auipc	ra, 1
80201cde: e7 80 c0 68  	jalr	1676(ra)
80201ce2: a6 60        	ld	ra, 72(sp)
80201ce4: 06 64        	ld	s0, 64(sp)
80201ce6: 61 61        	addi	sp, sp, 80
80201ce8: 82 80        	ret

0000000080201cea <_ZN50_$LT$$RF$mut$u20$W$u20$as$u20$core..fmt..Write$GT$9write_str17hff577ac6e379d064E.llvm.17772250532125793796>:
80201cea: 41 11        	addi	sp, sp, -16
80201cec: 06 e4        	sd	ra, 8(sp)
80201cee: 22 e0        	sd	s0, 0(sp)
80201cf0: 00 08        	addi	s0, sp, 16
80201cf2: 41 c2        	beqz	a2, 0x80201d72 <_ZN50_$LT$$RF$mut$u20$W$u20$as$u20$core..fmt..Write$GT$9write_str17hff577ac6e379d064E.llvm.17772250532125793796+0x88>
80201cf4: ae 86        	mv	a3, a1
80201cf6: 33 87 c5 00  	add	a4, a1, a2
80201cfa: 13 03 f0 0d  	li	t1, 223
80201cfe: 13 08 00 0f  	li	a6, 240
80201d02: b7 02 11 00  	lui	t0, 272
80201d06: 85 48        	li	a7, 1
80201d08: 01 a8        	j	0x80201d18 <_ZN50_$LT$$RF$mut$u20$W$u20$as$u20$core..fmt..Write$GT$9write_str17hff577ac6e379d064E.llvm.17772250532125793796+0x2e>
80201d0a: 85 06        	addi	a3, a3, 1
80201d0c: 81 45        	li	a1, 0
80201d0e: 01 46        	li	a2, 0
80201d10: 73 00 00 00  	ecall	
80201d14: 63 8f e6 04  	beq	a3, a4, 0x80201d72 <_ZN50_$LT$$RF$mut$u20$W$u20$as$u20$core..fmt..Write$GT$9write_str17hff577ac6e379d064E.llvm.17772250532125793796+0x88>
80201d18: 83 85 06 00  	lb	a1, 0(a3)
80201d1c: 13 f5 f5 0f  	andi	a0, a1, 255
80201d20: e3 d5 05 fe  	bgez	a1, 0x80201d0a <_ZN50_$LT$$RF$mut$u20$W$u20$as$u20$core..fmt..Write$GT$9write_str17hff577ac6e379d064E.llvm.17772250532125793796+0x20>
80201d24: 03 c6 16 00  	lbu	a2, 1(a3)
80201d28: 93 75 f5 01  	andi	a1, a0, 31
80201d2c: 13 76 f6 03  	andi	a2, a2, 63
80201d30: 63 77 a3 02  	bgeu	t1, a0, 0x80201d5e <_ZN50_$LT$$RF$mut$u20$W$u20$as$u20$core..fmt..Write$GT$9write_str17hff577ac6e379d064E.llvm.17772250532125793796+0x74>
80201d34: 83 c7 26 00  	lbu	a5, 2(a3)
80201d38: 1a 06        	slli	a2, a2, 6
80201d3a: 93 f7 f7 03  	andi	a5, a5, 63
80201d3e: 5d 8e        	or	a2, a2, a5
80201d40: 63 64 05 03  	bltu	a0, a6, 0x80201d68 <_ZN50_$LT$$RF$mut$u20$W$u20$as$u20$core..fmt..Write$GT$9write_str17hff577ac6e379d064E.llvm.17772250532125793796+0x7e>
80201d44: 03 c5 36 00  	lbu	a0, 3(a3)
80201d48: f6 15        	slli	a1, a1, 61
80201d4a: ad 91        	srli	a1, a1, 43
80201d4c: 1a 06        	slli	a2, a2, 6
80201d4e: 13 75 f5 03  	andi	a0, a0, 63
80201d52: 51 8d        	or	a0, a0, a2
80201d54: 4d 8d        	or	a0, a0, a1
80201d56: 63 0e 55 00  	beq	a0, t0, 0x80201d72 <_ZN50_$LT$$RF$mut$u20$W$u20$as$u20$core..fmt..Write$GT$9write_str17hff577ac6e379d064E.llvm.17772250532125793796+0x88>
80201d5a: 91 06        	addi	a3, a3, 4
80201d5c: 45 bf        	j	0x80201d0c <_ZN50_$LT$$RF$mut$u20$W$u20$as$u20$core..fmt..Write$GT$9write_str17hff577ac6e379d064E.llvm.17772250532125793796+0x22>
80201d5e: 89 06        	addi	a3, a3, 2
80201d60: 13 95 65 00  	slli	a0, a1, 6
80201d64: 51 8d        	or	a0, a0, a2
80201d66: 5d b7        	j	0x80201d0c <_ZN50_$LT$$RF$mut$u20$W$u20$as$u20$core..fmt..Write$GT$9write_str17hff577ac6e379d064E.llvm.17772250532125793796+0x22>
80201d68: 8d 06        	addi	a3, a3, 3
80201d6a: 13 95 c5 00  	slli	a0, a1, 12
80201d6e: 51 8d        	or	a0, a0, a2
80201d70: 71 bf        	j	0x80201d0c <_ZN50_$LT$$RF$mut$u20$W$u20$as$u20$core..fmt..Write$GT$9write_str17hff577ac6e379d064E.llvm.17772250532125793796+0x22>
80201d72: 01 45        	li	a0, 0
80201d74: a2 60        	ld	ra, 8(sp)
80201d76: 02 64        	ld	s0, 0(sp)
80201d78: 41 01        	addi	sp, sp, 16
80201d7a: 82 80        	ret

0000000080201d7c <_ZN4sel47console5print17hac8e0d72989ef035E>:
80201d7c: 5d 71        	addi	sp, sp, -80
80201d7e: 86 e4        	sd	ra, 72(sp)
80201d80: a2 e0        	sd	s0, 64(sp)
80201d82: 80 08        	addi	s0, sp, 80
80201d84: 0c 75        	ld	a1, 40(a0)
80201d86: 10 71        	ld	a2, 32(a0)
80201d88: 93 06 84 fe  	addi	a3, s0, -24
80201d8c: 23 38 d4 fa  	sd	a3, -80(s0)
80201d90: 23 30 b4 fe  	sd	a1, -32(s0)
80201d94: 23 3c c4 fc  	sd	a2, -40(s0)
80201d98: 0c 6d        	ld	a1, 24(a0)
80201d9a: 10 69        	ld	a2, 16(a0)
80201d9c: 14 65        	ld	a3, 8(a0)
80201d9e: 08 61        	ld	a0, 0(a0)
80201da0: 23 38 b4 fc  	sd	a1, -48(s0)
80201da4: 23 34 c4 fc  	sd	a2, -56(s0)
80201da8: 23 30 d4 fc  	sd	a3, -64(s0)
80201dac: 23 3c a4 fa  	sd	a0, -72(s0)

0000000080201db0 <.LBB4_3>:
80201db0: 97 45 04 00  	auipc	a1, 68
80201db4: 93 85 05 29  	addi	a1, a1, 656
80201db8: 13 05 04 fb  	addi	a0, s0, -80
80201dbc: 13 06 84 fb  	addi	a2, s0, -72
80201dc0: 97 10 00 00  	auipc	ra, 1
80201dc4: e7 80 60 5a  	jalr	1446(ra)
80201dc8: 09 e5        	bnez	a0, 0x80201dd2 <.LBB4_4>
80201dca: a6 60        	ld	ra, 72(sp)
80201dcc: 06 64        	ld	s0, 64(sp)
80201dce: 61 61        	addi	sp, sp, 80
80201dd0: 82 80        	ret

0000000080201dd2 <.LBB4_4>:
80201dd2: 17 45 04 00  	auipc	a0, 68
80201dd6: 13 05 e5 29  	addi	a0, a0, 670

0000000080201dda <.LBB4_5>:
80201dda: 97 46 04 00  	auipc	a3, 68
80201dde: 93 86 66 2c  	addi	a3, a3, 710

0000000080201de2 <.LBB4_6>:
80201de2: 17 47 04 00  	auipc	a4, 68
80201de6: 13 07 e7 2e  	addi	a4, a4, 750
80201dea: 93 05 b0 02  	li	a1, 43
80201dee: 13 06 84 fe  	addi	a2, s0, -24
80201df2: 97 10 00 00  	auipc	ra, 1
80201df6: e7 80 e0 f0  	jalr	-242(ra)
80201dfa: 00 00        	unimp	

0000000080201dfc <rust_begin_unwind>:
80201dfc: 6d 71        	addi	sp, sp, -272
80201dfe: 06 e6        	sd	ra, 264(sp)
80201e00: 22 e2        	sd	s0, 256(sp)
80201e02: a6 fd        	sd	s1, 248(sp)
80201e04: 00 0a        	addi	s0, sp, 272
80201e06: aa 84        	mv	s1, a0
80201e08: 97 10 00 00  	auipc	ra, 1
80201e0c: e7 80 a0 e5  	jalr	-422(ra)
80201e10: 15 e5        	bnez	a0, 0x80201e3c <.LBB0_10+0x16>
80201e12: 26 85        	mv	a0, s1
80201e14: 97 10 00 00  	auipc	ra, 1
80201e18: e7 80 a0 e4  	jalr	-438(ra)
80201e1c: 31 ed        	bnez	a0, 0x80201e78 <.LBB0_12+0x16>

0000000080201e1e <.LBB0_9>:
80201e1e: 17 45 04 00  	auipc	a0, 68
80201e22: 13 05 25 37  	addi	a0, a0, 882

0000000080201e26 <.LBB0_10>:
80201e26: 17 46 04 00  	auipc	a2, 68
80201e2a: 13 06 a6 3a  	addi	a2, a2, 938
80201e2e: 93 05 b0 02  	li	a1, 43
80201e32: 97 10 00 00  	auipc	ra, 1
80201e36: e7 80 20 e6  	jalr	-414(ra)
80201e3a: 00 00        	unimp	
80201e3c: 0c 61        	ld	a1, 0(a0)
80201e3e: 10 65        	ld	a2, 8(a0)
80201e40: 23 30 b4 f2  	sd	a1, -224(s0)
80201e44: 23 34 c4 f2  	sd	a2, -216(s0)
80201e48: 08 49        	lw	a0, 16(a0)
80201e4a: 23 2a a4 f2  	sw	a0, -204(s0)
80201e4e: 26 85        	mv	a0, s1
80201e50: 97 10 00 00  	auipc	ra, 1
80201e54: e7 80 e0 e0  	jalr	-498(ra)
80201e58: 7d e5        	bnez	a0, 0x80201f46 <.LBB0_18+0x24>

0000000080201e5a <.LBB0_11>:
80201e5a: 17 45 04 00  	auipc	a0, 68
80201e5e: 13 05 65 33  	addi	a0, a0, 822

0000000080201e62 <.LBB0_12>:
80201e62: 17 46 04 00  	auipc	a2, 68
80201e66: 13 06 e6 3d  	addi	a2, a2, 990
80201e6a: 93 05 b0 02  	li	a1, 43
80201e6e: 97 10 00 00  	auipc	ra, 1
80201e72: e7 80 60 e2  	jalr	-474(ra)
80201e76: 00 00        	unimp	
80201e78: 23 34 a4 fa  	sd	a0, -88(s0)
80201e7c: 13 05 84 fa  	addi	a0, s0, -88
80201e80: 23 38 a4 ee  	sd	a0, -272(s0)

0000000080201e84 <.LBB0_13>:
80201e84: 17 05 00 00  	auipc	a0, 0
80201e88: 13 05 c5 95  	addi	a0, a0, -1700
80201e8c: 23 3c a4 ee  	sd	a0, -264(s0)

0000000080201e90 <.LBB0_14>:
80201e90: 17 45 04 00  	auipc	a0, 68
80201e94: 13 05 05 2e  	addi	a0, a0, 736
80201e98: 23 38 a4 f4  	sd	a0, -176(s0)
80201e9c: 09 45        	li	a0, 2
80201e9e: 23 3c a4 f4  	sd	a0, -168(s0)
80201ea2: 23 30 04 f4  	sd	zero, -192(s0)
80201ea6: 13 05 04 ef  	addi	a0, s0, -272
80201eaa: 23 30 a4 f6  	sd	a0, -160(s0)
80201eae: 05 45        	li	a0, 1
80201eb0: 23 34 a4 f6  	sd	a0, -152(s0)
80201eb4: 7d 45        	li	a0, 31
80201eb6: 23 0a a4 f2  	sb	a0, -204(s0)
80201eba: 13 05 10 03  	li	a0, 49
80201ebe: 23 0c a4 f2  	sb	a0, -200(s0)
80201ec2: 13 05 44 f3  	addi	a0, s0, -204
80201ec6: 23 38 a4 f6  	sd	a0, -144(s0)

0000000080201eca <.LBB0_15>:
80201eca: 17 25 00 00  	auipc	a0, 2
80201ece: 13 05 c5 43  	addi	a0, a0, 1084
80201ed2: 23 3c a4 f6  	sd	a0, -136(s0)
80201ed6: 93 05 84 f3  	addi	a1, s0, -200
80201eda: 23 30 b4 f8  	sd	a1, -128(s0)
80201ede: 23 34 a4 f8  	sd	a0, -120(s0)
80201ee2: 13 05 04 f4  	addi	a0, s0, -192
80201ee6: 23 38 a4 f8  	sd	a0, -112(s0)

0000000080201eea <.LBB0_16>:
80201eea: 17 15 00 00  	auipc	a0, 1
80201eee: 13 05 a5 44  	addi	a0, a0, 1098
80201ef2: 23 3c a4 f8  	sd	a0, -104(s0)
80201ef6: 13 05 04 fe  	addi	a0, s0, -32
80201efa: 23 30 a4 f2  	sd	a0, -224(s0)
80201efe: 23 38 04 fa  	sd	zero, -80(s0)

0000000080201f02 <.LBB0_17>:
80201f02: 17 45 04 00  	auipc	a0, 68
80201f06: 13 05 e5 1f  	addi	a0, a0, 510
80201f0a: 23 30 a4 fc  	sd	a0, -64(s0)
80201f0e: 11 45        	li	a0, 4
80201f10: 23 34 a4 fc  	sd	a0, -56(s0)
80201f14: 13 05 04 f7  	addi	a0, s0, -144
80201f18: 23 38 a4 fc  	sd	a0, -48(s0)
80201f1c: 0d 45        	li	a0, 3
80201f1e: 23 3c a4 fc  	sd	a0, -40(s0)

0000000080201f22 <.LBB0_18>:
80201f22: 97 45 04 00  	auipc	a1, 68
80201f26: 93 85 e5 11  	addi	a1, a1, 286
80201f2a: 13 05 04 f2  	addi	a0, s0, -224
80201f2e: 13 06 04 fb  	addi	a2, s0, -80
80201f32: 97 10 00 00  	auipc	ra, 1
80201f36: e7 80 40 43  	jalr	1076(ra)
80201f3a: 75 e9        	bnez	a0, 0x8020202e <.LBB0_27>
80201f3c: 97 00 00 00  	auipc	ra, 0
80201f40: e7 80 00 a8  	jalr	-1408(ra)
80201f44: 00 00        	unimp	
80201f46: 23 3c a4 f2  	sd	a0, -200(s0)
80201f4a: 13 05 04 f2  	addi	a0, s0, -224
80201f4e: 23 30 a4 f4  	sd	a0, -192(s0)

0000000080201f52 <.LBB0_19>:
80201f52: 17 05 00 00  	auipc	a0, 0
80201f56: 13 05 65 8a  	addi	a0, a0, -1882
80201f5a: 23 34 a4 f4  	sd	a0, -184(s0)
80201f5e: 13 05 44 f3  	addi	a0, s0, -204
80201f62: 23 38 a4 f4  	sd	a0, -176(s0)

0000000080201f66 <.LBB0_20>:
80201f66: 17 25 00 00  	auipc	a0, 2
80201f6a: 13 05 25 3d  	addi	a0, a0, 978
80201f6e: 23 3c a4 f4  	sd	a0, -168(s0)
80201f72: 13 05 84 f3  	addi	a0, s0, -200
80201f76: 23 30 a4 f6  	sd	a0, -160(s0)

0000000080201f7a <.LBB0_21>:
80201f7a: 17 05 00 00  	auipc	a0, 0
80201f7e: 13 05 65 86  	addi	a0, a0, -1946
80201f82: 23 34 a4 f6  	sd	a0, -152(s0)

0000000080201f86 <.LBB0_22>:
80201f86: 17 45 04 00  	auipc	a0, 68
80201f8a: 13 05 a5 27  	addi	a0, a0, 634
80201f8e: 23 30 a4 f0  	sd	a0, -256(s0)
80201f92: 11 45        	li	a0, 4
80201f94: 23 34 a4 f0  	sd	a0, -248(s0)
80201f98: 23 38 04 ee  	sd	zero, -272(s0)
80201f9c: 93 05 04 f4  	addi	a1, s0, -192
80201fa0: 23 38 b4 f0  	sd	a1, -240(s0)
80201fa4: 8d 45        	li	a1, 3
80201fa6: 23 3c b4 f0  	sd	a1, -232(s0)
80201faa: 7d 46        	li	a2, 31
80201fac: 23 03 c4 fa  	sb	a2, -90(s0)
80201fb0: 13 06 10 03  	li	a2, 49
80201fb4: a3 03 c4 fa  	sb	a2, -89(s0)
80201fb8: 13 06 64 fa  	addi	a2, s0, -90
80201fbc: 23 38 c4 f6  	sd	a2, -144(s0)

0000000080201fc0 <.LBB0_23>:
80201fc0: 17 26 00 00  	auipc	a2, 2
80201fc4: 13 06 66 34  	addi	a2, a2, 838
80201fc8: 23 3c c4 f6  	sd	a2, -136(s0)
80201fcc: 93 06 74 fa  	addi	a3, s0, -89
80201fd0: 23 30 d4 f8  	sd	a3, -128(s0)
80201fd4: 23 34 c4 f8  	sd	a2, -120(s0)
80201fd8: 13 06 04 ef  	addi	a2, s0, -272
80201fdc: 23 38 c4 f8  	sd	a2, -112(s0)

0000000080201fe0 <.LBB0_24>:
80201fe0: 17 16 00 00  	auipc	a2, 1
80201fe4: 13 06 46 35  	addi	a2, a2, 852
80201fe8: 23 3c c4 f8  	sd	a2, -104(s0)
80201fec: 13 06 04 fe  	addi	a2, s0, -32
80201ff0: 23 34 c4 fa  	sd	a2, -88(s0)
80201ff4: 23 38 04 fa  	sd	zero, -80(s0)

0000000080201ff8 <.LBB0_25>:
80201ff8: 17 46 04 00  	auipc	a2, 68
80201ffc: 13 06 86 10  	addi	a2, a2, 264
80202000: 23 30 c4 fc  	sd	a2, -64(s0)
80202004: 23 34 a4 fc  	sd	a0, -56(s0)
80202008: 13 05 04 f7  	addi	a0, s0, -144
8020200c: 23 38 a4 fc  	sd	a0, -48(s0)
80202010: 23 3c b4 fc  	sd	a1, -40(s0)

0000000080202014 <.LBB0_26>:
80202014: 97 45 04 00  	auipc	a1, 68
80202018: 93 85 c5 02  	addi	a1, a1, 44
8020201c: 13 05 84 fa  	addi	a0, s0, -88
80202020: 13 06 04 fb  	addi	a2, s0, -80
80202024: 97 10 00 00  	auipc	ra, 1
80202028: e7 80 20 34  	jalr	834(ra)
8020202c: 01 d9        	beqz	a0, 0x80201f3c <.LBB0_18+0x1a>

000000008020202e <.LBB0_27>:
8020202e: 17 45 04 00  	auipc	a0, 68
80202032: 13 05 25 04  	addi	a0, a0, 66

0000000080202036 <.LBB0_28>:
80202036: 97 46 04 00  	auipc	a3, 68
8020203a: 93 86 a6 06  	addi	a3, a3, 106

000000008020203e <.LBB0_29>:
8020203e: 17 47 04 00  	auipc	a4, 68
80202042: 13 07 27 10  	addi	a4, a4, 258
80202046: 93 05 b0 02  	li	a1, 43
8020204a: 13 06 04 fe  	addi	a2, s0, -32
8020204e: 97 10 00 00  	auipc	ra, 1
80202052: e7 80 20 cb  	jalr	-846(ra)
80202056: 00 00        	unimp	

0000000080202058 <_ZN4spin4once13Once$LT$T$GT$9call_once17h69331856e0aa39a3E>:
80202058: 13 01 01 81  	addi	sp, sp, -2032
8020205c: 23 34 11 7e  	sd	ra, 2024(sp)
80202060: 23 30 81 7e  	sd	s0, 2016(sp)
80202064: 23 3c 91 7c  	sd	s1, 2008(sp)
80202068: 23 38 21 7d  	sd	s2, 2000(sp)
8020206c: 23 34 31 7d  	sd	s3, 1992(sp)
80202070: 23 30 41 7d  	sd	s4, 1984(sp)
80202074: 23 3c 51 7b  	sd	s5, 1976(sp)
80202078: 23 38 61 7b  	sd	s6, 1968(sp)
8020207c: 23 34 71 7b  	sd	s7, 1960(sp)
80202080: 23 30 81 7b  	sd	s8, 1952(sp)
80202084: 23 3c 91 79  	sd	s9, 1944(sp)
80202088: 23 38 a1 79  	sd	s10, 1936(sp)
8020208c: 23 34 b1 79  	sd	s11, 1928(sp)
80202090: 13 04 01 7f  	addi	s0, sp, 2032
80202094: 13 01 01 86  	addi	sp, sp, -1952
80202098: aa 89        	mv	s3, a0
8020209a: 0f 00 30 03  	fence	rw, rw
8020209e: 83 35 05 7a  	ld	a1, 1952(a0)
802020a2: 13 05 05 7a  	addi	a0, a0, 1952
802020a6: 0f 00 30 02  	fence	r, rw
802020aa: 63 92 05 2a  	bnez	a1, 0x8020234e <.LBB0_17+0xf4>
802020ae: 05 46        	li	a2, 1
802020b0: af 35 05 16  	lr.d.aqrl	a1, (a0)
802020b4: 81 e5        	bnez	a1, 0x802020bc <_ZN4spin4once13Once$LT$T$GT$9call_once17h69331856e0aa39a3E+0x64>
802020b6: af 36 c5 1e  	sc.d.aqrl	a3, a2, (a0)
802020ba: fd fa        	bnez	a3, 0x802020b0 <_ZN4spin4once13Once$LT$T$GT$9call_once17h69331856e0aa39a3E+0x58>
802020bc: 63 99 05 28  	bnez	a1, 0x8020234e <.LBB0_17+0xf4>
802020c0: fd 76        	lui	a3, 1048575
802020c2: 9b 86 06 08  	addiw	a3, a3, 128
802020c6: a2 96        	add	a3, a3, s0
802020c8: 88 e2        	sd	a0, 0(a3)
802020ca: 7d 75        	lui	a0, 1048575
802020cc: 1b 05 85 08  	addiw	a0, a0, 136
802020d0: 22 95        	add	a0, a0, s0
802020d2: 23 00 c5 00  	sb	a2, 0(a0)

00000000802020d6 <.LBB0_14>:
802020d6: 17 55 04 00  	auipc	a0, 69
802020da: 13 05 a5 f2  	addi	a0, a0, -214
802020de: 83 3a 05 00  	ld	s5, 0(a0)
802020e2: 13 09 84 f1  	addi	s2, s0, -232
802020e6: 13 0a 84 88  	addi	s4, s0, -1912
802020ea: 13 05 04 81  	addi	a0, s0, -2032
802020ee: 13 06 10 07  	li	a2, 113
802020f2: 97 20 00 00  	auipc	ra, 2
802020f6: e7 80 a0 41  	jalr	1050(ra)
802020fa: 93 04 04 90  	addi	s1, s0, -1792
802020fe: 13 06 10 07  	li	a2, 113
80202102: 52 85        	mv	a0, s4
80202104: 81 45        	li	a1, 0
80202106: 97 20 00 00  	auipc	ra, 2
8020210a: e7 80 60 40  	jalr	1030(ra)
8020210e: 13 0a 84 97  	addi	s4, s0, -1672
80202112: 13 06 10 07  	li	a2, 113
80202116: 26 85        	mv	a0, s1
80202118: 81 45        	li	a1, 0
8020211a: 97 20 00 00  	auipc	ra, 2
8020211e: e7 80 20 3f  	jalr	1010(ra)
80202122: 93 04 04 9f  	addi	s1, s0, -1552
80202126: 13 06 10 07  	li	a2, 113
8020212a: 52 85        	mv	a0, s4
8020212c: 81 45        	li	a1, 0
8020212e: 97 20 00 00  	auipc	ra, 2
80202132: e7 80 e0 3d  	jalr	990(ra)
80202136: 13 0a 84 a6  	addi	s4, s0, -1432
8020213a: 13 06 10 07  	li	a2, 113
8020213e: 26 85        	mv	a0, s1
80202140: 81 45        	li	a1, 0
80202142: 97 20 00 00  	auipc	ra, 2
80202146: e7 80 a0 3c  	jalr	970(ra)
8020214a: 93 04 04 ae  	addi	s1, s0, -1312
8020214e: 13 06 10 07  	li	a2, 113
80202152: 52 85        	mv	a0, s4
80202154: 81 45        	li	a1, 0
80202156: 97 20 00 00  	auipc	ra, 2
8020215a: e7 80 60 3b  	jalr	950(ra)
8020215e: 13 0a 84 b5  	addi	s4, s0, -1192
80202162: 13 06 10 07  	li	a2, 113
80202166: 26 85        	mv	a0, s1
80202168: 81 45        	li	a1, 0
8020216a: 97 20 00 00  	auipc	ra, 2
8020216e: e7 80 20 3a  	jalr	930(ra)
80202172: 93 04 04 bd  	addi	s1, s0, -1072
80202176: 13 06 10 07  	li	a2, 113
8020217a: 52 85        	mv	a0, s4
8020217c: 81 45        	li	a1, 0
8020217e: 97 20 00 00  	auipc	ra, 2
80202182: e7 80 e0 38  	jalr	910(ra)
80202186: 13 0a 84 c4  	addi	s4, s0, -952
8020218a: 13 06 10 07  	li	a2, 113
8020218e: 26 85        	mv	a0, s1
80202190: 81 45        	li	a1, 0
80202192: 97 20 00 00  	auipc	ra, 2
80202196: e7 80 a0 37  	jalr	890(ra)
8020219a: 93 04 04 cc  	addi	s1, s0, -832
8020219e: 13 06 10 07  	li	a2, 113
802021a2: 52 85        	mv	a0, s4
802021a4: 81 45        	li	a1, 0
802021a6: 97 20 00 00  	auipc	ra, 2
802021aa: e7 80 60 36  	jalr	870(ra)
802021ae: 13 0a 84 d3  	addi	s4, s0, -712
802021b2: 13 06 10 07  	li	a2, 113
802021b6: 26 85        	mv	a0, s1
802021b8: 81 45        	li	a1, 0
802021ba: 97 20 00 00  	auipc	ra, 2
802021be: e7 80 20 35  	jalr	850(ra)
802021c2: 93 04 04 db  	addi	s1, s0, -592
802021c6: 13 06 10 07  	li	a2, 113
802021ca: 52 85        	mv	a0, s4
802021cc: 81 45        	li	a1, 0
802021ce: 97 20 00 00  	auipc	ra, 2
802021d2: e7 80 e0 33  	jalr	830(ra)
802021d6: 13 0a 84 e2  	addi	s4, s0, -472
802021da: 13 06 10 07  	li	a2, 113
802021de: 26 85        	mv	a0, s1
802021e0: 81 45        	li	a1, 0
802021e2: 97 20 00 00  	auipc	ra, 2
802021e6: e7 80 a0 32  	jalr	810(ra)
802021ea: 93 04 04 ea  	addi	s1, s0, -352
802021ee: 13 06 10 07  	li	a2, 113
802021f2: 52 85        	mv	a0, s4
802021f4: 81 45        	li	a1, 0
802021f6: 97 20 00 00  	auipc	ra, 2
802021fa: e7 80 60 31  	jalr	790(ra)
802021fe: 13 06 10 07  	li	a2, 113
80202202: 26 85        	mv	a0, s1
80202204: 81 45        	li	a1, 0
80202206: 97 20 00 00  	auipc	ra, 2
8020220a: e7 80 60 30  	jalr	774(ra)
8020220e: 13 06 10 07  	li	a2, 113
80202212: 4a 85        	mv	a0, s2
80202214: 81 45        	li	a1, 0
80202216: 97 20 00 00  	auipc	ra, 2
8020221a: e7 80 60 2f  	jalr	758(ra)
8020221e: 7d 75        	lui	a0, 1048575
80202220: 1b 05 85 07  	addiw	a0, a0, 120
80202224: 22 95        	add	a0, a0, s0
80202226: 23 30 55 01  	sd	s5, 0(a0)
8020222a: 63 88 0a 0a  	beqz	s5, 0x802022da <.LBB0_17+0x80>
8020222e: 81 4b        	li	s7, 0

0000000080202230 <.LBB0_15>:
80202230: 17 45 02 00  	auipc	a0, 36
80202234: 13 05 05 dd  	addi	a0, a0, -560
80202238: 09 6c        	lui	s8, 2
8020223a: 33 09 85 01  	add	s2, a0, s8

000000008020223e <.LBB0_16>:
8020223e: 17 45 00 00  	auipc	a0, 4
80202242: 13 05 25 dc  	addi	a0, a0, -574
80202246: 9b 05 0c ef  	addiw	a1, s8, -272
8020224a: b3 04 b5 00  	add	s1, a0, a1
8020224e: 13 05 10 20  	li	a0, 513
80202252: 13 1a 65 01  	slli	s4, a0, 22
80202256: 93 0c 00 78  	li	s9, 1920

000000008020225a <.LBB0_17>:
8020225a: 17 fd ff ff  	auipc	s10, 1048575
8020225e: 13 0d 6d 07  	addi	s10, s10, 118
80202262: b7 0a 02 00  	lui	s5, 32
80202266: 7d 75        	lui	a0, 1048575
80202268: 1b 05 85 07  	addiw	a0, a0, 120
8020226c: 22 95        	add	a0, a0, s0
8020226e: 03 3b 05 00  	ld	s6, 0(a0)
80202272: 63 84 9b 07  	beq	s7, s9, 0x802022da <.LBB0_17+0x80>
80202276: 13 05 04 81  	addi	a0, s0, -2032
8020227a: b3 0d 75 01  	add	s11, a0, s7
8020227e: 7d 1b        	addi	s6, s6, -1
80202280: 7d 75        	lui	a0, 1048575
80202282: 1b 05 05 09  	addiw	a0, a0, 144
80202286: 22 95        	add	a0, a0, s0
80202288: d2 85        	mv	a1, s4
8020228a: 4a 86        	mv	a2, s2
8020228c: 97 f0 ff ff  	auipc	ra, 1048575
80202290: e7 80 00 48  	jalr	1152(ra)
80202294: 7d 75        	lui	a0, 1048575
80202296: 1b 05 05 09  	addiw	a0, a0, 144
8020229a: b3 05 a4 00  	add	a1, s0, a0
8020229e: 13 06 00 11  	li	a2, 272
802022a2: 26 85        	mv	a0, s1
802022a4: 97 20 00 00  	auipc	ra, 2
802022a8: e7 80 60 38  	jalr	902(ra)
802022ac: 23 b0 ad 01  	sd	s10, 0(s11)
802022b0: 23 b4 9d 00  	sd	s1, 8(s11)
802022b4: 13 85 0d 01  	addi	a0, s11, 16
802022b8: 13 06 00 06  	li	a2, 96
802022bc: 81 45        	li	a1, 0
802022be: 97 20 00 00  	auipc	ra, 2
802022c2: e7 80 e0 24  	jalr	590(ra)
802022c6: 05 45        	li	a0, 1
802022c8: 23 88 ad 06  	sb	a0, 112(s11)
802022cc: 93 8b 8b 07  	addi	s7, s7, 120
802022d0: e2 94        	add	s1, s1, s8
802022d2: 56 9a        	add	s4, s4, s5
802022d4: 62 99        	add	s2, s2, s8
802022d6: e3 1e 0b f8  	bnez	s6, 0x80202272 <.LBB0_17+0x18>
802022da: 7d 75        	lui	a0, 1048575
802022dc: 1b 05 05 09  	addiw	a0, a0, 144
802022e0: 22 95        	add	a0, a0, s0
802022e2: 93 05 04 81  	addi	a1, s0, -2032
802022e6: 13 06 00 78  	li	a2, 1920
802022ea: 97 20 00 00  	auipc	ra, 2
802022ee: e7 80 00 34  	jalr	832(ra)
802022f2: 05 45        	li	a0, 1
802022f4: 23 b0 a9 00  	sd	a0, 0(s3)
802022f8: 23 b4 09 00  	sd	zero, 8(s3)
802022fc: 13 85 09 01  	addi	a0, s3, 16
80202300: fd 75        	lui	a1, 1048575
80202302: 9b 85 05 09  	addiw	a1, a1, 144
80202306: a2 95        	add	a1, a1, s0
80202308: 13 06 00 78  	li	a2, 1920
8020230c: 97 20 00 00  	auipc	ra, 2
80202310: e7 80 e0 31  	jalr	798(ra)
80202314: 23 b8 09 78  	sd	zero, 1936(s3)
80202318: 7d 75        	lui	a0, 1048575
8020231a: 1b 05 85 07  	addiw	a0, a0, 120
8020231e: 22 95        	add	a0, a0, s0
80202320: 08 61        	ld	a0, 0(a0)
80202322: 23 bc a9 78  	sd	a0, 1944(s3)
80202326: 7d 75        	lui	a0, 1048575
80202328: 1b 05 85 08  	addiw	a0, a0, 136
8020232c: 22 95        	add	a0, a0, s0
8020232e: 23 00 05 00  	sb	zero, 0(a0)
80202332: 0f 00 10 03  	fence	rw, w
80202336: 09 45        	li	a0, 2
80202338: 23 b0 a9 7a  	sd	a0, 1952(s3)
8020233c: 7d 75        	lui	a0, 1048575
8020233e: 1b 05 05 08  	addiw	a0, a0, 128
80202342: 22 95        	add	a0, a0, s0
80202344: 97 00 00 00  	auipc	ra, 0
80202348: e7 80 00 63  	jalr	1584(ra)
8020234c: 05 a0        	j	0x8020236c <.LBB0_17+0x112>
8020234e: 05 46        	li	a2, 1
80202350: 63 9b c5 00  	bne	a1, a2, 0x80202366 <.LBB0_17+0x10c>
80202354: 0f 00 00 01  	fence	w, 0
80202358: 0f 00 30 03  	fence	rw, rw
8020235c: 0c 61        	ld	a1, 0(a0)
8020235e: 0f 00 30 02  	fence	r, rw
80202362: e3 89 c5 fe  	beq	a1, a2, 0x80202354 <.LBB0_17+0xfa>
80202366: 09 45        	li	a0, 2
80202368: 63 93 a5 04  	bne	a1, a0, 0x802023ae <.LBB0_17+0x154>
8020236c: 13 85 89 00  	addi	a0, s3, 8
80202370: 13 01 01 7a  	addi	sp, sp, 1952
80202374: 83 30 81 7e  	ld	ra, 2024(sp)
80202378: 03 34 01 7e  	ld	s0, 2016(sp)
8020237c: 83 34 81 7d  	ld	s1, 2008(sp)
80202380: 03 39 01 7d  	ld	s2, 2000(sp)
80202384: 83 39 81 7c  	ld	s3, 1992(sp)
80202388: 03 3a 01 7c  	ld	s4, 1984(sp)
8020238c: 83 3a 81 7b  	ld	s5, 1976(sp)
80202390: 03 3b 01 7b  	ld	s6, 1968(sp)
80202394: 83 3b 81 7a  	ld	s7, 1960(sp)
80202398: 03 3c 01 7a  	ld	s8, 1952(sp)
8020239c: 83 3c 81 79  	ld	s9, 1944(sp)
802023a0: 03 3d 01 79  	ld	s10, 1936(sp)
802023a4: 83 3d 81 78  	ld	s11, 1928(sp)
802023a8: 13 01 01 7f  	addi	sp, sp, 2032
802023ac: 82 80        	ret
802023ae: 85 e1        	bnez	a1, 0x802023ce <.LBB0_20>

00000000802023b0 <.LBB0_18>:
802023b0: 17 45 04 00  	auipc	a0, 68
802023b4: 13 05 85 f2  	addi	a0, a0, -216

00000000802023b8 <.LBB0_19>:
802023b8: 17 46 04 00  	auipc	a2, 68
802023bc: 13 06 86 f4  	addi	a2, a2, -184
802023c0: 93 05 80 02  	li	a1, 40
802023c4: 97 10 00 00  	auipc	ra, 1
802023c8: e7 80 00 8d  	jalr	-1840(ra)
802023cc: 00 00        	unimp	

00000000802023ce <.LBB0_20>:
802023ce: 17 45 04 00  	auipc	a0, 68
802023d2: 13 05 a5 e8  	addi	a0, a0, -374

00000000802023d6 <.LBB0_21>:
802023d6: 17 46 04 00  	auipc	a2, 68
802023da: 13 06 a6 ee  	addi	a2, a2, -278
802023de: c5 45        	li	a1, 17
802023e0: 97 10 00 00  	auipc	ra, 1
802023e4: e7 80 40 8b  	jalr	-1868(ra)
802023e8: 00 00        	unimp	

00000000802023ea <_ZN4sel47syscall7process8sys_exit17hfad03a5e0ed4186aE>:
802023ea: 1d 71        	addi	sp, sp, -96
802023ec: 86 ec        	sd	ra, 88(sp)
802023ee: a2 e8        	sd	s0, 80(sp)
802023f0: 80 10        	addi	s0, sp, 96
802023f2: 23 26 a4 fa  	sw	a0, -84(s0)

00000000802023f6 <.LBB0_3>:
802023f6: 17 65 28 00  	auipc	a0, 646
802023fa: 13 05 25 4e  	addi	a0, a0, 1250
802023fe: 08 61        	ld	a0, 0(a0)
80202400: 89 45        	li	a1, 2
80202402: 63 f9 a5 04  	bgeu	a1, a0, 0x80202454 <.LBB0_6+0x18>
80202406: 13 05 c4 fa  	addi	a0, s0, -84
8020240a: 23 38 a4 fa  	sd	a0, -80(s0)

000000008020240e <.LBB0_4>:
8020240e: 17 25 00 00  	auipc	a0, 2
80202412: 13 05 85 f0  	addi	a0, a0, -248
80202416: 23 3c a4 fa  	sd	a0, -72(s0)

000000008020241a <.LBB0_5>:
8020241a: 17 45 04 00  	auipc	a0, 68
8020241e: 13 05 65 f2  	addi	a0, a0, -218
80202422: 23 38 a4 fc  	sd	a0, -48(s0)
80202426: 05 45        	li	a0, 1
80202428: 23 3c a4 fc  	sd	a0, -40(s0)
8020242c: 23 30 04 fc  	sd	zero, -64(s0)
80202430: 93 05 04 fb  	addi	a1, s0, -80
80202434: 23 30 b4 fe  	sd	a1, -32(s0)
80202438: 23 34 a4 fe  	sd	a0, -24(s0)

000000008020243c <.LBB0_6>:
8020243c: 17 46 04 00  	auipc	a2, 68
80202440: 13 06 46 f4  	addi	a2, a2, -188
80202444: 13 05 04 fc  	addi	a0, s0, -64
80202448: 8d 45        	li	a1, 3
8020244a: 81 46        	li	a3, 0
8020244c: 97 00 00 00  	auipc	ra, 0
80202450: e7 80 e0 6f  	jalr	1790(ra)
80202454: 97 f0 ff ff  	auipc	ra, 1048575
80202458: e7 80 40 d9  	jalr	-620(ra)

000000008020245c <.LBB0_7>:
8020245c: 17 45 04 00  	auipc	a0, 68
80202460: 13 05 45 f7  	addi	a0, a0, -140
80202464: 23 38 a4 fc  	sd	a0, -48(s0)
80202468: 05 45        	li	a0, 1
8020246a: 23 3c a4 fc  	sd	a0, -40(s0)
8020246e: 23 30 04 fc  	sd	zero, -64(s0)

0000000080202472 <.LBB0_8>:
80202472: 17 45 04 00  	auipc	a0, 68
80202476: 13 05 65 ea  	addi	a0, a0, -346
8020247a: 23 30 a4 fe  	sd	a0, -32(s0)
8020247e: 23 34 04 fe  	sd	zero, -24(s0)

0000000080202482 <.LBB0_9>:
80202482: 97 45 04 00  	auipc	a1, 68
80202486: 93 85 e5 f5  	addi	a1, a1, -162
8020248a: 13 05 04 fc  	addi	a0, s0, -64
8020248e: 97 00 00 00  	auipc	ra, 0
80202492: e7 80 80 7d  	jalr	2008(ra)
80202496: 00 00        	unimp	

0000000080202498 <_ZN4core3ptr48drop_in_place$LT$core..str..error..Utf8Error$GT$17h9e31f42c699c2e38E.llvm.6996887517489924600>:
80202498: 41 11        	addi	sp, sp, -16
8020249a: 06 e4        	sd	ra, 8(sp)
8020249c: 22 e0        	sd	s0, 0(sp)
8020249e: 00 08        	addi	s0, sp, 16
802024a0: a2 60        	ld	ra, 8(sp)
802024a2: 02 64        	ld	s0, 0(sp)
802024a4: 41 01        	addi	sp, sp, 16
802024a6: 82 80        	ret

00000000802024a8 <_ZN4sel47syscall2fs9sys_write17hdd3ca81d921860cdE>:
802024a8: 19 71        	addi	sp, sp, -128
802024aa: 86 fc        	sd	ra, 120(sp)
802024ac: a2 f8        	sd	s0, 112(sp)
802024ae: a6 f4        	sd	s1, 104(sp)
802024b0: 00 01        	addi	s0, sp, 128
802024b2: 85 46        	li	a3, 1
802024b4: 63 16 d5 08  	bne	a0, a3, 0x80202540 <.LBB1_10>
802024b8: b2 84        	mv	s1, a2
802024ba: 13 05 04 fb  	addi	a0, s0, -80
802024be: 97 10 00 00  	auipc	ra, 1
802024c2: e7 80 40 6e  	jalr	1764(ra)
802024c6: 03 35 04 fb  	ld	a0, -80(s0)
802024ca: 45 e9        	bnez	a0, 0x8020257a <.LBB1_12+0x16>
802024cc: 03 35 84 fb  	ld	a0, -72(s0)
802024d0: 83 35 04 fc  	ld	a1, -64(s0)
802024d4: 23 34 a4 f8  	sd	a0, -120(s0)
802024d8: 23 38 b4 f8  	sd	a1, -112(s0)
802024dc: 13 05 84 f8  	addi	a0, s0, -120
802024e0: 23 3c a4 f8  	sd	a0, -104(s0)

00000000802024e4 <.LBB1_7>:
802024e4: 17 f5 ff ff  	auipc	a0, 1048575
802024e8: 13 05 45 31  	addi	a0, a0, 788
802024ec: 23 30 a4 fa  	sd	a0, -96(s0)
802024f0: 13 05 04 fe  	addi	a0, s0, -32
802024f4: 23 34 a4 fa  	sd	a0, -88(s0)
802024f8: 23 38 04 fa  	sd	zero, -80(s0)

00000000802024fc <.LBB1_8>:
802024fc: 17 45 04 00  	auipc	a0, 68
80202500: 13 05 45 fc  	addi	a0, a0, -60
80202504: 23 30 a4 fc  	sd	a0, -64(s0)
80202508: 05 45        	li	a0, 1
8020250a: 23 34 a4 fc  	sd	a0, -56(s0)
8020250e: 93 05 84 f9  	addi	a1, s0, -104
80202512: 23 38 b4 fc  	sd	a1, -48(s0)
80202516: 23 3c a4 fc  	sd	a0, -40(s0)

000000008020251a <.LBB1_9>:
8020251a: 97 45 04 00  	auipc	a1, 68
8020251e: 93 85 65 b2  	addi	a1, a1, -1242
80202522: 13 05 84 fa  	addi	a0, s0, -88
80202526: 13 06 04 fb  	addi	a2, s0, -80
8020252a: 97 10 00 00  	auipc	ra, 1
8020252e: e7 80 c0 e3  	jalr	-452(ra)
80202532: 49 e1        	bnez	a0, 0x802025b4 <.LBB1_16>
80202534: 26 85        	mv	a0, s1
80202536: e6 70        	ld	ra, 120(sp)
80202538: 46 74        	ld	s0, 112(sp)
8020253a: a6 74        	ld	s1, 104(sp)
8020253c: 09 61        	addi	sp, sp, 128
8020253e: 82 80        	ret

0000000080202540 <.LBB1_10>:
80202540: 17 45 04 00  	auipc	a0, 68
80202544: 13 05 85 ed  	addi	a0, a0, -296
80202548: 23 30 a4 fc  	sd	a0, -64(s0)
8020254c: 23 34 d4 fc  	sd	a3, -56(s0)
80202550: 23 38 04 fa  	sd	zero, -80(s0)

0000000080202554 <.LBB1_11>:
80202554: 17 45 04 00  	auipc	a0, 68
80202558: 13 05 45 ea  	addi	a0, a0, -348
8020255c: 23 38 a4 fc  	sd	a0, -48(s0)
80202560: 23 3c 04 fc  	sd	zero, -40(s0)

0000000080202564 <.LBB1_12>:
80202564: 97 45 04 00  	auipc	a1, 68
80202568: 93 85 c5 ed  	addi	a1, a1, -292
8020256c: 13 05 04 fb  	addi	a0, s0, -80
80202570: 97 00 00 00  	auipc	ra, 0
80202574: e7 80 60 6f  	jalr	1782(ra)
80202578: 00 00        	unimp	
8020257a: 03 35 04 fc  	ld	a0, -64(s0)
8020257e: 83 35 84 fb  	ld	a1, -72(s0)
80202582: 23 30 a4 fa  	sd	a0, -96(s0)
80202586: 23 3c b4 f8  	sd	a1, -104(s0)

000000008020258a <.LBB1_13>:
8020258a: 17 45 04 00  	auipc	a0, 68
8020258e: 13 05 e5 ec  	addi	a0, a0, -306

0000000080202592 <.LBB1_14>:
80202592: 97 46 04 00  	auipc	a3, 68
80202596: 93 86 66 ef  	addi	a3, a3, -266

000000008020259a <.LBB1_15>:
8020259a: 17 47 04 00  	auipc	a4, 68
8020259e: 13 07 e7 f0  	addi	a4, a4, -242
802025a2: 93 05 b0 02  	li	a1, 43
802025a6: 13 06 84 f9  	addi	a2, s0, -104
802025aa: 97 00 00 00  	auipc	ra, 0
802025ae: e7 80 60 75  	jalr	1878(ra)
802025b2: 00 00        	unimp	

00000000802025b4 <.LBB1_16>:
802025b4: 17 45 04 00  	auipc	a0, 68
802025b8: 13 05 c5 ab  	addi	a0, a0, -1348

00000000802025bc <.LBB1_17>:
802025bc: 97 46 04 00  	auipc	a3, 68
802025c0: 93 86 46 ae  	addi	a3, a3, -1308

00000000802025c4 <.LBB1_18>:
802025c4: 17 47 04 00  	auipc	a4, 68
802025c8: 13 07 c7 b0  	addi	a4, a4, -1268
802025cc: 93 05 b0 02  	li	a1, 43
802025d0: 13 06 04 fe  	addi	a2, s0, -32
802025d4: 97 00 00 00  	auipc	ra, 0
802025d8: e7 80 c0 72  	jalr	1836(ra)
802025dc: 00 00        	unimp	

00000000802025de <_ZN42_$LT$$RF$T$u20$as$u20$core..fmt..Debug$GT$3fmt17h1aa85e0efa9af46fE>:
802025de: 41 11        	addi	sp, sp, -16
802025e0: 06 e4        	sd	ra, 8(sp)
802025e2: 22 e0        	sd	s0, 0(sp)
802025e4: 00 08        	addi	s0, sp, 16
802025e6: 08 61        	ld	a0, 0(a0)
802025e8: a2 60        	ld	ra, 8(sp)
802025ea: 02 64        	ld	s0, 0(sp)
802025ec: 41 01        	addi	sp, sp, 16
802025ee: 17 03 00 00  	auipc	t1, 0
802025f2: 67 00 a3 1f  	jr	506(t1)

00000000802025f6 <_ZN42_$LT$$RF$T$u20$as$u20$core..fmt..Debug$GT$3fmt17h86b16270b9ff9e69E>:
802025f6: 41 11        	addi	sp, sp, -16
802025f8: 06 e4        	sd	ra, 8(sp)
802025fa: 22 e0        	sd	s0, 0(sp)
802025fc: 00 08        	addi	s0, sp, 16
802025fe: 08 61        	ld	a0, 0(a0)
80202600: a2 60        	ld	ra, 8(sp)
80202602: 02 64        	ld	s0, 0(sp)
80202604: 41 01        	addi	sp, sp, 16
80202606: 17 03 00 00  	auipc	t1, 0
8020260a: 67 00 43 0d  	jr	212(t1)

000000008020260e <_ZN4core3ptr59drop_in_place$LT$$RF$riscv..register..scause..Exception$GT$17h8c4d5c89b0bc32b4E>:
8020260e: 41 11        	addi	sp, sp, -16
80202610: 06 e4        	sd	ra, 8(sp)
80202612: 22 e0        	sd	s0, 0(sp)
80202614: 00 08        	addi	s0, sp, 16
80202616: a2 60        	ld	ra, 8(sp)
80202618: 02 64        	ld	s0, 0(sp)
8020261a: 41 01        	addi	sp, sp, 16
8020261c: 82 80        	ret

000000008020261e <_ZN5riscv8register6scause9Interrupt4from17ha9a0ca98bcff293eE>:
8020261e: 29 46        	li	a2, 10
80202620: a5 45        	li	a1, 9
80202622: 63 60 a6 02  	bltu	a2, a0, 0x80202642 <.LBB3_3+0x14>
80202626: 41 11        	addi	sp, sp, -16
80202628: 06 e4        	sd	ra, 8(sp)
8020262a: 22 e0        	sd	s0, 0(sp)
8020262c: 00 08        	addi	s0, sp, 16

000000008020262e <.LBB3_3>:
8020262e: 97 45 04 00  	auipc	a1, 68
80202632: 93 85 65 16  	addi	a1, a1, 358
80202636: 2e 95        	add	a0, a0, a1
80202638: 83 45 05 00  	lbu	a1, 0(a0)
8020263c: a2 60        	ld	ra, 8(sp)
8020263e: 02 64        	ld	s0, 0(sp)
80202640: 41 01        	addi	sp, sp, 16
80202642: 2e 85        	mv	a0, a1
80202644: 82 80        	ret

0000000080202646 <_ZN5riscv8register6scause9Exception4from17hbf61d6d58c7966ffE>:
80202646: 5d 46        	li	a2, 23
80202648: c1 45        	li	a1, 16
8020264a: 63 60 a6 02  	bltu	a2, a0, 0x8020266a <.LBB4_3+0x14>
8020264e: 41 11        	addi	sp, sp, -16
80202650: 06 e4        	sd	ra, 8(sp)
80202652: 22 e0        	sd	s0, 0(sp)
80202654: 00 08        	addi	s0, sp, 16

0000000080202656 <.LBB4_3>:
80202656: 97 45 04 00  	auipc	a1, 68
8020265a: 93 85 95 14  	addi	a1, a1, 329
8020265e: 2e 95        	add	a0, a0, a1
80202660: 83 45 05 00  	lbu	a1, 0(a0)
80202664: a2 60        	ld	ra, 8(sp)
80202666: 02 64        	ld	s0, 0(sp)
80202668: 41 01        	addi	sp, sp, 16
8020266a: 2e 85        	mv	a0, a1
8020266c: 82 80        	ret

000000008020266e <_ZN5riscv8register6scause6Scause4code17h67514d7fe44e35d2E>:
8020266e: 41 11        	addi	sp, sp, -16
80202670: 06 e4        	sd	ra, 8(sp)
80202672: 22 e0        	sd	s0, 0(sp)
80202674: 00 08        	addi	s0, sp, 16
80202676: 08 61        	ld	a0, 0(a0)
80202678: 06 05        	slli	a0, a0, 1
8020267a: 05 81        	srli	a0, a0, 1
8020267c: a2 60        	ld	ra, 8(sp)
8020267e: 02 64        	ld	s0, 0(sp)
80202680: 41 01        	addi	sp, sp, 16
80202682: 82 80        	ret

0000000080202684 <_ZN66_$LT$riscv..register..scause..Trap$u20$as$u20$core..fmt..Debug$GT$3fmt17hd2a7a3623887e373E>:
80202684: 01 11        	addi	sp, sp, -32
80202686: 06 ec        	sd	ra, 24(sp)
80202688: 22 e8        	sd	s0, 16(sp)
8020268a: 00 10        	addi	s0, sp, 32
8020268c: 2a 86        	mv	a2, a0
8020268e: 83 46 05 00  	lbu	a3, 0(a0)
80202692: 2e 85        	mv	a0, a1
80202694: 93 05 16 00  	addi	a1, a2, 1
80202698: 81 ce        	beqz	a3, 0x802026b0 <.LBB6_5+0xa>
8020269a: 23 34 b4 fe  	sd	a1, -24(s0)

000000008020269e <.LBB6_4>:
8020269e: 97 45 04 00  	auipc	a1, 68
802026a2: 93 85 a5 f0  	addi	a1, a1, -246

00000000802026a6 <.LBB6_5>:
802026a6: 17 47 04 00  	auipc	a4, 68
802026aa: 13 07 27 f1  	addi	a4, a4, -238
802026ae: 19 a8        	j	0x802026c4 <.LBB6_7+0x8>
802026b0: 23 34 b4 fe  	sd	a1, -24(s0)

00000000802026b4 <.LBB6_6>:
802026b4: 97 45 04 00  	auipc	a1, 68
802026b8: 93 85 45 f2  	addi	a1, a1, -220

00000000802026bc <.LBB6_7>:
802026bc: 17 47 04 00  	auipc	a4, 68
802026c0: 13 07 c7 f2  	addi	a4, a4, -212
802026c4: 25 46        	li	a2, 9
802026c6: 93 06 84 fe  	addi	a3, s0, -24
802026ca: 97 10 00 00  	auipc	ra, 1
802026ce: e7 80 80 2f  	jalr	760(ra)
802026d2: e2 60        	ld	ra, 24(sp)
802026d4: 42 64        	ld	s0, 16(sp)
802026d6: 05 61        	addi	sp, sp, 32
802026d8: 82 80        	ret

00000000802026da <_ZN71_$LT$riscv..register..scause..Interrupt$u20$as$u20$core..fmt..Debug$GT$3fmt17hacd25cb7125cd354E>:
802026da: 41 11        	addi	sp, sp, -16
802026dc: 06 e4        	sd	ra, 8(sp)
802026de: 22 e0        	sd	s0, 0(sp)
802026e0: 00 08        	addi	s0, sp, 16
802026e2: 03 45 05 00  	lbu	a0, 0(a0)
802026e6: 0e 05        	slli	a0, a0, 3

00000000802026e8 <.LBB7_11>:
802026e8: 17 46 04 00  	auipc	a2, 68
802026ec: 13 06 86 de  	addi	a2, a2, -536
802026f0: 32 95        	add	a0, a0, a2
802026f2: 10 61        	ld	a2, 0(a0)
802026f4: 2e 85        	mv	a0, a1
802026f6: 02 86        	jr	a2

00000000802026f8 <.LBB7_12>:
802026f8: 97 45 04 00  	auipc	a1, 68
802026fc: 93 85 f5 f9  	addi	a1, a1, -97
80202700: 21 46        	li	a2, 8
80202702: a2 60        	ld	ra, 8(sp)
80202704: 02 64        	ld	s0, 0(sp)
80202706: 41 01        	addi	sp, sp, 16
80202708: 17 13 00 00  	auipc	t1, 1
8020270c: 67 00 23 2b  	jr	690(t1)

0000000080202710 <.LBB7_2>:
80202710: 97 45 04 00  	auipc	a1, 68
80202714: 93 85 25 f7  	addi	a1, a1, -142
80202718: 55 46        	li	a2, 21
8020271a: a2 60        	ld	ra, 8(sp)
8020271c: 02 64        	ld	s0, 0(sp)
8020271e: 41 01        	addi	sp, sp, 16
80202720: 17 13 00 00  	auipc	t1, 1
80202724: 67 00 a3 29  	jr	666(t1)

0000000080202728 <.LBB7_3>:
80202728: 97 45 04 00  	auipc	a1, 68
8020272c: 93 85 c5 f4  	addi	a1, a1, -180
80202730: 39 46        	li	a2, 14
80202732: a2 60        	ld	ra, 8(sp)
80202734: 02 64        	ld	s0, 0(sp)
80202736: 41 01        	addi	sp, sp, 16
80202738: 17 13 00 00  	auipc	t1, 1
8020273c: 67 00 23 28  	jr	642(t1)

0000000080202740 <.LBB7_4>:
80202740: 97 45 04 00  	auipc	a1, 68
80202744: 93 85 b5 f2  	addi	a1, a1, -213
80202748: 25 46        	li	a2, 9
8020274a: a2 60        	ld	ra, 8(sp)
8020274c: 02 64        	ld	s0, 0(sp)
8020274e: 41 01        	addi	sp, sp, 16
80202750: 17 13 00 00  	auipc	t1, 1
80202754: 67 00 a3 26  	jr	618(t1)

0000000080202758 <.LBB7_5>:
80202758: 97 45 04 00  	auipc	a1, 68
8020275c: 93 85 d5 ef  	addi	a1, a1, -259
80202760: 59 46        	li	a2, 22
80202762: a2 60        	ld	ra, 8(sp)
80202764: 02 64        	ld	s0, 0(sp)
80202766: 41 01        	addi	sp, sp, 16
80202768: 17 13 00 00  	auipc	t1, 1
8020276c: 67 00 23 25  	jr	594(t1)

0000000080202770 <.LBB7_6>:
80202770: 97 45 04 00  	auipc	a1, 68
80202774: 93 85 65 ed  	addi	a1, a1, -298
80202778: 3d 46        	li	a2, 15
8020277a: a2 60        	ld	ra, 8(sp)
8020277c: 02 64        	ld	s0, 0(sp)
8020277e: 41 01        	addi	sp, sp, 16
80202780: 17 13 00 00  	auipc	t1, 1
80202784: 67 00 a3 23  	jr	570(t1)

0000000080202788 <.LBB7_7>:
80202788: 97 45 04 00  	auipc	a1, 68
8020278c: 93 85 25 eb  	addi	a1, a1, -334
80202790: 31 46        	li	a2, 12
80202792: a2 60        	ld	ra, 8(sp)
80202794: 02 64        	ld	s0, 0(sp)
80202796: 41 01        	addi	sp, sp, 16
80202798: 17 13 00 00  	auipc	t1, 1
8020279c: 67 00 23 22  	jr	546(t1)

00000000802027a0 <.LBB7_8>:
802027a0: 97 45 04 00  	auipc	a1, 68
802027a4: 93 85 15 e8  	addi	a1, a1, -383
802027a8: 65 46        	li	a2, 25
802027aa: a2 60        	ld	ra, 8(sp)
802027ac: 02 64        	ld	s0, 0(sp)
802027ae: 41 01        	addi	sp, sp, 16
802027b0: 17 13 00 00  	auipc	t1, 1
802027b4: 67 00 a3 20  	jr	522(t1)

00000000802027b8 <.LBB7_9>:
802027b8: 97 45 04 00  	auipc	a1, 68
802027bc: 93 85 75 e5  	addi	a1, a1, -425
802027c0: 49 46        	li	a2, 18
802027c2: a2 60        	ld	ra, 8(sp)
802027c4: 02 64        	ld	s0, 0(sp)
802027c6: 41 01        	addi	sp, sp, 16
802027c8: 17 13 00 00  	auipc	t1, 1
802027cc: 67 00 23 1f  	jr	498(t1)

00000000802027d0 <.LBB7_21>:
802027d0: 97 45 04 00  	auipc	a1, 68
802027d4: 93 85 85 e3  	addi	a1, a1, -456
802027d8: 1d 46        	li	a2, 7
802027da: a2 60        	ld	ra, 8(sp)
802027dc: 02 64        	ld	s0, 0(sp)
802027de: 41 01        	addi	sp, sp, 16
802027e0: 17 13 00 00  	auipc	t1, 1
802027e4: 67 00 a3 1d  	jr	474(t1)

00000000802027e8 <_ZN71_$LT$riscv..register..scause..Exception$u20$as$u20$core..fmt..Debug$GT$3fmt17h5d2c239ebab34529E>:
802027e8: 41 11        	addi	sp, sp, -16
802027ea: 06 e4        	sd	ra, 8(sp)
802027ec: 22 e0        	sd	s0, 0(sp)
802027ee: 00 08        	addi	s0, sp, 16
802027f0: 03 45 05 00  	lbu	a0, 0(a0)
802027f4: 0e 05        	slli	a0, a0, 3

00000000802027f6 <.LBB8_20>:
802027f6: 17 46 04 00  	auipc	a2, 68
802027fa: 13 06 a6 d2  	addi	a2, a2, -726
802027fe: 32 95        	add	a0, a0, a2
80202800: 10 61        	ld	a2, 0(a0)
80202802: 2e 85        	mv	a0, a1
80202804: 02 86        	jr	a2

0000000080202806 <.LBB8_21>:
80202806: 97 45 04 00  	auipc	a1, 68
8020280a: 93 85 95 f7  	addi	a1, a1, -135
8020280e: 55 46        	li	a2, 21
80202810: a2 60        	ld	ra, 8(sp)
80202812: 02 64        	ld	s0, 0(sp)
80202814: 41 01        	addi	sp, sp, 16
80202816: 17 13 00 00  	auipc	t1, 1
8020281a: 67 00 43 1a  	jr	420(t1)

000000008020281e <.LBB8_22>:
8020281e: 97 35 00 00  	auipc	a1, 3
80202822: 93 85 25 83  	addi	a1, a1, -1998
80202826: 41 46        	li	a2, 16
80202828: a2 60        	ld	ra, 8(sp)
8020282a: 02 64        	ld	s0, 0(sp)
8020282c: 41 01        	addi	sp, sp, 16
8020282e: 17 13 00 00  	auipc	t1, 1
80202832: 67 00 c3 18  	jr	396(t1)

0000000080202836 <.LBB8_3>:
80202836: 97 45 04 00  	auipc	a1, 68
8020283a: 93 85 75 f3  	addi	a1, a1, -201
8020283e: dd a8        	j	0x80202934 <.LBB8_35+0x8>

0000000080202840 <.LBB8_4>:
80202840: 97 45 04 00  	auipc	a1, 68
80202844: 93 85 35 f2  	addi	a1, a1, -221
80202848: 2d a8        	j	0x80202882 <.LBB8_7+0x8>

000000008020284a <.LBB8_5>:
8020284a: 97 45 04 00  	auipc	a1, 68
8020284e: 93 85 05 f1  	addi	a1, a1, -240
80202852: 25 46        	li	a2, 9
80202854: a2 60        	ld	ra, 8(sp)
80202856: 02 64        	ld	s0, 0(sp)
80202858: 41 01        	addi	sp, sp, 16
8020285a: 17 13 00 00  	auipc	t1, 1
8020285e: 67 00 03 16  	jr	352(t1)

0000000080202862 <.LBB8_6>:
80202862: 97 45 04 00  	auipc	a1, 68
80202866: 93 85 95 ee  	addi	a1, a1, -279
8020286a: 3d 46        	li	a2, 15
8020286c: a2 60        	ld	ra, 8(sp)
8020286e: 02 64        	ld	s0, 0(sp)
80202870: 41 01        	addi	sp, sp, 16
80202872: 17 13 00 00  	auipc	t1, 1
80202876: 67 00 83 14  	jr	328(t1)

000000008020287a <.LBB8_7>:
8020287a: 97 45 04 00  	auipc	a1, 68
8020287e: 93 85 75 ec  	addi	a1, a1, -313
80202882: 29 46        	li	a2, 10
80202884: a2 60        	ld	ra, 8(sp)
80202886: 02 64        	ld	s0, 0(sp)
80202888: 41 01        	addi	sp, sp, 16
8020288a: 17 13 00 00  	auipc	t1, 1
8020288e: 67 00 03 13  	jr	304(t1)

0000000080202892 <.LBB8_9>:
80202892: 97 45 04 00  	auipc	a1, 68
80202896: 93 85 45 ea  	addi	a1, a1, -348
8020289a: 2d 46        	li	a2, 11
8020289c: a2 60        	ld	ra, 8(sp)
8020289e: 02 64        	ld	s0, 0(sp)
802028a0: 41 01        	addi	sp, sp, 16
802028a2: 17 13 00 00  	auipc	t1, 1
802028a6: 67 00 83 11  	jr	280(t1)

00000000802028aa <.LBB8_29>:
802028aa: 97 45 04 00  	auipc	a1, 68
802028ae: 93 85 45 e7  	addi	a1, a1, -396
802028b2: 61 46        	li	a2, 24
802028b4: a2 60        	ld	ra, 8(sp)
802028b6: 02 64        	ld	s0, 0(sp)
802028b8: 41 01        	addi	sp, sp, 16
802028ba: 17 13 00 00  	auipc	t1, 1
802028be: 67 00 03 10  	jr	256(t1)

00000000802028c2 <.LBB8_30>:
802028c2: 97 45 04 00  	auipc	a1, 68
802028c6: 93 85 85 e4  	addi	a1, a1, -440
802028ca: 51 46        	li	a2, 20
802028cc: a2 60        	ld	ra, 8(sp)
802028ce: 02 64        	ld	s0, 0(sp)
802028d0: 41 01        	addi	sp, sp, 16
802028d2: 17 13 00 00  	auipc	t1, 1
802028d6: 67 00 83 0e  	jr	232(t1)

00000000802028da <.LBB8_31>:
802028da: 97 45 04 00  	auipc	a1, 68
802028de: 93 85 35 e2  	addi	a1, a1, -477
802028e2: 35 46        	li	a2, 13
802028e4: a2 60        	ld	ra, 8(sp)
802028e6: 02 64        	ld	s0, 0(sp)
802028e8: 41 01        	addi	sp, sp, 16
802028ea: 17 13 00 00  	auipc	t1, 1
802028ee: 67 00 03 0d  	jr	208(t1)

00000000802028f2 <.LBB8_32>:
802028f2: 97 45 04 00  	auipc	a1, 68
802028f6: 93 85 d5 df  	addi	a1, a1, -515
802028fa: 39 46        	li	a2, 14
802028fc: a2 60        	ld	ra, 8(sp)
802028fe: 02 64        	ld	s0, 0(sp)
80202900: 41 01        	addi	sp, sp, 16
80202902: 17 13 00 00  	auipc	t1, 1
80202906: 67 00 83 0b  	jr	184(t1)

000000008020290a <.LBB8_33>:
8020290a: 97 45 04 00  	auipc	a1, 68
8020290e: 93 85 c5 dc  	addi	a1, a1, -564
80202912: 65 46        	li	a2, 25
80202914: a2 60        	ld	ra, 8(sp)
80202916: 02 64        	ld	s0, 0(sp)
80202918: 41 01        	addi	sp, sp, 16
8020291a: 17 13 00 00  	auipc	t1, 1
8020291e: 67 00 03 0a  	jr	160(t1)

0000000080202922 <.LBB8_34>:
80202922: 97 45 04 00  	auipc	a1, 68
80202926: 93 85 25 da  	addi	a1, a1, -606
8020292a: 29 a0        	j	0x80202934 <.LBB8_35+0x8>

000000008020292c <.LBB8_35>:
8020292c: 97 45 04 00  	auipc	a1, 68
80202930: 93 85 65 d8  	addi	a1, a1, -634
80202934: 49 46        	li	a2, 18
80202936: a2 60        	ld	ra, 8(sp)
80202938: 02 64        	ld	s0, 0(sp)
8020293a: 41 01        	addi	sp, sp, 16
8020293c: 17 13 00 00  	auipc	t1, 1
80202940: 67 00 e3 07  	jr	126(t1)

0000000080202944 <.LBB8_36>:
80202944: 97 45 04 00  	auipc	a1, 68
80202948: 93 85 b5 d5  	addi	a1, a1, -677
8020294c: 4d 46        	li	a2, 19
8020294e: a2 60        	ld	ra, 8(sp)
80202950: 02 64        	ld	s0, 0(sp)
80202952: 41 01        	addi	sp, sp, 16
80202954: 17 13 00 00  	auipc	t1, 1
80202958: 67 00 63 06  	jr	102(t1)

000000008020295c <.LBB8_37>:
8020295c: 97 45 04 00  	auipc	a1, 68
80202960: 93 85 c5 ca  	addi	a1, a1, -852
80202964: 1d 46        	li	a2, 7
80202966: a2 60        	ld	ra, 8(sp)
80202968: 02 64        	ld	s0, 0(sp)
8020296a: 41 01        	addi	sp, sp, 16
8020296c: 17 13 00 00  	auipc	t1, 1
80202970: 67 00 e3 04  	jr	78(t1)

0000000080202974 <_ZN60_$LT$spin..once..Finish$u20$as$u20$core..ops..drop..Drop$GT$4drop17hb46dda8a07855986E>:
80202974: 41 11        	addi	sp, sp, -16
80202976: 06 e4        	sd	ra, 8(sp)
80202978: 22 e0        	sd	s0, 0(sp)
8020297a: 00 08        	addi	s0, sp, 16
8020297c: 83 45 85 00  	lbu	a1, 8(a0)
80202980: 91 c5        	beqz	a1, 0x8020298c <_ZN60_$LT$spin..once..Finish$u20$as$u20$core..ops..drop..Drop$GT$4drop17hb46dda8a07855986E+0x18>
80202982: 08 61        	ld	a0, 0(a0)
80202984: 0f 00 10 03  	fence	rw, w
80202988: 8d 45        	li	a1, 3
8020298a: 0c e1        	sd	a1, 0(a0)
8020298c: a2 60        	ld	ra, 8(sp)
8020298e: 02 64        	ld	s0, 0(sp)
80202990: 41 01        	addi	sp, sp, 16
80202992: 82 80        	ret

0000000080202994 <_ZN22buddy_system_allocator4Heap4init17h096a9c186af21a8bE>:
80202994: 41 11        	addi	sp, sp, -16
80202996: 06 e4        	sd	ra, 8(sp)
80202998: 22 e0        	sd	s0, 0(sp)
8020299a: 00 08        	addi	s0, sp, 16
8020299c: 2e 96        	add	a2, a2, a1
8020299e: 9d 05        	addi	a1, a1, 7
802029a0: e1 99        	andi	a1, a1, -8
802029a2: 93 7e 86 ff  	andi	t4, a2, -8
802029a6: 63 eb be 12  	bltu	t4, a1, 0x80202adc <.LBB5_20>
802029aa: 01 47        	li	a4, 0
802029ac: 13 86 85 00  	addi	a2, a1, 8
802029b0: 63 e1 ce 10  	bltu	t4, a2, 0x80202ab2 <.LBB5_18+0xda>

00000000802029b4 <.LBB5_15>:
802029b4: 17 56 07 00  	auipc	a2, 117
802029b8: 13 06 c6 00  	addi	a2, a2, 12
802029bc: 03 38 06 00  	ld	a6, 0(a2)

00000000802029c0 <.LBB5_16>:
802029c0: 17 56 07 00  	auipc	a2, 117
802029c4: 13 06 86 00  	addi	a2, a2, 8
802029c8: 03 3f 06 00  	ld	t5, 0(a2)

00000000802029cc <.LBB5_17>:
802029cc: 17 56 07 00  	auipc	a2, 117
802029d0: 13 06 46 00  	addi	a2, a2, 4
802029d4: 83 38 06 00  	ld	a7, 0(a2)

00000000802029d8 <.LBB5_18>:
802029d8: 17 56 07 00  	auipc	a2, 117
802029dc: 13 06 06 00  	mv	a2, a2
802029e0: 83 32 06 00  	ld	t0, 0(a2)
802029e4: 13 03 f0 03  	li	t1, 63
802029e8: 85 43        	li	t2, 1
802029ea: 7d 4e        	li	t3, 31
802029ec: 33 86 be 40  	sub	a2, t4, a1
802029f0: 31 ca        	beqz	a2, 0x80202a44 <.LBB5_18+0x6c>
802029f2: 93 56 16 00  	srli	a3, a2, 1
802029f6: 55 8e        	or	a2, a2, a3
802029f8: 93 56 26 00  	srli	a3, a2, 2
802029fc: 55 8e        	or	a2, a2, a3
802029fe: 93 56 46 00  	srli	a3, a2, 4
80202a02: 55 8e        	or	a2, a2, a3
80202a04: 93 56 86 00  	srli	a3, a2, 8
80202a08: 55 8e        	or	a2, a2, a3
80202a0a: 93 56 06 01  	srli	a3, a2, 16
80202a0e: 55 8e        	or	a2, a2, a3
80202a10: 93 56 06 02  	srli	a3, a2, 32
80202a14: 55 8e        	or	a2, a2, a3
80202a16: 13 46 f6 ff  	not	a2, a2
80202a1a: 93 56 16 00  	srli	a3, a2, 1
80202a1e: b3 f6 06 01  	and	a3, a3, a6
80202a22: 15 8e        	sub	a2, a2, a3
80202a24: b3 76 e6 01  	and	a3, a2, t5
80202a28: 09 82        	srli	a2, a2, 2
80202a2a: 33 76 e6 01  	and	a2, a2, t5
80202a2e: 36 96        	add	a2, a2, a3
80202a30: 93 56 46 00  	srli	a3, a2, 4
80202a34: 36 96        	add	a2, a2, a3
80202a36: 33 76 16 01  	and	a2, a2, a7
80202a3a: 33 06 56 02  	mul	a2, a2, t0
80202a3e: 93 56 86 03  	srli	a3, a2, 56
80202a42: 19 a0        	j	0x80202a48 <.LBB5_18+0x70>
80202a44: 93 06 00 04  	li	a3, 64
80202a48: 33 06 b0 40  	neg	a2, a1
80202a4c: 6d 8e        	and	a2, a2, a1
80202a4e: b3 06 d3 40  	sub	a3, t1, a3
80202a52: b3 96 d3 00  	sll	a3, t2, a3
80202a56: 63 63 d6 00  	bltu	a2, a3, 0x80202a5c <.LBB5_18+0x84>
80202a5a: 36 86        	mv	a2, a3
80202a5c: 05 ce        	beqz	a2, 0x80202a94 <.LBB5_18+0xbc>
80202a5e: 93 06 f6 ff  	addi	a3, a2, -1
80202a62: 93 47 f6 ff  	not	a5, a2
80202a66: fd 8e        	and	a3, a3, a5
80202a68: 93 d7 16 00  	srli	a5, a3, 1
80202a6c: b3 f7 07 01  	and	a5, a5, a6
80202a70: 9d 8e        	sub	a3, a3, a5
80202a72: b3 f7 e6 01  	and	a5, a3, t5
80202a76: 89 82        	srli	a3, a3, 2
80202a78: b3 f6 e6 01  	and	a3, a3, t5
80202a7c: be 96        	add	a3, a3, a5
80202a7e: 93 d7 46 00  	srli	a5, a3, 4
80202a82: be 96        	add	a3, a3, a5
80202a84: b3 f6 16 01  	and	a3, a3, a7
80202a88: b3 86 56 02  	mul	a3, a3, t0
80202a8c: e1 92        	srli	a3, a3, 56
80202a8e: 63 77 de 00  	bgeu	t3, a3, 0x80202a9c <.LBB5_18+0xc4>
80202a92: 0d a8        	j	0x80202ac4 <.LBB5_19>
80202a94: 93 06 00 04  	li	a3, 64
80202a98: 63 66 de 02  	bltu	t3, a3, 0x80202ac4 <.LBB5_19>
80202a9c: 8e 06        	slli	a3, a3, 3
80202a9e: aa 96        	add	a3, a3, a0
80202aa0: 9c 62        	ld	a5, 0(a3)
80202aa2: 9c e1        	sd	a5, 0(a1)
80202aa4: 8c e2        	sd	a1, 0(a3)
80202aa6: b2 95        	add	a1, a1, a2
80202aa8: 93 86 85 00  	addi	a3, a1, 8
80202aac: 32 97        	add	a4, a4, a2
80202aae: e3 ff de f2  	bgeu	t4, a3, 0x802029ec <.LBB5_18+0x14>
80202ab2: 83 35 05 11  	ld	a1, 272(a0)
80202ab6: ba 95        	add	a1, a1, a4
80202ab8: 23 38 b5 10  	sd	a1, 272(a0)
80202abc: a2 60        	ld	ra, 8(sp)
80202abe: 02 64        	ld	s0, 0(sp)
80202ac0: 41 01        	addi	sp, sp, 16
80202ac2: 82 80        	ret

0000000080202ac4 <.LBB5_19>:
80202ac4: 17 46 04 00  	auipc	a2, 68
80202ac8: 13 06 46 d9  	addi	a2, a2, -620
80202acc: 93 05 00 02  	li	a1, 32
80202ad0: 36 85        	mv	a0, a3
80202ad2: 97 00 00 00  	auipc	ra, 0
80202ad6: e7 80 e0 1e  	jalr	494(ra)
80202ada: 00 00        	unimp	

0000000080202adc <.LBB5_20>:
80202adc: 17 45 04 00  	auipc	a0, 68
80202ae0: 13 05 b5 cd  	addi	a0, a0, -805

0000000080202ae4 <.LBB5_21>:
80202ae4: 17 46 04 00  	auipc	a2, 68
80202ae8: 13 06 c6 d5  	addi	a2, a2, -676
80202aec: f9 45        	li	a1, 30
80202aee: 97 00 00 00  	auipc	ra, 0
80202af2: e7 80 60 1a  	jalr	422(ra)
80202af6: 00 00        	unimp	

0000000080202af8 <_ZN88_$LT$buddy_system_allocator..LockedHeapWithRescue$u20$as$u20$core..ops..deref..Deref$GT$5deref17h1624b06b126ab7f3E>:
80202af8: 41 11        	addi	sp, sp, -16
80202afa: 06 e4        	sd	ra, 8(sp)
80202afc: 22 e0        	sd	s0, 0(sp)
80202afe: 00 08        	addi	s0, sp, 16
80202b00: a2 60        	ld	ra, 8(sp)
80202b02: 02 64        	ld	s0, 0(sp)
80202b04: 41 01        	addi	sp, sp, 16
80202b06: 82 80        	ret

0000000080202b08 <_ZN4core3ptr32drop_in_place$LT$$RF$$RF$str$GT$17haf40bd6c1d91ab3bE>:
80202b08: 41 11        	addi	sp, sp, -16
80202b0a: 06 e4        	sd	ra, 8(sp)
80202b0c: 22 e0        	sd	s0, 0(sp)
80202b0e: 00 08        	addi	s0, sp, 16
80202b10: a2 60        	ld	ra, 8(sp)
80202b12: 02 64        	ld	s0, 0(sp)
80202b14: 41 01        	addi	sp, sp, 16
80202b16: 82 80        	ret

0000000080202b18 <_ZN43_$LT$log..NopLogger$u20$as$u20$log..Log$GT$7enabled17h1a2bf1c29409faa0E>:
80202b18: 41 11        	addi	sp, sp, -16
80202b1a: 06 e4        	sd	ra, 8(sp)
80202b1c: 22 e0        	sd	s0, 0(sp)
80202b1e: 00 08        	addi	s0, sp, 16
80202b20: 01 45        	li	a0, 0
80202b22: a2 60        	ld	ra, 8(sp)
80202b24: 02 64        	ld	s0, 0(sp)
80202b26: 41 01        	addi	sp, sp, 16
80202b28: 82 80        	ret

0000000080202b2a <_ZN43_$LT$log..NopLogger$u20$as$u20$log..Log$GT$3log17haafec08b3a927984E>:
80202b2a: 41 11        	addi	sp, sp, -16
80202b2c: 06 e4        	sd	ra, 8(sp)
80202b2e: 22 e0        	sd	s0, 0(sp)
80202b30: 00 08        	addi	s0, sp, 16
80202b32: a2 60        	ld	ra, 8(sp)
80202b34: 02 64        	ld	s0, 0(sp)
80202b36: 41 01        	addi	sp, sp, 16
80202b38: 82 80        	ret

0000000080202b3a <_ZN43_$LT$log..NopLogger$u20$as$u20$log..Log$GT$5flush17h246837124c246afbE>:
80202b3a: 41 11        	addi	sp, sp, -16
80202b3c: 06 e4        	sd	ra, 8(sp)
80202b3e: 22 e0        	sd	s0, 0(sp)
80202b40: 00 08        	addi	s0, sp, 16
80202b42: a2 60        	ld	ra, 8(sp)
80202b44: 02 64        	ld	s0, 0(sp)
80202b46: 41 01        	addi	sp, sp, 16
80202b48: 82 80        	ret

0000000080202b4a <_ZN3log17__private_api_log17he4dfcaf7e9ba9ed4E>:
80202b4a: 35 71        	addi	sp, sp, -160
80202b4c: 06 ed        	sd	ra, 152(sp)
80202b4e: 22 e9        	sd	s0, 144(sp)
80202b50: 26 e5        	sd	s1, 136(sp)
80202b52: 00 11        	addi	s0, sp, 160
80202b54: e1 e6        	bnez	a3, 0x80202c1c <.LBB24_11>
80202b56: 2a 87        	mv	a4, a0
80202b58: 03 28 06 03  	lw	a6, 48(a2)
80202b5c: 83 38 86 02  	ld	a7, 40(a2)
80202b60: 83 32 06 02  	ld	t0, 32(a2)
80202b64: 03 33 86 01  	ld	t1, 24(a2)
80202b68: 83 33 06 01  	ld	t2, 16(a2)
80202b6c: 83 3e 86 00  	ld	t4, 8(a2)
80202b70: 03 3f 06 00  	ld	t5, 0(a2)
80202b74: 0f 00 30 03  	fence	rw, rw

0000000080202b78 <.LBB24_6>:
80202b78: 17 65 28 00  	auipc	a0, 646
80202b7c: 13 05 85 d5  	addi	a0, a0, -680
80202b80: 08 61        	ld	a0, 0(a0)
80202b82: 09 46        	li	a2, 2
80202b84: 0f 00 30 02  	fence	r, rw
80202b88: 63 0b c5 00  	beq	a0, a2, 0x80202b9e <.LBB24_9>

0000000080202b8c <.LBB24_7>:
80202b8c: 17 4e 04 00  	auipc	t3, 68
80202b90: 13 0e ce cf  	addi	t3, t3, -772

0000000080202b94 <.LBB24_8>:
80202b94: 17 45 04 00  	auipc	a0, 68
80202b98: 13 05 c5 cd  	addi	a0, a0, -804
80202b9c: 21 a8        	j	0x80202bb4 <.LBB24_10+0xc>

0000000080202b9e <.LBB24_9>:
80202b9e: 17 55 07 00  	auipc	a0, 117
80202ba2: 13 05 25 ea  	addi	a0, a0, -350
80202ba6: 08 61        	ld	a0, 0(a0)

0000000080202ba8 <.LBB24_10>:
80202ba8: 17 56 07 00  	auipc	a2, 117
80202bac: 13 06 06 ea  	addi	a2, a2, -352
80202bb0: 03 3e 06 00  	ld	t3, 0(a2)
80202bb4: 10 63        	ld	a2, 0(a4)
80202bb6: 1c 67        	ld	a5, 8(a4)
80202bb8: 14 6b        	ld	a3, 16(a4)
80202bba: 83 3f 87 01  	ld	t6, 24(a4)
80202bbe: 04 73        	ld	s1, 32(a4)
80202bc0: 18 77        	ld	a4, 40(a4)
80202bc2: 23 30 e4 fb  	sd	t5, -96(s0)
80202bc6: 23 34 d4 fb  	sd	t4, -88(s0)
80202bca: 23 38 b4 fa  	sd	a1, -80(s0)
80202bce: 23 34 c4 f6  	sd	a2, -152(s0)
80202bd2: 23 38 f4 f6  	sd	a5, -144(s0)
80202bd6: 23 3c d4 f6  	sd	a3, -136(s0)
80202bda: 23 30 f4 f9  	sd	t6, -128(s0)
80202bde: 23 34 94 f8  	sd	s1, -120(s0)
80202be2: 23 38 e4 f8  	sd	a4, -112(s0)
80202be6: 23 3c 04 fa  	sd	zero, -72(s0)
80202bea: 23 30 74 fc  	sd	t2, -64(s0)
80202bee: 23 34 64 fc  	sd	t1, -56(s0)
80202bf2: 23 38 04 fc  	sd	zero, -48(s0)
80202bf6: 23 3c 54 fc  	sd	t0, -40(s0)
80202bfa: 23 30 14 ff  	sd	a7, -32(s0)
80202bfe: 85 45        	li	a1, 1
80202c00: 23 2c b4 f8  	sw	a1, -104(s0)
80202c04: 23 2e 04 f9  	sw	a6, -100(s0)
80202c08: 03 36 8e 02  	ld	a2, 40(t3)
80202c0c: 93 05 84 f6  	addi	a1, s0, -152
80202c10: 02 96        	jalr	a2
80202c12: ea 60        	ld	ra, 152(sp)
80202c14: 4a 64        	ld	s0, 144(sp)
80202c16: aa 64        	ld	s1, 136(sp)
80202c18: 0d 61        	addi	sp, sp, 160
80202c1a: 82 80        	ret

0000000080202c1c <.LBB24_11>:
80202c1c: 17 45 04 00  	auipc	a0, 68
80202c20: 13 05 65 cf  	addi	a0, a0, -778

0000000080202c24 <.LBB24_12>:
80202c24: 17 46 04 00  	auipc	a2, 68
80202c28: 13 06 46 d4  	addi	a2, a2, -700
80202c2c: 93 05 50 05  	li	a1, 85
80202c30: 97 00 00 00  	auipc	ra, 0
80202c34: e7 80 40 06  	jalr	100(ra)
80202c38: 00 00        	unimp	

0000000080202c3a <_ZN4core3ops8function6FnOnce9call_once17hfd3303d23173549bE>:
80202c3a: 08 61        	ld	a0, 0(a0)
80202c3c: 01 a0        	j	0x80202c3c <_ZN4core3ops8function6FnOnce9call_once17hfd3303d23173549bE+0x2>

0000000080202c3e <_ZN4core3ptr102drop_in_place$LT$$RF$core..iter..adapters..copied..Copied$LT$core..slice..iter..Iter$LT$u8$GT$$GT$$GT$17h53befd6046d0b90eE>:
80202c3e: 82 80        	ret

0000000080202c40 <_ZN36_$LT$T$u20$as$u20$core..any..Any$GT$7type_id17hf7601e0e4f62b400E>:
80202c40: 17 55 07 00  	auipc	a0, 117
80202c44: 13 05 85 ef  	addi	a0, a0, -264
80202c48: 08 61        	ld	a0, 0(a0)
80202c4a: 82 80        	ret

0000000080202c4c <_ZN63_$LT$core..cell..BorrowMutError$u20$as$u20$core..fmt..Debug$GT$3fmt17h85b3e4f3b263bba6E>:
80202c4c: 90 65        	ld	a2, 8(a1)
80202c4e: 88 61        	ld	a0, 0(a1)
80202c50: 1c 6e        	ld	a5, 24(a2)

0000000080202c52 <.LBB112_1>:
80202c52: 97 45 04 00  	auipc	a1, 68
80202c56: 93 85 f5 d6  	addi	a1, a1, -657
80202c5a: 39 46        	li	a2, 14
80202c5c: 82 87        	jr	a5

0000000080202c5e <_ZN4core5panic10panic_info9PanicInfo7message17hcb7a5a3e466be904E>:
80202c5e: 08 69        	ld	a0, 16(a0)
80202c60: 82 80        	ret

0000000080202c62 <_ZN4core5panic10panic_info9PanicInfo8location17h43d8a14288f989fbE>:
80202c62: 08 6d        	ld	a0, 24(a0)
80202c64: 82 80        	ret

0000000080202c66 <_ZN4core9panicking9panic_fmt17h09608ae52bd0d3adE>:
80202c66: 79 71        	addi	sp, sp, -48
80202c68: 06 f4        	sd	ra, 40(sp)

0000000080202c6a <.LBB169_1>:
80202c6a: 17 46 04 00  	auipc	a2, 68
80202c6e: 13 06 66 d1  	addi	a2, a2, -746
80202c72: 32 e0        	sd	a2, 0(sp)

0000000080202c74 <.LBB169_2>:
80202c74: 17 46 04 00  	auipc	a2, 68
80202c78: 13 06 46 d9  	addi	a2, a2, -620
80202c7c: 32 e4        	sd	a2, 8(sp)
80202c7e: 2a e8        	sd	a0, 16(sp)
80202c80: 2e ec        	sd	a1, 24(sp)
80202c82: 05 45        	li	a0, 1
80202c84: 23 00 a1 02  	sb	a0, 32(sp)
80202c88: 0a 85        	mv	a0, sp
80202c8a: 97 f0 ff ff  	auipc	ra, 1048575
80202c8e: e7 80 20 17  	jalr	370(ra)
80202c92: 00 00        	unimp	

0000000080202c94 <_ZN4core9panicking5panic17h968d2b6b541ffadfE>:
80202c94: 5d 71        	addi	sp, sp, -80
80202c96: 86 e4        	sd	ra, 72(sp)
80202c98: 2a fc        	sd	a0, 56(sp)
80202c9a: ae e0        	sd	a1, 64(sp)
80202c9c: 28 18        	addi	a0, sp, 56
80202c9e: 2a ec        	sd	a0, 24(sp)
80202ca0: 05 45        	li	a0, 1
80202ca2: 2a f0        	sd	a0, 32(sp)
80202ca4: 02 e4        	sd	zero, 8(sp)

0000000080202ca6 <.LBB171_1>:
80202ca6: 17 45 04 00  	auipc	a0, 68
80202caa: 13 05 a5 cd  	addi	a0, a0, -806
80202cae: 2a f4        	sd	a0, 40(sp)
80202cb0: 02 f8        	sd	zero, 48(sp)
80202cb2: 28 00        	addi	a0, sp, 8
80202cb4: b2 85        	mv	a1, a2
80202cb6: 97 00 00 00  	auipc	ra, 0
80202cba: e7 80 00 fb  	jalr	-80(ra)
80202cbe: 00 00        	unimp	

0000000080202cc0 <_ZN4core9panicking18panic_bounds_check17h03ed6527cd415bf9E>:
80202cc0: 59 71        	addi	sp, sp, -112
80202cc2: 86 f4        	sd	ra, 104(sp)
80202cc4: 2a e4        	sd	a0, 8(sp)
80202cc6: 2e e8        	sd	a1, 16(sp)
80202cc8: 08 08        	addi	a0, sp, 16
80202cca: aa e4        	sd	a0, 72(sp)

0000000080202ccc <.LBB174_1>:
80202ccc: 17 15 00 00  	auipc	a0, 1
80202cd0: 13 05 c5 67  	addi	a0, a0, 1660
80202cd4: aa e8        	sd	a0, 80(sp)
80202cd6: 2c 00        	addi	a1, sp, 8
80202cd8: ae ec        	sd	a1, 88(sp)
80202cda: aa f0        	sd	a0, 96(sp)

0000000080202cdc <.LBB174_2>:
80202cdc: 17 45 04 00  	auipc	a0, 68
80202ce0: 13 05 c5 d0  	addi	a0, a0, -756
80202ce4: 2a f4        	sd	a0, 40(sp)
80202ce6: 09 45        	li	a0, 2
80202ce8: 2a f8        	sd	a0, 48(sp)
80202cea: 02 ec        	sd	zero, 24(sp)
80202cec: ac 00        	addi	a1, sp, 72
80202cee: 2e fc        	sd	a1, 56(sp)
80202cf0: aa e0        	sd	a0, 64(sp)
80202cf2: 28 08        	addi	a0, sp, 24
80202cf4: b2 85        	mv	a1, a2
80202cf6: 97 00 00 00  	auipc	ra, 0
80202cfa: e7 80 00 f7  	jalr	-144(ra)
80202cfe: 00 00        	unimp	

0000000080202d00 <_ZN4core6result13unwrap_failed17h93c501911315d321E>:
80202d00: 19 71        	addi	sp, sp, -128
80202d02: 86 fc        	sd	ra, 120(sp)
80202d04: 2a e4        	sd	a0, 8(sp)
80202d06: 2e e8        	sd	a1, 16(sp)
80202d08: 32 ec        	sd	a2, 24(sp)
80202d0a: 36 f0        	sd	a3, 32(sp)
80202d0c: 28 00        	addi	a0, sp, 8
80202d0e: aa ec        	sd	a0, 88(sp)

0000000080202d10 <.LBB181_1>:
80202d10: 17 15 00 00  	auipc	a0, 1
80202d14: 13 05 c5 73  	addi	a0, a0, 1852
80202d18: aa f0        	sd	a0, 96(sp)
80202d1a: 28 08        	addi	a0, sp, 24
80202d1c: aa f4        	sd	a0, 104(sp)

0000000080202d1e <.LBB181_2>:
80202d1e: 17 15 00 00  	auipc	a0, 1
80202d22: 13 05 c5 71  	addi	a0, a0, 1820
80202d26: aa f8        	sd	a0, 112(sp)

0000000080202d28 <.LBB181_3>:
80202d28: 17 45 04 00  	auipc	a0, 68
80202d2c: 13 05 85 d2  	addi	a0, a0, -728
80202d30: 2a fc        	sd	a0, 56(sp)
80202d32: 09 45        	li	a0, 2
80202d34: aa e0        	sd	a0, 64(sp)
80202d36: 02 f4        	sd	zero, 40(sp)
80202d38: ac 08        	addi	a1, sp, 88
80202d3a: ae e4        	sd	a1, 72(sp)
80202d3c: aa e8        	sd	a0, 80(sp)
80202d3e: 28 10        	addi	a0, sp, 40
80202d40: ba 85        	mv	a1, a4
80202d42: 97 00 00 00  	auipc	ra, 0
80202d46: e7 80 40 f2  	jalr	-220(ra)
80202d4a: 00 00        	unimp	

0000000080202d4c <_ZN68_$LT$core..fmt..builders..PadAdapter$u20$as$u20$core..fmt..Write$GT$9write_str17h00c12acf7478cdceE>:
80202d4c: 31 71        	addi	sp, sp, -192
80202d4e: 06 fd        	sd	ra, 184(sp)
80202d50: 22 f9        	sd	s0, 176(sp)
80202d52: 26 f5        	sd	s1, 168(sp)
80202d54: 4a f1        	sd	s2, 160(sp)
80202d56: 4e ed        	sd	s3, 152(sp)
80202d58: 52 e9        	sd	s4, 144(sp)
80202d5a: 56 e5        	sd	s5, 136(sp)
80202d5c: 5a e1        	sd	s6, 128(sp)
80202d5e: de fc        	sd	s7, 120(sp)
80202d60: e2 f8        	sd	s8, 112(sp)
80202d62: e6 f4        	sd	s9, 104(sp)
80202d64: ea f0        	sd	s10, 96(sp)
80202d66: ee ec        	sd	s11, 88(sp)
80202d68: b2 84        	mv	s1, a2
80202d6a: 2e 8a        	mv	s4, a1
80202d6c: 81 49        	li	s3, 0
80202d6e: 01 44        	li	s0, 0
80202d70: 81 4d        	li	s11, 0
80202d72: 2e e8        	sd	a1, 16(sp)
80202d74: 32 ec        	sd	a2, 24(sp)
80202d76: 02 f0        	sd	zero, 32(sp)
80202d78: 32 f4        	sd	a2, 40(sp)
80202d7a: 85 4a        	li	s5, 1
80202d7c: 56 f8        	sd	s5, 48(sp)
80202d7e: 29 4b        	li	s6, 10
80202d80: 83 3b 05 01  	ld	s7, 16(a0)
80202d84: 03 39 05 00  	ld	s2, 0(a0)
80202d88: 08 65        	ld	a0, 8(a0)
80202d8a: 2a e4        	sd	a0, 8(sp)
80202d8c: 5a dc        	sw	s6, 56(sp)

0000000080202d8e <.LBB183_26>:
80202d8e: 17 35 04 00  	auipc	a0, 67
80202d92: 13 05 05 36  	addi	a0, a0, 864
80202d96: 2a e0        	sd	a0, 0(sp)
80202d98: c1 4c        	li	s9, 16
80202d9a: 05 a0        	j	0x80202dba <.LBB183_26+0x2c>
80202d9c: 33 05 b6 00  	add	a0, a2, a1
80202da0: 03 45 f5 ff  	lbu	a0, -1(a0)
80202da4: 59 15        	addi	a0, a0, -10
80202da6: 13 35 15 00  	seqz	a0, a0
80202daa: 23 80 ab 00  	sb	a0, 0(s7)
80202dae: 22 65        	ld	a0, 8(sp)
80202db0: 14 6d        	ld	a3, 24(a0)
80202db2: 4a 85        	mv	a0, s2
80202db4: 82 96        	jalr	a3
80202db6: ea 89        	mv	s3, s10
80202db8: 79 e1        	bnez	a0, 0x80202e7e <.LBB183_26+0xf0>
80202dba: 13 f5 fd 0f  	andi	a0, s11, 255
80202dbe: 55 ed        	bnez	a0, 0x80202e7a <.LBB183_26+0xec>
80202dc0: 63 fb 84 02  	bgeu	s1, s0, 0x80202df6 <.LBB183_26+0x68>
80202dc4: 85 4d        	li	s11, 1
80202dc6: 4e 8d        	mv	s10, s3
80202dc8: 26 8c        	mv	s8, s1
80202dca: 63 88 99 0a  	beq	s3, s1, 0x80202e7a <.LBB183_26+0xec>
80202dce: 03 c5 0b 00  	lbu	a0, 0(s7)
80202dd2: 01 c9        	beqz	a0, 0x80202de2 <.LBB183_26+0x54>
80202dd4: 22 65        	ld	a0, 8(sp)
80202dd6: 14 6d        	ld	a3, 24(a0)
80202dd8: 11 46        	li	a2, 4
80202dda: 4a 85        	mv	a0, s2
80202ddc: 82 65        	ld	a1, 0(sp)
80202dde: 82 96        	jalr	a3
80202de0: 59 ed        	bnez	a0, 0x80202e7e <.LBB183_26+0xf0>
80202de2: 33 06 3c 41  	sub	a2, s8, s3
80202de6: b3 05 3a 01  	add	a1, s4, s3
80202dea: e3 19 3c fb  	bne	s8, s3, 0x80202d9c <.LBB183_26+0xe>
80202dee: 01 45        	li	a0, 0
80202df0: 6d bf        	j	0x80202daa <.LBB183_26+0x1c>
80202df2: e3 e9 84 fc  	bltu	s1, s0, 0x80202dc4 <.LBB183_26+0x36>
80202df6: 33 86 84 40  	sub	a2, s1, s0
80202dfa: b3 06 8a 00  	add	a3, s4, s0
80202dfe: 63 72 96 03  	bgeu	a2, s9, 0x80202e22 <.LBB183_26+0x94>
80202e02: 81 45        	li	a1, 0
80202e04: 05 ca        	beqz	a2, 0x80202e34 <.LBB183_26+0xa6>
80202e06: 33 85 b6 00  	add	a0, a3, a1
80202e0a: 03 45 05 00  	lbu	a0, 0(a0)
80202e0e: 63 07 65 03  	beq	a0, s6, 0x80202e3c <.LBB183_26+0xae>
80202e12: 85 05        	addi	a1, a1, 1
80202e14: e3 19 b6 fe  	bne	a2, a1, 0x80202e06 <.LBB183_26+0x78>
80202e18: 01 45        	li	a0, 0
80202e1a: b2 85        	mv	a1, a2
80202e1c: 63 03 55 03  	beq	a0, s5, 0x80202e42 <.LBB183_26+0xb4>
80202e20: b9 a0        	j	0x80202e6e <.LBB183_26+0xe0>
80202e22: 29 45        	li	a0, 10
80202e24: b6 85        	mv	a1, a3
80202e26: 97 10 00 00  	auipc	ra, 1
80202e2a: e7 80 c0 c4  	jalr	-948(ra)
80202e2e: 63 0a 55 01  	beq	a0, s5, 0x80202e42 <.LBB183_26+0xb4>
80202e32: 35 a8        	j	0x80202e6e <.LBB183_26+0xe0>
80202e34: 01 45        	li	a0, 0
80202e36: 63 06 55 01  	beq	a0, s5, 0x80202e42 <.LBB183_26+0xb4>
80202e3a: 15 a8        	j	0x80202e6e <.LBB183_26+0xe0>
80202e3c: 05 45        	li	a0, 1
80202e3e: 63 18 55 03  	bne	a0, s5, 0x80202e6e <.LBB183_26+0xe0>
80202e42: 33 05 b4 00  	add	a0, s0, a1
80202e46: 13 04 15 00  	addi	s0, a0, 1
80202e4a: 93 35 14 00  	seqz	a1, s0
80202e4e: 33 b6 84 00  	sltu	a2, s1, s0
80202e52: d1 8d        	or	a1, a1, a2
80202e54: d9 fd        	bnez	a1, 0x80202df2 <.LBB183_26+0x64>
80202e56: 52 95        	add	a0, a0, s4
80202e58: 03 45 05 00  	lbu	a0, 0(a0)
80202e5c: e3 1b 65 f9  	bne	a0, s6, 0x80202df2 <.LBB183_26+0x64>
80202e60: 81 4d        	li	s11, 0
80202e62: 22 8d        	mv	s10, s0
80202e64: 22 8c        	mv	s8, s0
80202e66: 03 c5 0b 00  	lbu	a0, 0(s7)
80202e6a: 2d f5        	bnez	a0, 0x80202dd4 <.LBB183_26+0x46>
80202e6c: 9d bf        	j	0x80202de2 <.LBB183_26+0x54>
80202e6e: 26 84        	mv	s0, s1
80202e70: 85 4d        	li	s11, 1
80202e72: 4e 8d        	mv	s10, s3
80202e74: 26 8c        	mv	s8, s1
80202e76: e3 9c 99 f4  	bne	s3, s1, 0x80202dce <.LBB183_26+0x40>
80202e7a: 01 45        	li	a0, 0
80202e7c: 11 a0        	j	0x80202e80 <.LBB183_26+0xf2>
80202e7e: 05 45        	li	a0, 1
80202e80: ea 70        	ld	ra, 184(sp)
80202e82: 4a 74        	ld	s0, 176(sp)
80202e84: aa 74        	ld	s1, 168(sp)
80202e86: 0a 79        	ld	s2, 160(sp)
80202e88: ea 69        	ld	s3, 152(sp)
80202e8a: 4a 6a        	ld	s4, 144(sp)
80202e8c: aa 6a        	ld	s5, 136(sp)
80202e8e: 0a 6b        	ld	s6, 128(sp)
80202e90: e6 7b        	ld	s7, 120(sp)
80202e92: 46 7c        	ld	s8, 112(sp)
80202e94: a6 7c        	ld	s9, 104(sp)
80202e96: 06 7d        	ld	s10, 96(sp)
80202e98: e6 6d        	ld	s11, 88(sp)
80202e9a: 29 61        	addi	sp, sp, 192
80202e9c: 82 80        	ret

0000000080202e9e <_ZN4core3fmt8builders11DebugStruct5field17ha0e83fa7747a7c74E>:
80202e9e: 71 71        	addi	sp, sp, -176
80202ea0: 06 f5        	sd	ra, 168(sp)
80202ea2: 22 f1        	sd	s0, 160(sp)
80202ea4: 26 ed        	sd	s1, 152(sp)
80202ea6: 4a e9        	sd	s2, 144(sp)
80202ea8: 4e e5        	sd	s3, 136(sp)
80202eaa: 52 e1        	sd	s4, 128(sp)
80202eac: d6 fc        	sd	s5, 120(sp)
80202eae: da f8        	sd	s6, 112(sp)
80202eb0: de f4        	sd	s7, 104(sp)
80202eb2: 2a 84        	mv	s0, a0
80202eb4: 03 45 85 00  	lbu	a0, 8(a0)
80202eb8: 85 4b        	li	s7, 1
80202eba: 85 44        	li	s1, 1
80202ebc: 0d c1        	beqz	a0, 0x80202ede <_ZN4core3fmt8builders11DebugStruct5field17ha0e83fa7747a7c74E+0x40>
80202ebe: 23 04 94 00  	sb	s1, 8(s0)
80202ec2: a3 04 74 01  	sb	s7, 9(s0)
80202ec6: 22 85        	mv	a0, s0
80202ec8: aa 70        	ld	ra, 168(sp)
80202eca: 0a 74        	ld	s0, 160(sp)
80202ecc: ea 64        	ld	s1, 152(sp)
80202ece: 4a 69        	ld	s2, 144(sp)
80202ed0: aa 69        	ld	s3, 136(sp)
80202ed2: 0a 6a        	ld	s4, 128(sp)
80202ed4: e6 7a        	ld	s5, 120(sp)
80202ed6: 46 7b        	ld	s6, 112(sp)
80202ed8: a6 7b        	ld	s7, 104(sp)
80202eda: 4d 61        	addi	sp, sp, 176
80202edc: 82 80        	ret
80202ede: ba 89        	mv	s3, a4
80202ee0: 36 89        	mv	s2, a3
80202ee2: 32 8a        	mv	s4, a2
80202ee4: ae 8a        	mv	s5, a1
80202ee6: 03 3b 04 00  	ld	s6, 0(s0)
80202eea: 03 65 0b 03  	lwu	a0, 48(s6)
80202eee: 83 45 94 00  	lbu	a1, 9(s0)
80202ef2: 13 76 45 00  	andi	a2, a0, 4
80202ef6: 09 ea        	bnez	a2, 0x80202f08 <.LBB184_18+0xa>
80202ef8: 13 b6 15 00  	seqz	a2, a1
80202efc: e1 c1        	beqz	a1, 0x80202fbc <.LBB184_23>

0000000080202efe <.LBB184_18>:
80202efe: 97 45 04 00  	auipc	a1, 68
80202f02: 93 85 75 ba  	addi	a1, a1, -1113
80202f06: 7d a8        	j	0x80202fc4 <.LBB184_23+0x8>
80202f08: 85 e1        	bnez	a1, 0x80202f28 <.LBB184_19+0x14>
80202f0a: 83 35 8b 00  	ld	a1, 8(s6)
80202f0e: 03 35 0b 00  	ld	a0, 0(s6)
80202f12: 94 6d        	ld	a3, 24(a1)

0000000080202f14 <.LBB184_19>:
80202f14: 97 45 04 00  	auipc	a1, 68
80202f18: 93 85 c5 b8  	addi	a1, a1, -1140
80202f1c: 0d 46        	li	a2, 3
80202f1e: 82 96        	jalr	a3
80202f20: 85 44        	li	s1, 1
80202f22: 51 fd        	bnez	a0, 0x80202ebe <_ZN4core3fmt8builders11DebugStruct5field17ha0e83fa7747a7c74E+0x20>
80202f24: 03 25 0b 03  	lw	a0, 48(s6)
80202f28: 85 44        	li	s1, 1
80202f2a: a3 03 91 02  	sb	s1, 39(sp)
80202f2e: 83 35 0b 00  	ld	a1, 0(s6)
80202f32: 03 36 8b 00  	ld	a2, 8(s6)
80202f36: 2e e4        	sd	a1, 8(sp)
80202f38: 32 e8        	sd	a2, 16(sp)
80202f3a: 93 05 71 02  	addi	a1, sp, 39
80202f3e: 2e ec        	sd	a1, 24(sp)
80202f40: 83 25 4b 03  	lw	a1, 52(s6)
80202f44: 03 06 8b 03  	lb	a2, 56(s6)
80202f48: 83 36 0b 01  	ld	a3, 16(s6)
80202f4c: 03 37 8b 01  	ld	a4, 24(s6)
80202f50: 83 37 0b 02  	ld	a5, 32(s6)
80202f54: 03 38 8b 02  	ld	a6, 40(s6)
80202f58: aa cc        	sw	a0, 88(sp)
80202f5a: ae ce        	sw	a1, 92(sp)
80202f5c: 23 00 c1 06  	sb	a2, 96(sp)
80202f60: 36 fc        	sd	a3, 56(sp)
80202f62: ba e0        	sd	a4, 64(sp)
80202f64: be e4        	sd	a5, 72(sp)
80202f66: c2 e8        	sd	a6, 80(sp)
80202f68: 28 00        	addi	a0, sp, 8
80202f6a: 2a f4        	sd	a0, 40(sp)

0000000080202f6c <.LBB184_20>:
80202f6c: 17 45 04 00  	auipc	a0, 68
80202f70: 13 05 45 b0  	addi	a0, a0, -1276
80202f74: 2a f8        	sd	a0, 48(sp)
80202f76: 28 00        	addi	a0, sp, 8
80202f78: d6 85        	mv	a1, s5
80202f7a: 52 86        	mv	a2, s4
80202f7c: 97 00 00 00  	auipc	ra, 0
80202f80: e7 80 00 dd  	jalr	-560(ra)
80202f84: 0d fd        	bnez	a0, 0x80202ebe <_ZN4core3fmt8builders11DebugStruct5field17ha0e83fa7747a7c74E+0x20>

0000000080202f86 <.LBB184_21>:
80202f86: 97 45 04 00  	auipc	a1, 68
80202f8a: 93 85 25 ac  	addi	a1, a1, -1342
80202f8e: 28 00        	addi	a0, sp, 8
80202f90: 09 46        	li	a2, 2
80202f92: 97 00 00 00  	auipc	ra, 0
80202f96: e7 80 a0 db  	jalr	-582(ra)
80202f9a: 15 f1        	bnez	a0, 0x80202ebe <_ZN4core3fmt8builders11DebugStruct5field17ha0e83fa7747a7c74E+0x20>
80202f9c: 03 b6 89 01  	ld	a2, 24(s3)
80202fa0: 2c 10        	addi	a1, sp, 40
80202fa2: 4a 85        	mv	a0, s2
80202fa4: 02 96        	jalr	a2
80202fa6: 01 fd        	bnez	a0, 0x80202ebe <_ZN4core3fmt8builders11DebugStruct5field17ha0e83fa7747a7c74E+0x20>
80202fa8: c2 75        	ld	a1, 48(sp)
80202faa: 22 75        	ld	a0, 40(sp)
80202fac: 94 6d        	ld	a3, 24(a1)

0000000080202fae <.LBB184_22>:
80202fae: 97 45 04 00  	auipc	a1, 68
80202fb2: 93 85 55 af  	addi	a1, a1, -1291
80202fb6: 09 46        	li	a2, 2
80202fb8: 82 96        	jalr	a3
80202fba: b1 a8        	j	0x80203016 <.LBB184_24+0x1c>

0000000080202fbc <.LBB184_23>:
80202fbc: 97 45 04 00  	auipc	a1, 68
80202fc0: 93 85 b5 ae  	addi	a1, a1, -1301
80202fc4: 83 36 8b 00  	ld	a3, 8(s6)
80202fc8: 03 35 0b 00  	ld	a0, 0(s6)
80202fcc: 94 6e        	ld	a3, 24(a3)
80202fce: 13 66 26 00  	ori	a2, a2, 2
80202fd2: 82 96        	jalr	a3
80202fd4: 85 44        	li	s1, 1
80202fd6: e3 14 05 ee  	bnez	a0, 0x80202ebe <_ZN4core3fmt8builders11DebugStruct5field17ha0e83fa7747a7c74E+0x20>
80202fda: 83 35 8b 00  	ld	a1, 8(s6)
80202fde: 03 35 0b 00  	ld	a0, 0(s6)
80202fe2: 94 6d        	ld	a3, 24(a1)
80202fe4: d6 85        	mv	a1, s5
80202fe6: 52 86        	mv	a2, s4
80202fe8: 82 96        	jalr	a3
80202fea: 85 44        	li	s1, 1
80202fec: e3 19 05 ec  	bnez	a0, 0x80202ebe <_ZN4core3fmt8builders11DebugStruct5field17ha0e83fa7747a7c74E+0x20>
80202ff0: 83 35 8b 00  	ld	a1, 8(s6)
80202ff4: 03 35 0b 00  	ld	a0, 0(s6)
80202ff8: 94 6d        	ld	a3, 24(a1)

0000000080202ffa <.LBB184_24>:
80202ffa: 97 45 04 00  	auipc	a1, 68
80202ffe: 93 85 e5 a4  	addi	a1, a1, -1458
80203002: 09 46        	li	a2, 2
80203004: 82 96        	jalr	a3
80203006: 85 44        	li	s1, 1
80203008: e3 1b 05 ea  	bnez	a0, 0x80202ebe <_ZN4core3fmt8builders11DebugStruct5field17ha0e83fa7747a7c74E+0x20>
8020300c: 03 b6 89 01  	ld	a2, 24(s3)
80203010: 4a 85        	mv	a0, s2
80203012: da 85        	mv	a1, s6
80203014: 02 96        	jalr	a2
80203016: aa 84        	mv	s1, a0
80203018: 5d b5        	j	0x80202ebe <_ZN4core3fmt8builders11DebugStruct5field17ha0e83fa7747a7c74E+0x20>

000000008020301a <_ZN4core3fmt8builders10DebugTuple5field17h677b7d6bf29f0a1bE>:
8020301a: 35 71        	addi	sp, sp, -160
8020301c: 06 ed        	sd	ra, 152(sp)
8020301e: 22 e9        	sd	s0, 144(sp)
80203020: 26 e5        	sd	s1, 136(sp)
80203022: 4a e1        	sd	s2, 128(sp)
80203024: ce fc        	sd	s3, 120(sp)
80203026: d2 f8        	sd	s4, 112(sp)
80203028: d6 f4        	sd	s5, 104(sp)
8020302a: 2a 84        	mv	s0, a0
8020302c: 03 45 05 01  	lbu	a0, 16(a0)
80203030: 09 c5        	beqz	a0, 0x8020303a <_ZN4core3fmt8builders10DebugTuple5field17h677b7d6bf29f0a1bE+0x20>
80203032: 83 3a 04 00  	ld	s5, 0(s0)
80203036: 85 44        	li	s1, 1
80203038: e5 a0        	j	0x80203120 <.LBB187_20+0xe>
8020303a: b2 89        	mv	s3, a2
8020303c: 2e 89        	mv	s2, a1
8020303e: 03 3a 84 00  	ld	s4, 8(s0)
80203042: 03 65 0a 03  	lwu	a0, 48(s4)
80203046: 83 3a 04 00  	ld	s5, 0(s0)
8020304a: 93 75 45 00  	andi	a1, a0, 4
8020304e: 91 e9        	bnez	a1, 0x80203062 <.LBB187_16+0xa>
80203050: 13 b6 1a 00  	seqz	a2, s5
80203054: 63 88 0a 02  	beqz	s5, 0x80203084 <.LBB187_18>

0000000080203058 <.LBB187_16>:
80203058: 97 45 04 00  	auipc	a1, 68
8020305c: 93 85 d5 a4  	addi	a1, a1, -1459
80203060: 35 a0        	j	0x8020308c <.LBB187_18+0x8>
80203062: 63 98 0a 04  	bnez	s5, 0x802030b2 <.LBB187_18+0x2e>
80203066: 83 35 8a 00  	ld	a1, 8(s4)
8020306a: 03 35 0a 00  	ld	a0, 0(s4)
8020306e: 94 6d        	ld	a3, 24(a1)

0000000080203070 <.LBB187_17>:
80203070: 97 45 04 00  	auipc	a1, 68
80203074: 93 85 d5 a3  	addi	a1, a1, -1475
80203078: 09 46        	li	a2, 2
8020307a: 82 96        	jalr	a3
8020307c: 0d c9        	beqz	a0, 0x802030ae <.LBB187_18+0x2a>
8020307e: 81 4a        	li	s5, 0
80203080: 85 44        	li	s1, 1
80203082: 79 a8        	j	0x80203120 <.LBB187_20+0xe>

0000000080203084 <.LBB187_18>:
80203084: 97 45 04 00  	auipc	a1, 68
80203088: 93 85 b5 a2  	addi	a1, a1, -1493
8020308c: 83 36 8a 00  	ld	a3, 8(s4)
80203090: 03 35 0a 00  	ld	a0, 0(s4)
80203094: 94 6e        	ld	a3, 24(a3)
80203096: 09 47        	li	a4, 2
80203098: 33 06 c7 40  	sub	a2, a4, a2
8020309c: 82 96        	jalr	a3
8020309e: 85 44        	li	s1, 1
802030a0: 41 e1        	bnez	a0, 0x80203120 <.LBB187_20+0xe>
802030a2: 03 b6 89 01  	ld	a2, 24(s3)
802030a6: 4a 85        	mv	a0, s2
802030a8: d2 85        	mv	a1, s4
802030aa: 02 96        	jalr	a2
802030ac: 8d a8        	j	0x8020311e <.LBB187_20+0xc>
802030ae: 03 25 0a 03  	lw	a0, 48(s4)
802030b2: 85 44        	li	s1, 1
802030b4: a3 03 91 02  	sb	s1, 39(sp)
802030b8: 83 35 0a 00  	ld	a1, 0(s4)
802030bc: 03 36 8a 00  	ld	a2, 8(s4)
802030c0: 2e e4        	sd	a1, 8(sp)
802030c2: 32 e8        	sd	a2, 16(sp)
802030c4: 93 05 71 02  	addi	a1, sp, 39
802030c8: 2e ec        	sd	a1, 24(sp)
802030ca: 83 25 4a 03  	lw	a1, 52(s4)
802030ce: 03 06 8a 03  	lb	a2, 56(s4)
802030d2: 83 36 0a 01  	ld	a3, 16(s4)
802030d6: 03 37 8a 01  	ld	a4, 24(s4)
802030da: 83 37 0a 02  	ld	a5, 32(s4)
802030de: 03 38 8a 02  	ld	a6, 40(s4)
802030e2: aa cc        	sw	a0, 88(sp)
802030e4: ae ce        	sw	a1, 92(sp)
802030e6: 23 00 c1 06  	sb	a2, 96(sp)
802030ea: 36 fc        	sd	a3, 56(sp)
802030ec: ba e0        	sd	a4, 64(sp)
802030ee: be e4        	sd	a5, 72(sp)
802030f0: c2 e8        	sd	a6, 80(sp)
802030f2: 28 00        	addi	a0, sp, 8
802030f4: 03 b6 89 01  	ld	a2, 24(s3)
802030f8: 2a f4        	sd	a0, 40(sp)

00000000802030fa <.LBB187_19>:
802030fa: 17 45 04 00  	auipc	a0, 68
802030fe: 13 05 65 97  	addi	a0, a0, -1674
80203102: 2a f8        	sd	a0, 48(sp)
80203104: 2c 10        	addi	a1, sp, 40
80203106: 4a 85        	mv	a0, s2
80203108: 02 96        	jalr	a2
8020310a: 19 e9        	bnez	a0, 0x80203120 <.LBB187_20+0xe>
8020310c: c2 75        	ld	a1, 48(sp)
8020310e: 22 75        	ld	a0, 40(sp)
80203110: 94 6d        	ld	a3, 24(a1)

0000000080203112 <.LBB187_20>:
80203112: 97 45 04 00  	auipc	a1, 68
80203116: 93 85 15 99  	addi	a1, a1, -1647
8020311a: 09 46        	li	a2, 2
8020311c: 82 96        	jalr	a3
8020311e: aa 84        	mv	s1, a0
80203120: 23 08 94 00  	sb	s1, 16(s0)
80203124: 13 85 1a 00  	addi	a0, s5, 1
80203128: 08 e0        	sd	a0, 0(s0)
8020312a: 22 85        	mv	a0, s0
8020312c: ea 60        	ld	ra, 152(sp)
8020312e: 4a 64        	ld	s0, 144(sp)
80203130: aa 64        	ld	s1, 136(sp)
80203132: 0a 69        	ld	s2, 128(sp)
80203134: e6 79        	ld	s3, 120(sp)
80203136: 46 7a        	ld	s4, 112(sp)
80203138: a6 7a        	ld	s5, 104(sp)
8020313a: 0d 61        	addi	sp, sp, 160
8020313c: 82 80        	ret

000000008020313e <_ZN4core3fmt5Write10write_char17h0935c44e9832f7afE>:
8020313e: 41 11        	addi	sp, sp, -16
80203140: 06 e4        	sd	ra, 8(sp)
80203142: 1b 86 05 00  	sext.w	a2, a1
80203146: 93 06 00 08  	li	a3, 128
8020314a: 02 c2        	sw	zero, 4(sp)
8020314c: 63 76 d6 00  	bgeu	a2, a3, 0x80203158 <_ZN4core3fmt5Write10write_char17h0935c44e9832f7afE+0x1a>
80203150: 23 02 b1 00  	sb	a1, 4(sp)
80203154: 05 46        	li	a2, 1
80203156: 51 a8        	j	0x802031ea <_ZN4core3fmt5Write10write_char17h0935c44e9832f7afE+0xac>
80203158: 1b d6 b5 00  	srliw	a2, a1, 11
8020315c: 19 ee        	bnez	a2, 0x8020317a <_ZN4core3fmt5Write10write_char17h0935c44e9832f7afE+0x3c>
8020315e: 13 d6 65 00  	srli	a2, a1, 6
80203162: 13 66 06 0c  	ori	a2, a2, 192
80203166: 23 02 c1 00  	sb	a2, 4(sp)
8020316a: 93 f5 f5 03  	andi	a1, a1, 63
8020316e: 93 e5 05 08  	ori	a1, a1, 128
80203172: a3 02 b1 00  	sb	a1, 5(sp)
80203176: 09 46        	li	a2, 2
80203178: 8d a8        	j	0x802031ea <_ZN4core3fmt5Write10write_char17h0935c44e9832f7afE+0xac>
8020317a: 1b d6 05 01  	srliw	a2, a1, 16
8020317e: 05 ea        	bnez	a2, 0x802031ae <_ZN4core3fmt5Write10write_char17h0935c44e9832f7afE+0x70>
80203180: 13 96 05 02  	slli	a2, a1, 32
80203184: 01 92        	srli	a2, a2, 32
80203186: 9b d6 c5 00  	srliw	a3, a1, 12
8020318a: 93 e6 06 0e  	ori	a3, a3, 224
8020318e: 23 02 d1 00  	sb	a3, 4(sp)
80203192: 52 16        	slli	a2, a2, 52
80203194: 69 92        	srli	a2, a2, 58
80203196: 13 66 06 08  	ori	a2, a2, 128
8020319a: a3 02 c1 00  	sb	a2, 5(sp)
8020319e: 93 f5 f5 03  	andi	a1, a1, 63
802031a2: 93 e5 05 08  	ori	a1, a1, 128
802031a6: 23 03 b1 00  	sb	a1, 6(sp)
802031aa: 0d 46        	li	a2, 3
802031ac: 3d a8        	j	0x802031ea <_ZN4core3fmt5Write10write_char17h0935c44e9832f7afE+0xac>
802031ae: 13 96 05 02  	slli	a2, a1, 32
802031b2: 01 92        	srli	a2, a2, 32
802031b4: 93 16 b6 02  	slli	a3, a2, 43
802031b8: f5 92        	srli	a3, a3, 61
802031ba: 93 e6 06 0f  	ori	a3, a3, 240
802031be: 23 02 d1 00  	sb	a3, 4(sp)
802031c2: 93 16 e6 02  	slli	a3, a2, 46
802031c6: e9 92        	srli	a3, a3, 58
802031c8: 93 e6 06 08  	ori	a3, a3, 128
802031cc: a3 02 d1 00  	sb	a3, 5(sp)
802031d0: 52 16        	slli	a2, a2, 52
802031d2: 69 92        	srli	a2, a2, 58
802031d4: 13 66 06 08  	ori	a2, a2, 128
802031d8: 23 03 c1 00  	sb	a2, 6(sp)
802031dc: 93 f5 f5 03  	andi	a1, a1, 63
802031e0: 93 e5 05 08  	ori	a1, a1, 128
802031e4: a3 03 b1 00  	sb	a1, 7(sp)
802031e8: 11 46        	li	a2, 4
802031ea: 4c 00        	addi	a1, sp, 4
802031ec: 97 00 00 00  	auipc	ra, 0
802031f0: e7 80 00 b6  	jalr	-1184(ra)
802031f4: a2 60        	ld	ra, 8(sp)
802031f6: 41 01        	addi	sp, sp, 16
802031f8: 82 80        	ret

00000000802031fa <_ZN4core3fmt5Write9write_fmt17h034a4ff4b8bb18e2E>:
802031fa: 39 71        	addi	sp, sp, -64
802031fc: 06 fc        	sd	ra, 56(sp)
802031fe: 90 75        	ld	a2, 40(a1)
80203200: 94 71        	ld	a3, 32(a1)
80203202: 2a e0        	sd	a0, 0(sp)
80203204: 32 f8        	sd	a2, 48(sp)
80203206: 36 f4        	sd	a3, 40(sp)
80203208: 88 6d        	ld	a0, 24(a1)
8020320a: 90 69        	ld	a2, 16(a1)
8020320c: 94 65        	ld	a3, 8(a1)
8020320e: 8c 61        	ld	a1, 0(a1)
80203210: 2a f0        	sd	a0, 32(sp)
80203212: 32 ec        	sd	a2, 24(sp)
80203214: 36 e8        	sd	a3, 16(sp)
80203216: 2e e4        	sd	a1, 8(sp)

0000000080203218 <.LBB210_1>:
80203218: 97 45 04 00  	auipc	a1, 68
8020321c: 93 85 85 9c  	addi	a1, a1, -1592
80203220: 0a 85        	mv	a0, sp
80203222: 30 00        	addi	a2, sp, 8
80203224: 97 00 00 00  	auipc	ra, 0
80203228: e7 80 20 14  	jalr	322(ra)
8020322c: e2 70        	ld	ra, 56(sp)
8020322e: 21 61        	addi	sp, sp, 64
80203230: 82 80        	ret

0000000080203232 <_ZN50_$LT$$RF$mut$u20$W$u20$as$u20$core..fmt..Write$GT$9write_str17h6fc98956e2bba6c6E>:
80203232: 08 61        	ld	a0, 0(a0)
80203234: 17 03 00 00  	auipc	t1, 0
80203238: 67 00 83 b1  	jr	-1256(t1)

000000008020323c <_ZN50_$LT$$RF$mut$u20$W$u20$as$u20$core..fmt..Write$GT$10write_char17hd06c6dea4ceba69fE>:
8020323c: 41 11        	addi	sp, sp, -16
8020323e: 06 e4        	sd	ra, 8(sp)
80203240: 08 61        	ld	a0, 0(a0)
80203242: 1b 86 05 00  	sext.w	a2, a1
80203246: 93 06 00 08  	li	a3, 128
8020324a: 02 c2        	sw	zero, 4(sp)
8020324c: 63 76 d6 00  	bgeu	a2, a3, 0x80203258 <_ZN50_$LT$$RF$mut$u20$W$u20$as$u20$core..fmt..Write$GT$10write_char17hd06c6dea4ceba69fE+0x1c>
80203250: 23 02 b1 00  	sb	a1, 4(sp)
80203254: 05 46        	li	a2, 1
80203256: 51 a8        	j	0x802032ea <_ZN50_$LT$$RF$mut$u20$W$u20$as$u20$core..fmt..Write$GT$10write_char17hd06c6dea4ceba69fE+0xae>
80203258: 1b d6 b5 00  	srliw	a2, a1, 11
8020325c: 19 ee        	bnez	a2, 0x8020327a <_ZN50_$LT$$RF$mut$u20$W$u20$as$u20$core..fmt..Write$GT$10write_char17hd06c6dea4ceba69fE+0x3e>
8020325e: 13 d6 65 00  	srli	a2, a1, 6
80203262: 13 66 06 0c  	ori	a2, a2, 192
80203266: 23 02 c1 00  	sb	a2, 4(sp)
8020326a: 93 f5 f5 03  	andi	a1, a1, 63
8020326e: 93 e5 05 08  	ori	a1, a1, 128
80203272: a3 02 b1 00  	sb	a1, 5(sp)
80203276: 09 46        	li	a2, 2
80203278: 8d a8        	j	0x802032ea <_ZN50_$LT$$RF$mut$u20$W$u20$as$u20$core..fmt..Write$GT$10write_char17hd06c6dea4ceba69fE+0xae>
8020327a: 1b d6 05 01  	srliw	a2, a1, 16
8020327e: 05 ea        	bnez	a2, 0x802032ae <_ZN50_$LT$$RF$mut$u20$W$u20$as$u20$core..fmt..Write$GT$10write_char17hd06c6dea4ceba69fE+0x72>
80203280: 13 96 05 02  	slli	a2, a1, 32
80203284: 01 92        	srli	a2, a2, 32
80203286: 9b d6 c5 00  	srliw	a3, a1, 12
8020328a: 93 e6 06 0e  	ori	a3, a3, 224
8020328e: 23 02 d1 00  	sb	a3, 4(sp)
80203292: 52 16        	slli	a2, a2, 52
80203294: 69 92        	srli	a2, a2, 58
80203296: 13 66 06 08  	ori	a2, a2, 128
8020329a: a3 02 c1 00  	sb	a2, 5(sp)
8020329e: 93 f5 f5 03  	andi	a1, a1, 63
802032a2: 93 e5 05 08  	ori	a1, a1, 128
802032a6: 23 03 b1 00  	sb	a1, 6(sp)
802032aa: 0d 46        	li	a2, 3
802032ac: 3d a8        	j	0x802032ea <_ZN50_$LT$$RF$mut$u20$W$u20$as$u20$core..fmt..Write$GT$10write_char17hd06c6dea4ceba69fE+0xae>
802032ae: 13 96 05 02  	slli	a2, a1, 32
802032b2: 01 92        	srli	a2, a2, 32
802032b4: 93 16 b6 02  	slli	a3, a2, 43
802032b8: f5 92        	srli	a3, a3, 61
802032ba: 93 e6 06 0f  	ori	a3, a3, 240
802032be: 23 02 d1 00  	sb	a3, 4(sp)
802032c2: 93 16 e6 02  	slli	a3, a2, 46
802032c6: e9 92        	srli	a3, a3, 58
802032c8: 93 e6 06 08  	ori	a3, a3, 128
802032cc: a3 02 d1 00  	sb	a3, 5(sp)
802032d0: 52 16        	slli	a2, a2, 52
802032d2: 69 92        	srli	a2, a2, 58
802032d4: 13 66 06 08  	ori	a2, a2, 128
802032d8: 23 03 c1 00  	sb	a2, 6(sp)
802032dc: 93 f5 f5 03  	andi	a1, a1, 63
802032e0: 93 e5 05 08  	ori	a1, a1, 128
802032e4: a3 03 b1 00  	sb	a1, 7(sp)
802032e8: 11 46        	li	a2, 4
802032ea: 4c 00        	addi	a1, sp, 4
802032ec: 97 00 00 00  	auipc	ra, 0
802032f0: e7 80 00 a6  	jalr	-1440(ra)
802032f4: a2 60        	ld	ra, 8(sp)
802032f6: 41 01        	addi	sp, sp, 16
802032f8: 82 80        	ret

00000000802032fa <_ZN50_$LT$$RF$mut$u20$W$u20$as$u20$core..fmt..Write$GT$9write_fmt17h06062d83efbc924aE>:
802032fa: 39 71        	addi	sp, sp, -64
802032fc: 06 fc        	sd	ra, 56(sp)
802032fe: 08 61        	ld	a0, 0(a0)
80203300: 90 75        	ld	a2, 40(a1)
80203302: 94 71        	ld	a3, 32(a1)
80203304: 2a e0        	sd	a0, 0(sp)
80203306: 32 f8        	sd	a2, 48(sp)
80203308: 36 f4        	sd	a3, 40(sp)
8020330a: 88 6d        	ld	a0, 24(a1)
8020330c: 90 69        	ld	a2, 16(a1)
8020330e: 94 65        	ld	a3, 8(a1)
80203310: 8c 61        	ld	a1, 0(a1)
80203312: 2a f0        	sd	a0, 32(sp)
80203314: 32 ec        	sd	a2, 24(sp)
80203316: 36 e8        	sd	a3, 16(sp)
80203318: 2e e4        	sd	a1, 8(sp)

000000008020331a <.LBB213_1>:
8020331a: 97 45 04 00  	auipc	a1, 68
8020331e: 93 85 65 8c  	addi	a1, a1, -1850
80203322: 0a 85        	mv	a0, sp
80203324: 30 00        	addi	a2, sp, 8
80203326: 97 00 00 00  	auipc	ra, 0
8020332a: e7 80 00 04  	jalr	64(ra)
8020332e: e2 70        	ld	ra, 56(sp)
80203330: 21 61        	addi	sp, sp, 64
80203332: 82 80        	ret

0000000080203334 <_ZN59_$LT$core..fmt..Arguments$u20$as$u20$core..fmt..Display$GT$3fmt17h14b26a2a8d914ef0E>:
80203334: 39 71        	addi	sp, sp, -64
80203336: 06 fc        	sd	ra, 56(sp)
80203338: 10 75        	ld	a2, 40(a0)
8020333a: 18 71        	ld	a4, 32(a0)
8020333c: 1c 6d        	ld	a5, 24(a0)
8020333e: 32 f8        	sd	a2, 48(sp)
80203340: 94 61        	ld	a3, 0(a1)
80203342: 3a f4        	sd	a4, 40(sp)
80203344: 3e f0        	sd	a5, 32(sp)
80203346: 10 69        	ld	a2, 16(a0)
80203348: 18 65        	ld	a4, 8(a0)
8020334a: 08 61        	ld	a0, 0(a0)
8020334c: 8c 65        	ld	a1, 8(a1)
8020334e: 32 ec        	sd	a2, 24(sp)
80203350: 3a e8        	sd	a4, 16(sp)
80203352: 2a e4        	sd	a0, 8(sp)
80203354: 30 00        	addi	a2, sp, 8
80203356: 36 85        	mv	a0, a3
80203358: 97 00 00 00  	auipc	ra, 0
8020335c: e7 80 e0 00  	jalr	14(ra)
80203360: e2 70        	ld	ra, 56(sp)
80203362: 21 61        	addi	sp, sp, 64
80203364: 82 80        	ret

0000000080203366 <_ZN4core3fmt5write17h42fcd7b837de3f75E>:
80203366: 19 71        	addi	sp, sp, -128
80203368: 86 fc        	sd	ra, 120(sp)
8020336a: a2 f8        	sd	s0, 112(sp)
8020336c: a6 f4        	sd	s1, 104(sp)
8020336e: ca f0        	sd	s2, 96(sp)
80203370: ce ec        	sd	s3, 88(sp)
80203372: d2 e8        	sd	s4, 80(sp)
80203374: d6 e4        	sd	s5, 72(sp)
80203376: da e0        	sd	s6, 64(sp)
80203378: b2 89        	mv	s3, a2
8020337a: 05 46        	li	a2, 1
8020337c: 16 16        	slli	a2, a2, 37
8020337e: 32 f8        	sd	a2, 48(sp)
80203380: 0d 46        	li	a2, 3
80203382: 23 0c c1 02  	sb	a2, 56(sp)
80203386: 03 b6 09 00  	ld	a2, 0(s3)
8020338a: 02 e8        	sd	zero, 16(sp)
8020338c: 02 f0        	sd	zero, 32(sp)
8020338e: 2a e0        	sd	a0, 0(sp)
80203390: 2e e4        	sd	a1, 8(sp)
80203392: 69 c6        	beqz	a2, 0x8020345c <.LBB218_31+0x9e>
80203394: 03 b5 89 00  	ld	a0, 8(s3)
80203398: 63 0e 05 10  	beqz	a0, 0x802034b4 <.LBB218_31+0xf6>
8020339c: 83 b5 09 01  	ld	a1, 16(s3)
802033a0: 93 06 f5 ff  	addi	a3, a0, -1
802033a4: 8e 06        	slli	a3, a3, 3
802033a6: 8d 82        	srli	a3, a3, 3
802033a8: 13 89 16 00  	addi	s2, a3, 1
802033ac: 93 84 85 00  	addi	s1, a1, 8
802033b0: 93 05 80 03  	li	a1, 56
802033b4: 33 0a b5 02  	mul	s4, a0, a1
802033b8: 13 04 86 01  	addi	s0, a2, 24
802033bc: 85 4a        	li	s5, 1

00000000802033be <.LBB218_31>:
802033be: 17 0b 00 00  	auipc	s6, 0
802033c2: 13 0b cb 87  	addi	s6, s6, -1924
802033c6: 90 60        	ld	a2, 0(s1)
802033c8: 09 ca        	beqz	a2, 0x802033da <.LBB218_31+0x1c>
802033ca: a2 66        	ld	a3, 8(sp)
802033cc: 02 65        	ld	a0, 0(sp)
802033ce: 83 b5 84 ff  	ld	a1, -8(s1)
802033d2: 94 6e        	ld	a3, 24(a3)
802033d4: 82 96        	jalr	a3
802033d6: 63 11 05 10  	bnez	a0, 0x802034d8 <.LBB218_31+0x11a>
802033da: 48 44        	lw	a0, 12(s0)
802033dc: 2a da        	sw	a0, 52(sp)
802033de: 03 05 04 01  	lb	a0, 16(s0)
802033e2: 23 0c a1 02  	sb	a0, 56(sp)
802033e6: 0c 44        	lw	a1, 8(s0)
802033e8: 03 b5 09 02  	ld	a0, 32(s3)
802033ec: 2e d8        	sw	a1, 48(sp)
802033ee: 83 36 84 ff  	ld	a3, -8(s0)
802033f2: 0c 60        	ld	a1, 0(s0)
802033f4: 89 ce        	beqz	a3, 0x8020340e <.LBB218_31+0x50>
802033f6: 01 46        	li	a2, 0
802033f8: 63 9c 56 01  	bne	a3, s5, 0x80203410 <.LBB218_31+0x52>
802033fc: 92 05        	slli	a1, a1, 4
802033fe: aa 95        	add	a1, a1, a0
80203400: 90 65        	ld	a2, 8(a1)
80203402: 63 04 66 01  	beq	a2, s6, 0x8020340a <.LBB218_31+0x4c>
80203406: 01 46        	li	a2, 0
80203408: 21 a0        	j	0x80203410 <.LBB218_31+0x52>
8020340a: 8c 61        	ld	a1, 0(a1)
8020340c: 8c 61        	ld	a1, 0(a1)
8020340e: 05 46        	li	a2, 1
80203410: 32 e8        	sd	a2, 16(sp)
80203412: 2e ec        	sd	a1, 24(sp)
80203414: 83 36 84 fe  	ld	a3, -24(s0)
80203418: 83 35 04 ff  	ld	a1, -16(s0)
8020341c: 89 ce        	beqz	a3, 0x80203436 <.LBB218_31+0x78>
8020341e: 01 46        	li	a2, 0
80203420: 63 9c 56 01  	bne	a3, s5, 0x80203438 <.LBB218_31+0x7a>
80203424: 92 05        	slli	a1, a1, 4
80203426: aa 95        	add	a1, a1, a0
80203428: 90 65        	ld	a2, 8(a1)
8020342a: 63 04 66 01  	beq	a2, s6, 0x80203432 <.LBB218_31+0x74>
8020342e: 01 46        	li	a2, 0
80203430: 21 a0        	j	0x80203438 <.LBB218_31+0x7a>
80203432: 8c 61        	ld	a1, 0(a1)
80203434: 8c 61        	ld	a1, 0(a1)
80203436: 05 46        	li	a2, 1
80203438: 32 f0        	sd	a2, 32(sp)
8020343a: 2e f4        	sd	a1, 40(sp)
8020343c: 0c 6c        	ld	a1, 24(s0)
8020343e: 92 05        	slli	a1, a1, 4
80203440: 2e 95        	add	a0, a0, a1
80203442: 10 65        	ld	a2, 8(a0)
80203444: 08 61        	ld	a0, 0(a0)
80203446: 8a 85        	mv	a1, sp
80203448: 02 96        	jalr	a2
8020344a: 59 e5        	bnez	a0, 0x802034d8 <.LBB218_31+0x11a>
8020344c: c1 04        	addi	s1, s1, 16
8020344e: 13 0a 8a fc  	addi	s4, s4, -56
80203452: 13 04 84 03  	addi	s0, s0, 56
80203456: e3 18 0a f6  	bnez	s4, 0x802033c6 <.LBB218_31+0x8>
8020345a: 81 a8        	j	0x802034aa <.LBB218_31+0xec>
8020345c: 03 b5 89 02  	ld	a0, 40(s3)
80203460: 31 c9        	beqz	a0, 0x802034b4 <.LBB218_31+0xf6>
80203462: 83 b5 09 02  	ld	a1, 32(s3)
80203466: 03 b6 09 01  	ld	a2, 16(s3)
8020346a: 93 06 f5 ff  	addi	a3, a0, -1
8020346e: 92 06        	slli	a3, a3, 4
80203470: 91 82        	srli	a3, a3, 4
80203472: 13 89 16 00  	addi	s2, a3, 1
80203476: 13 04 86 00  	addi	s0, a2, 8
8020347a: 13 1a 45 00  	slli	s4, a0, 4
8020347e: 93 84 85 00  	addi	s1, a1, 8
80203482: 10 60        	ld	a2, 0(s0)
80203484: 01 ca        	beqz	a2, 0x80203494 <.LBB218_31+0xd6>
80203486: a2 66        	ld	a3, 8(sp)
80203488: 02 65        	ld	a0, 0(sp)
8020348a: 83 35 84 ff  	ld	a1, -8(s0)
8020348e: 94 6e        	ld	a3, 24(a3)
80203490: 82 96        	jalr	a3
80203492: 39 e1        	bnez	a0, 0x802034d8 <.LBB218_31+0x11a>
80203494: 90 60        	ld	a2, 0(s1)
80203496: 03 b5 84 ff  	ld	a0, -8(s1)
8020349a: 8a 85        	mv	a1, sp
8020349c: 02 96        	jalr	a2
8020349e: 0d ed        	bnez	a0, 0x802034d8 <.LBB218_31+0x11a>
802034a0: 41 04        	addi	s0, s0, 16
802034a2: 41 1a        	addi	s4, s4, -16
802034a4: c1 04        	addi	s1, s1, 16
802034a6: e3 1e 0a fc  	bnez	s4, 0x80203482 <.LBB218_31+0xc4>
802034aa: 03 b5 89 01  	ld	a0, 24(s3)
802034ae: 63 68 a9 00  	bltu	s2, a0, 0x802034be <.LBB218_31+0x100>
802034b2: 2d a0        	j	0x802034dc <.LBB218_31+0x11e>
802034b4: 01 49        	li	s2, 0
802034b6: 03 b5 89 01  	ld	a0, 24(s3)
802034ba: 63 71 a9 02  	bgeu	s2, a0, 0x802034dc <.LBB218_31+0x11e>
802034be: 03 b5 09 01  	ld	a0, 16(s3)
802034c2: 93 15 49 00  	slli	a1, s2, 4
802034c6: 33 06 b5 00  	add	a2, a0, a1
802034ca: a2 66        	ld	a3, 8(sp)
802034cc: 02 65        	ld	a0, 0(sp)
802034ce: 0c 62        	ld	a1, 0(a2)
802034d0: 10 66        	ld	a2, 8(a2)
802034d2: 94 6e        	ld	a3, 24(a3)
802034d4: 82 96        	jalr	a3
802034d6: 19 c1        	beqz	a0, 0x802034dc <.LBB218_31+0x11e>
802034d8: 05 45        	li	a0, 1
802034da: 11 a0        	j	0x802034de <.LBB218_31+0x120>
802034dc: 01 45        	li	a0, 0
802034de: e6 70        	ld	ra, 120(sp)
802034e0: 46 74        	ld	s0, 112(sp)
802034e2: a6 74        	ld	s1, 104(sp)
802034e4: 06 79        	ld	s2, 96(sp)
802034e6: e6 69        	ld	s3, 88(sp)
802034e8: 46 6a        	ld	s4, 80(sp)
802034ea: a6 6a        	ld	s5, 72(sp)
802034ec: 06 6b        	ld	s6, 64(sp)
802034ee: 09 61        	addi	sp, sp, 128
802034f0: 82 80        	ret

00000000802034f2 <_ZN4core3fmt9Formatter12pad_integral17h2910eee1e3128085E>:
802034f2: 59 71        	addi	sp, sp, -112
802034f4: 86 f4        	sd	ra, 104(sp)
802034f6: a2 f0        	sd	s0, 96(sp)
802034f8: a6 ec        	sd	s1, 88(sp)
802034fa: ca e8        	sd	s2, 80(sp)
802034fc: ce e4        	sd	s3, 72(sp)
802034fe: d2 e0        	sd	s4, 64(sp)
80203500: 56 fc        	sd	s5, 56(sp)
80203502: 5a f8        	sd	s6, 48(sp)
80203504: 5e f4        	sd	s7, 40(sp)
80203506: 62 f0        	sd	s8, 32(sp)
80203508: 66 ec        	sd	s9, 24(sp)
8020350a: 6a e8        	sd	s10, 16(sp)
8020350c: 6e e4        	sd	s11, 8(sp)
8020350e: be 89        	mv	s3, a5
80203510: 3a 89        	mv	s2, a4
80203512: 36 8b        	mv	s6, a3
80203514: 32 8a        	mv	s4, a2
80203516: 2a 8c        	mv	s8, a0
80203518: b9 c1        	beqz	a1, 0x8020355e <_ZN4core3fmt9Formatter12pad_integral17h2910eee1e3128085E+0x6c>
8020351a: 03 64 0c 03  	lwu	s0, 48(s8)
8020351e: 13 75 14 00  	andi	a0, s0, 1
80203522: b7 0a 11 00  	lui	s5, 272
80203526: 19 c1        	beqz	a0, 0x8020352c <_ZN4core3fmt9Formatter12pad_integral17h2910eee1e3128085E+0x3a>
80203528: 93 0a b0 02  	li	s5, 43
8020352c: b3 0c 35 01  	add	s9, a0, s3
80203530: 13 75 44 00  	andi	a0, s0, 4
80203534: 15 cd        	beqz	a0, 0x80203570 <_ZN4core3fmt9Formatter12pad_integral17h2910eee1e3128085E+0x7e>
80203536: 13 05 00 02  	li	a0, 32
8020353a: 63 70 ab 04  	bgeu	s6, a0, 0x8020357a <_ZN4core3fmt9Formatter12pad_integral17h2910eee1e3128085E+0x88>
8020353e: 01 45        	li	a0, 0
80203540: 63 03 0b 04  	beqz	s6, 0x80203586 <_ZN4core3fmt9Formatter12pad_integral17h2910eee1e3128085E+0x94>
80203544: da 85        	mv	a1, s6
80203546: 52 86        	mv	a2, s4
80203548: 83 06 06 00  	lb	a3, 0(a2)
8020354c: 05 06        	addi	a2, a2, 1
8020354e: 93 a6 06 fc  	slti	a3, a3, -64
80203552: 93 c6 16 00  	xori	a3, a3, 1
80203556: fd 15        	addi	a1, a1, -1
80203558: 36 95        	add	a0, a0, a3
8020355a: fd f5        	bnez	a1, 0x80203548 <_ZN4core3fmt9Formatter12pad_integral17h2910eee1e3128085E+0x56>
8020355c: 2d a0        	j	0x80203586 <_ZN4core3fmt9Formatter12pad_integral17h2910eee1e3128085E+0x94>
8020355e: 03 24 0c 03  	lw	s0, 48(s8)
80203562: 93 8c 19 00  	addi	s9, s3, 1
80203566: 93 0a d0 02  	li	s5, 45
8020356a: 13 75 44 00  	andi	a0, s0, 4
8020356e: 61 f5        	bnez	a0, 0x80203536 <_ZN4core3fmt9Formatter12pad_integral17h2910eee1e3128085E+0x44>
80203570: 01 4a        	li	s4, 0
80203572: 03 35 0c 01  	ld	a0, 16(s8)
80203576: 01 ed        	bnez	a0, 0x8020358e <_ZN4core3fmt9Formatter12pad_integral17h2910eee1e3128085E+0x9c>
80203578: 99 a0        	j	0x802035be <_ZN4core3fmt9Formatter12pad_integral17h2910eee1e3128085E+0xcc>
8020357a: 52 85        	mv	a0, s4
8020357c: da 85        	mv	a1, s6
8020357e: 97 10 00 00  	auipc	ra, 1
80203582: e7 80 80 83  	jalr	-1992(ra)
80203586: aa 9c        	add	s9, s9, a0
80203588: 03 35 0c 01  	ld	a0, 16(s8)
8020358c: 0d c9        	beqz	a0, 0x802035be <_ZN4core3fmt9Formatter12pad_integral17h2910eee1e3128085E+0xcc>
8020358e: 03 3d 8c 01  	ld	s10, 24(s8)
80203592: 63 f6 ac 03  	bgeu	s9, s10, 0x802035be <_ZN4core3fmt9Formatter12pad_integral17h2910eee1e3128085E+0xcc>
80203596: 13 75 84 00  	andi	a0, s0, 8
8020359a: 41 e5        	bnez	a0, 0x80203622 <_ZN4core3fmt9Formatter12pad_integral17h2910eee1e3128085E+0x130>
8020359c: 83 45 8c 03  	lbu	a1, 56(s8)
802035a0: 0d 46        	li	a2, 3
802035a2: 05 45        	li	a0, 1
802035a4: 63 83 c5 00  	beq	a1, a2, 0x802035aa <_ZN4core3fmt9Formatter12pad_integral17h2910eee1e3128085E+0xb8>
802035a8: 2e 85        	mv	a0, a1
802035aa: 93 75 35 00  	andi	a1, a0, 3
802035ae: 33 05 9d 41  	sub	a0, s10, s9
802035b2: e1 c1        	beqz	a1, 0x80203672 <_ZN4core3fmt9Formatter12pad_integral17h2910eee1e3128085E+0x180>
802035b4: 05 46        	li	a2, 1
802035b6: 63 91 c5 0c  	bne	a1, a2, 0x80203678 <_ZN4core3fmt9Formatter12pad_integral17h2910eee1e3128085E+0x186>
802035ba: 01 4d        	li	s10, 0
802035bc: d9 a0        	j	0x80203682 <_ZN4core3fmt9Formatter12pad_integral17h2910eee1e3128085E+0x190>
802035be: 03 34 0c 00  	ld	s0, 0(s8)
802035c2: 83 34 8c 00  	ld	s1, 8(s8)
802035c6: 22 85        	mv	a0, s0
802035c8: a6 85        	mv	a1, s1
802035ca: 56 86        	mv	a2, s5
802035cc: d2 86        	mv	a3, s4
802035ce: 5a 87        	mv	a4, s6
802035d0: 97 00 00 00  	auipc	ra, 0
802035d4: e7 80 00 14  	jalr	320(ra)
802035d8: 85 4b        	li	s7, 1
802035da: 0d c1        	beqz	a0, 0x802035fc <_ZN4core3fmt9Formatter12pad_integral17h2910eee1e3128085E+0x10a>
802035dc: 5e 85        	mv	a0, s7
802035de: a6 70        	ld	ra, 104(sp)
802035e0: 06 74        	ld	s0, 96(sp)
802035e2: e6 64        	ld	s1, 88(sp)
802035e4: 46 69        	ld	s2, 80(sp)
802035e6: a6 69        	ld	s3, 72(sp)
802035e8: 06 6a        	ld	s4, 64(sp)
802035ea: e2 7a        	ld	s5, 56(sp)
802035ec: 42 7b        	ld	s6, 48(sp)
802035ee: a2 7b        	ld	s7, 40(sp)
802035f0: 02 7c        	ld	s8, 32(sp)
802035f2: e2 6c        	ld	s9, 24(sp)
802035f4: 42 6d        	ld	s10, 16(sp)
802035f6: a2 6d        	ld	s11, 8(sp)
802035f8: 65 61        	addi	sp, sp, 112
802035fa: 82 80        	ret
802035fc: 9c 6c        	ld	a5, 24(s1)
802035fe: 22 85        	mv	a0, s0
80203600: ca 85        	mv	a1, s2
80203602: 4e 86        	mv	a2, s3
80203604: a6 70        	ld	ra, 104(sp)
80203606: 06 74        	ld	s0, 96(sp)
80203608: e6 64        	ld	s1, 88(sp)
8020360a: 46 69        	ld	s2, 80(sp)
8020360c: a6 69        	ld	s3, 72(sp)
8020360e: 06 6a        	ld	s4, 64(sp)
80203610: e2 7a        	ld	s5, 56(sp)
80203612: 42 7b        	ld	s6, 48(sp)
80203614: a2 7b        	ld	s7, 40(sp)
80203616: 02 7c        	ld	s8, 32(sp)
80203618: e2 6c        	ld	s9, 24(sp)
8020361a: 42 6d        	ld	s10, 16(sp)
8020361c: a2 6d        	ld	s11, 8(sp)
8020361e: 65 61        	addi	sp, sp, 112
80203620: 82 87        	jr	a5
80203622: 03 24 4c 03  	lw	s0, 52(s8)
80203626: 13 05 00 03  	li	a0, 48
8020362a: 83 45 8c 03  	lbu	a1, 56(s8)
8020362e: 2e e0        	sd	a1, 0(sp)
80203630: 83 3d 0c 00  	ld	s11, 0(s8)
80203634: 83 34 8c 00  	ld	s1, 8(s8)
80203638: 23 2a ac 02  	sw	a0, 52(s8)
8020363c: 85 4b        	li	s7, 1
8020363e: 23 0c 7c 03  	sb	s7, 56(s8)
80203642: 6e 85        	mv	a0, s11
80203644: a6 85        	mv	a1, s1
80203646: 56 86        	mv	a2, s5
80203648: d2 86        	mv	a3, s4
8020364a: 5a 87        	mv	a4, s6
8020364c: 97 00 00 00  	auipc	ra, 0
80203650: e7 80 40 0c  	jalr	196(ra)
80203654: 41 f5        	bnez	a0, 0x802035dc <_ZN4core3fmt9Formatter12pad_integral17h2910eee1e3128085E+0xea>
80203656: 22 8a        	mv	s4, s0
80203658: 33 05 9d 41  	sub	a0, s10, s9
8020365c: 13 04 15 00  	addi	s0, a0, 1
80203660: 7d 14        	addi	s0, s0, -1
80203662: 49 c4        	beqz	s0, 0x802036ec <_ZN4core3fmt9Formatter12pad_integral17h2910eee1e3128085E+0x1fa>
80203664: 90 70        	ld	a2, 32(s1)
80203666: 93 05 00 03  	li	a1, 48
8020366a: 6e 85        	mv	a0, s11
8020366c: 02 96        	jalr	a2
8020366e: 6d d9        	beqz	a0, 0x80203660 <_ZN4core3fmt9Formatter12pad_integral17h2910eee1e3128085E+0x16e>
80203670: b5 b7        	j	0x802035dc <_ZN4core3fmt9Formatter12pad_integral17h2910eee1e3128085E+0xea>
80203672: 2a 8d        	mv	s10, a0
80203674: 2e 85        	mv	a0, a1
80203676: 31 a0        	j	0x80203682 <_ZN4core3fmt9Formatter12pad_integral17h2910eee1e3128085E+0x190>
80203678: 93 05 15 00  	addi	a1, a0, 1
8020367c: 05 81        	srli	a0, a0, 1
8020367e: 13 dd 15 00  	srli	s10, a1, 1
80203682: 83 3c 0c 00  	ld	s9, 0(s8)
80203686: 83 3d 8c 00  	ld	s11, 8(s8)
8020368a: 03 24 4c 03  	lw	s0, 52(s8)
8020368e: 93 04 15 00  	addi	s1, a0, 1
80203692: fd 14        	addi	s1, s1, -1
80203694: 89 c8        	beqz	s1, 0x802036a6 <_ZN4core3fmt9Formatter12pad_integral17h2910eee1e3128085E+0x1b4>
80203696: 03 b6 0d 02  	ld	a2, 32(s11)
8020369a: 66 85        	mv	a0, s9
8020369c: a2 85        	mv	a1, s0
8020369e: 02 96        	jalr	a2
802036a0: 6d d9        	beqz	a0, 0x80203692 <_ZN4core3fmt9Formatter12pad_integral17h2910eee1e3128085E+0x1a0>
802036a2: 85 4b        	li	s7, 1
802036a4: 25 bf        	j	0x802035dc <_ZN4core3fmt9Formatter12pad_integral17h2910eee1e3128085E+0xea>
802036a6: 37 05 11 00  	lui	a0, 272
802036aa: 85 4b        	li	s7, 1
802036ac: e3 08 a4 f2  	beq	s0, a0, 0x802035dc <_ZN4core3fmt9Formatter12pad_integral17h2910eee1e3128085E+0xea>
802036b0: 66 85        	mv	a0, s9
802036b2: ee 85        	mv	a1, s11
802036b4: 56 86        	mv	a2, s5
802036b6: d2 86        	mv	a3, s4
802036b8: 5a 87        	mv	a4, s6
802036ba: 97 00 00 00  	auipc	ra, 0
802036be: e7 80 60 05  	jalr	86(ra)
802036c2: 09 fd        	bnez	a0, 0x802035dc <_ZN4core3fmt9Formatter12pad_integral17h2910eee1e3128085E+0xea>
802036c4: 83 b6 8d 01  	ld	a3, 24(s11)
802036c8: 66 85        	mv	a0, s9
802036ca: ca 85        	mv	a1, s2
802036cc: 4e 86        	mv	a2, s3
802036ce: 82 96        	jalr	a3
802036d0: 11 f5        	bnez	a0, 0x802035dc <_ZN4core3fmt9Formatter12pad_integral17h2910eee1e3128085E+0xea>
802036d2: 81 44        	li	s1, 0
802036d4: 63 0a 9d 02  	beq	s10, s1, 0x80203708 <_ZN4core3fmt9Formatter12pad_integral17h2910eee1e3128085E+0x216>
802036d8: 03 b6 0d 02  	ld	a2, 32(s11)
802036dc: 85 04        	addi	s1, s1, 1
802036de: 66 85        	mv	a0, s9
802036e0: a2 85        	mv	a1, s0
802036e2: 02 96        	jalr	a2
802036e4: 65 d9        	beqz	a0, 0x802036d4 <_ZN4core3fmt9Formatter12pad_integral17h2910eee1e3128085E+0x1e2>
802036e6: 13 85 f4 ff  	addi	a0, s1, -1
802036ea: 05 a0        	j	0x8020370a <_ZN4core3fmt9Formatter12pad_integral17h2910eee1e3128085E+0x218>
802036ec: 94 6c        	ld	a3, 24(s1)
802036ee: 6e 85        	mv	a0, s11
802036f0: ca 85        	mv	a1, s2
802036f2: 4e 86        	mv	a2, s3
802036f4: 82 96        	jalr	a3
802036f6: e3 13 05 ee  	bnez	a0, 0x802035dc <_ZN4core3fmt9Formatter12pad_integral17h2910eee1e3128085E+0xea>
802036fa: 81 4b        	li	s7, 0
802036fc: 23 2a 4c 03  	sw	s4, 52(s8)
80203700: 02 65        	ld	a0, 0(sp)
80203702: 23 0c ac 02  	sb	a0, 56(s8)
80203706: d9 bd        	j	0x802035dc <_ZN4core3fmt9Formatter12pad_integral17h2910eee1e3128085E+0xea>
80203708: 6a 85        	mv	a0, s10
8020370a: b3 3b a5 01  	sltu	s7, a0, s10
8020370e: f9 b5        	j	0x802035dc <_ZN4core3fmt9Formatter12pad_integral17h2910eee1e3128085E+0xea>

0000000080203710 <_ZN4core3fmt9Formatter12pad_integral12write_prefix17h94560343c060f655E>:
80203710: 79 71        	addi	sp, sp, -48
80203712: 06 f4        	sd	ra, 40(sp)
80203714: 22 f0        	sd	s0, 32(sp)
80203716: 26 ec        	sd	s1, 24(sp)
80203718: 4a e8        	sd	s2, 16(sp)
8020371a: 4e e4        	sd	s3, 8(sp)
8020371c: 9b 07 06 00  	sext.w	a5, a2
80203720: 37 08 11 00  	lui	a6, 272
80203724: 3a 89        	mv	s2, a4
80203726: b6 84        	mv	s1, a3
80203728: 2e 84        	mv	s0, a1
8020372a: aa 89        	mv	s3, a0
8020372c: 63 89 07 01  	beq	a5, a6, 0x8020373e <_ZN4core3fmt9Formatter12pad_integral12write_prefix17h94560343c060f655E+0x2e>
80203730: 14 70        	ld	a3, 32(s0)
80203732: 4e 85        	mv	a0, s3
80203734: b2 85        	mv	a1, a2
80203736: 82 96        	jalr	a3
80203738: aa 85        	mv	a1, a0
8020373a: 05 45        	li	a0, 1
8020373c: 91 ed        	bnez	a1, 0x80203758 <_ZN4core3fmt9Formatter12pad_integral12write_prefix17h94560343c060f655E+0x48>
8020373e: 81 cc        	beqz	s1, 0x80203756 <_ZN4core3fmt9Formatter12pad_integral12write_prefix17h94560343c060f655E+0x46>
80203740: 1c 6c        	ld	a5, 24(s0)
80203742: 4e 85        	mv	a0, s3
80203744: a6 85        	mv	a1, s1
80203746: 4a 86        	mv	a2, s2
80203748: a2 70        	ld	ra, 40(sp)
8020374a: 02 74        	ld	s0, 32(sp)
8020374c: e2 64        	ld	s1, 24(sp)
8020374e: 42 69        	ld	s2, 16(sp)
80203750: a2 69        	ld	s3, 8(sp)
80203752: 45 61        	addi	sp, sp, 48
80203754: 82 87        	jr	a5
80203756: 01 45        	li	a0, 0
80203758: a2 70        	ld	ra, 40(sp)
8020375a: 02 74        	ld	s0, 32(sp)
8020375c: e2 64        	ld	s1, 24(sp)
8020375e: 42 69        	ld	s2, 16(sp)
80203760: a2 69        	ld	s3, 8(sp)
80203762: 45 61        	addi	sp, sp, 48
80203764: 82 80        	ret

0000000080203766 <_ZN4core3fmt9Formatter3pad17h4bb521065e6665e9E>:
80203766: 5d 71        	addi	sp, sp, -80
80203768: 86 e4        	sd	ra, 72(sp)
8020376a: a2 e0        	sd	s0, 64(sp)
8020376c: 26 fc        	sd	s1, 56(sp)
8020376e: 4a f8        	sd	s2, 48(sp)
80203770: 4e f4        	sd	s3, 40(sp)
80203772: 52 f0        	sd	s4, 32(sp)
80203774: 56 ec        	sd	s5, 24(sp)
80203776: 5a e8        	sd	s6, 16(sp)
80203778: 5e e4        	sd	s7, 8(sp)
8020377a: 2a 8a        	mv	s4, a0
8020377c: 83 32 05 01  	ld	t0, 16(a0)
80203780: 08 71        	ld	a0, 32(a0)
80203782: 93 86 f2 ff  	addi	a3, t0, -1
80203786: b3 36 d0 00  	snez	a3, a3
8020378a: 13 07 f5 ff  	addi	a4, a0, -1
8020378e: 33 37 e0 00  	snez	a4, a4
80203792: f9 8e        	and	a3, a3, a4
80203794: b2 89        	mv	s3, a2
80203796: 2e 89        	mv	s2, a1
80203798: 63 9d 06 16  	bnez	a3, 0x80203912 <_ZN4core3fmt9Formatter3pad17h4bb521065e6665e9E+0x1ac>
8020379c: 85 45        	li	a1, 1
8020379e: 63 18 b5 10  	bne	a0, a1, 0x802038ae <_ZN4core3fmt9Formatter3pad17h4bb521065e6665e9E+0x148>
802037a2: 03 35 8a 02  	ld	a0, 40(s4)
802037a6: 81 45        	li	a1, 0
802037a8: b3 06 39 01  	add	a3, s2, s3
802037ac: 13 07 15 00  	addi	a4, a0, 1
802037b0: 37 03 11 00  	lui	t1, 272
802037b4: 93 08 f0 0d  	li	a7, 223
802037b8: 13 08 00 0f  	li	a6, 240
802037bc: 4a 86        	mv	a2, s2
802037be: 01 a8        	j	0x802037ce <_ZN4core3fmt9Formatter3pad17h4bb521065e6665e9E+0x68>
802037c0: 13 05 16 00  	addi	a0, a2, 1
802037c4: 91 8d        	sub	a1, a1, a2
802037c6: aa 95        	add	a1, a1, a0
802037c8: 2a 86        	mv	a2, a0
802037ca: 63 02 64 0e  	beq	s0, t1, 0x802038ae <_ZN4core3fmt9Formatter3pad17h4bb521065e6665e9E+0x148>
802037ce: 7d 17        	addi	a4, a4, -1
802037d0: 25 c7        	beqz	a4, 0x80203838 <_ZN4core3fmt9Formatter3pad17h4bb521065e6665e9E+0xd2>
802037d2: 63 0e d6 0c  	beq	a2, a3, 0x802038ae <_ZN4core3fmt9Formatter3pad17h4bb521065e6665e9E+0x148>
802037d6: 03 05 06 00  	lb	a0, 0(a2)
802037da: 13 74 f5 0f  	andi	s0, a0, 255
802037de: e3 51 05 fe  	bgez	a0, 0x802037c0 <_ZN4core3fmt9Formatter3pad17h4bb521065e6665e9E+0x5a>
802037e2: 03 45 16 00  	lbu	a0, 1(a2)
802037e6: 93 77 f4 01  	andi	a5, s0, 31
802037ea: 93 74 f5 03  	andi	s1, a0, 63
802037ee: 63 f9 88 02  	bgeu	a7, s0, 0x80203820 <_ZN4core3fmt9Formatter3pad17h4bb521065e6665e9E+0xba>
802037f2: 03 45 26 00  	lbu	a0, 2(a2)
802037f6: 9a 04        	slli	s1, s1, 6
802037f8: 13 75 f5 03  	andi	a0, a0, 63
802037fc: c9 8c        	or	s1, s1, a0
802037fe: 63 67 04 03  	bltu	s0, a6, 0x8020382c <_ZN4core3fmt9Formatter3pad17h4bb521065e6665e9E+0xc6>
80203802: 03 45 36 00  	lbu	a0, 3(a2)
80203806: f6 17        	slli	a5, a5, 61
80203808: ad 93        	srli	a5, a5, 43
8020380a: 9a 04        	slli	s1, s1, 6
8020380c: 13 75 f5 03  	andi	a0, a0, 63
80203810: 45 8d        	or	a0, a0, s1
80203812: 33 64 f5 00  	or	s0, a0, a5
80203816: 63 0c 64 08  	beq	s0, t1, 0x802038ae <_ZN4core3fmt9Formatter3pad17h4bb521065e6665e9E+0x148>
8020381a: 13 05 46 00  	addi	a0, a2, 4
8020381e: 5d b7        	j	0x802037c4 <_ZN4core3fmt9Formatter3pad17h4bb521065e6665e9E+0x5e>
80203820: 13 05 26 00  	addi	a0, a2, 2
80203824: 9a 07        	slli	a5, a5, 6
80203826: 33 e4 97 00  	or	s0, a5, s1
8020382a: 69 bf        	j	0x802037c4 <_ZN4core3fmt9Formatter3pad17h4bb521065e6665e9E+0x5e>
8020382c: 13 05 36 00  	addi	a0, a2, 3
80203830: b2 07        	slli	a5, a5, 12
80203832: 33 e4 f4 00  	or	s0, s1, a5
80203836: 79 b7        	j	0x802037c4 <_ZN4core3fmt9Formatter3pad17h4bb521065e6665e9E+0x5e>
80203838: 63 0b d6 06  	beq	a2, a3, 0x802038ae <_ZN4core3fmt9Formatter3pad17h4bb521065e6665e9E+0x148>
8020383c: 03 05 06 00  	lb	a0, 0(a2)
80203840: 63 53 05 04  	bgez	a0, 0x80203886 <_ZN4core3fmt9Formatter3pad17h4bb521065e6665e9E+0x120>
80203844: 13 75 f5 0f  	andi	a0, a0, 255
80203848: 93 06 00 0e  	li	a3, 224
8020384c: 63 6d d5 02  	bltu	a0, a3, 0x80203886 <_ZN4core3fmt9Formatter3pad17h4bb521065e6665e9E+0x120>
80203850: 93 06 00 0f  	li	a3, 240
80203854: 63 69 d5 02  	bltu	a0, a3, 0x80203886 <_ZN4core3fmt9Formatter3pad17h4bb521065e6665e9E+0x120>
80203858: 83 46 16 00  	lbu	a3, 1(a2)
8020385c: 03 47 26 00  	lbu	a4, 2(a2)
80203860: 93 f6 f6 03  	andi	a3, a3, 63
80203864: 13 77 f7 03  	andi	a4, a4, 63
80203868: 03 46 36 00  	lbu	a2, 3(a2)
8020386c: 76 15        	slli	a0, a0, 61
8020386e: 2d 91        	srli	a0, a0, 43
80203870: b2 06        	slli	a3, a3, 12
80203872: 1a 07        	slli	a4, a4, 6
80203874: d9 8e        	or	a3, a3, a4
80203876: 13 76 f6 03  	andi	a2, a2, 63
8020387a: 55 8e        	or	a2, a2, a3
8020387c: 51 8d        	or	a0, a0, a2
8020387e: 37 06 11 00  	lui	a2, 272
80203882: 63 06 c5 02  	beq	a0, a2, 0x802038ae <_ZN4core3fmt9Formatter3pad17h4bb521065e6665e9E+0x148>
80203886: 85 c1        	beqz	a1, 0x802038a6 <_ZN4core3fmt9Formatter3pad17h4bb521065e6665e9E+0x140>
80203888: 63 fd 35 01  	bgeu	a1, s3, 0x802038a2 <_ZN4core3fmt9Formatter3pad17h4bb521065e6665e9E+0x13c>
8020388c: 33 05 b9 00  	add	a0, s2, a1
80203890: 03 05 05 00  	lb	a0, 0(a0)
80203894: 13 06 00 fc  	li	a2, -64
80203898: 63 57 c5 00  	bge	a0, a2, 0x802038a6 <_ZN4core3fmt9Formatter3pad17h4bb521065e6665e9E+0x140>
8020389c: 01 45        	li	a0, 0
8020389e: 11 e5        	bnez	a0, 0x802038aa <_ZN4core3fmt9Formatter3pad17h4bb521065e6665e9E+0x144>
802038a0: 39 a0        	j	0x802038ae <_ZN4core3fmt9Formatter3pad17h4bb521065e6665e9E+0x148>
802038a2: e3 9d 35 ff  	bne	a1, s3, 0x8020389c <_ZN4core3fmt9Formatter3pad17h4bb521065e6665e9E+0x136>
802038a6: 4a 85        	mv	a0, s2
802038a8: 19 c1        	beqz	a0, 0x802038ae <_ZN4core3fmt9Formatter3pad17h4bb521065e6665e9E+0x148>
802038aa: ae 89        	mv	s3, a1
802038ac: 2a 89        	mv	s2, a0
802038ae: 63 82 02 06  	beqz	t0, 0x80203912 <_ZN4core3fmt9Formatter3pad17h4bb521065e6665e9E+0x1ac>
802038b2: 03 34 8a 01  	ld	s0, 24(s4)
802038b6: 13 05 00 02  	li	a0, 32
802038ba: 63 f4 a9 04  	bgeu	s3, a0, 0x80203902 <_ZN4core3fmt9Formatter3pad17h4bb521065e6665e9E+0x19c>
802038be: 01 45        	li	a0, 0
802038c0: 63 8e 09 00  	beqz	s3, 0x802038dc <_ZN4core3fmt9Formatter3pad17h4bb521065e6665e9E+0x176>
802038c4: ce 85        	mv	a1, s3
802038c6: 4a 86        	mv	a2, s2
802038c8: 83 06 06 00  	lb	a3, 0(a2)
802038cc: 05 06        	addi	a2, a2, 1
802038ce: 93 a6 06 fc  	slti	a3, a3, -64
802038d2: 93 c6 16 00  	xori	a3, a3, 1
802038d6: fd 15        	addi	a1, a1, -1
802038d8: 36 95        	add	a0, a0, a3
802038da: fd f5        	bnez	a1, 0x802038c8 <_ZN4core3fmt9Formatter3pad17h4bb521065e6665e9E+0x162>
802038dc: 63 7b 85 02  	bgeu	a0, s0, 0x80203912 <_ZN4core3fmt9Formatter3pad17h4bb521065e6665e9E+0x1ac>
802038e0: 83 45 8a 03  	lbu	a1, 56(s4)
802038e4: 8d 46        	li	a3, 3
802038e6: 01 46        	li	a2, 0
802038e8: 63 83 d5 00  	beq	a1, a3, 0x802038ee <_ZN4core3fmt9Formatter3pad17h4bb521065e6665e9E+0x188>
802038ec: 2e 86        	mv	a2, a1
802038ee: 93 75 36 00  	andi	a1, a2, 3
802038f2: 33 05 a4 40  	sub	a0, s0, a0
802038f6: a1 c1        	beqz	a1, 0x80203936 <_ZN4core3fmt9Formatter3pad17h4bb521065e6665e9E+0x1d0>
802038f8: 05 46        	li	a2, 1
802038fa: 63 91 c5 04  	bne	a1, a2, 0x8020393c <_ZN4core3fmt9Formatter3pad17h4bb521065e6665e9E+0x1d6>
802038fe: 81 4a        	li	s5, 0
80203900: 99 a0        	j	0x80203946 <_ZN4core3fmt9Formatter3pad17h4bb521065e6665e9E+0x1e0>
80203902: 4a 85        	mv	a0, s2
80203904: ce 85        	mv	a1, s3
80203906: 97 00 00 00  	auipc	ra, 0
8020390a: e7 80 00 4b  	jalr	1200(ra)
8020390e: e3 69 85 fc  	bltu	a0, s0, 0x802038e0 <_ZN4core3fmt9Formatter3pad17h4bb521065e6665e9E+0x17a>
80203912: 83 35 8a 00  	ld	a1, 8(s4)
80203916: 03 35 0a 00  	ld	a0, 0(s4)
8020391a: 9c 6d        	ld	a5, 24(a1)
8020391c: ca 85        	mv	a1, s2
8020391e: 4e 86        	mv	a2, s3
80203920: a6 60        	ld	ra, 72(sp)
80203922: 06 64        	ld	s0, 64(sp)
80203924: e2 74        	ld	s1, 56(sp)
80203926: 42 79        	ld	s2, 48(sp)
80203928: a2 79        	ld	s3, 40(sp)
8020392a: 02 7a        	ld	s4, 32(sp)
8020392c: e2 6a        	ld	s5, 24(sp)
8020392e: 42 6b        	ld	s6, 16(sp)
80203930: a2 6b        	ld	s7, 8(sp)
80203932: 61 61        	addi	sp, sp, 80
80203934: 82 87        	jr	a5
80203936: aa 8a        	mv	s5, a0
80203938: 2e 85        	mv	a0, a1
8020393a: 31 a0        	j	0x80203946 <_ZN4core3fmt9Formatter3pad17h4bb521065e6665e9E+0x1e0>
8020393c: 93 05 15 00  	addi	a1, a0, 1
80203940: 05 81        	srli	a0, a0, 1
80203942: 93 da 15 00  	srli	s5, a1, 1
80203946: 03 3b 0a 00  	ld	s6, 0(s4)
8020394a: 83 3b 8a 00  	ld	s7, 8(s4)
8020394e: 83 24 4a 03  	lw	s1, 52(s4)
80203952: 13 04 15 00  	addi	s0, a0, 1
80203956: 7d 14        	addi	s0, s0, -1
80203958: 09 c8        	beqz	s0, 0x8020396a <_ZN4core3fmt9Formatter3pad17h4bb521065e6665e9E+0x204>
8020395a: 03 b6 0b 02  	ld	a2, 32(s7)
8020395e: 5a 85        	mv	a0, s6
80203960: a6 85        	mv	a1, s1
80203962: 02 96        	jalr	a2
80203964: 6d d9        	beqz	a0, 0x80203956 <_ZN4core3fmt9Formatter3pad17h4bb521065e6665e9E+0x1f0>
80203966: 05 4a        	li	s4, 1
80203968: 2d a8        	j	0x802039a2 <_ZN4core3fmt9Formatter3pad17h4bb521065e6665e9E+0x23c>
8020396a: 37 05 11 00  	lui	a0, 272
8020396e: 05 4a        	li	s4, 1
80203970: 63 89 a4 02  	beq	s1, a0, 0x802039a2 <_ZN4core3fmt9Formatter3pad17h4bb521065e6665e9E+0x23c>
80203974: 83 b6 8b 01  	ld	a3, 24(s7)
80203978: 5a 85        	mv	a0, s6
8020397a: ca 85        	mv	a1, s2
8020397c: 4e 86        	mv	a2, s3
8020397e: 82 96        	jalr	a3
80203980: 0d e1        	bnez	a0, 0x802039a2 <_ZN4core3fmt9Formatter3pad17h4bb521065e6665e9E+0x23c>
80203982: 01 44        	li	s0, 0
80203984: 63 8c 8a 00  	beq	s5, s0, 0x8020399c <_ZN4core3fmt9Formatter3pad17h4bb521065e6665e9E+0x236>
80203988: 03 b6 0b 02  	ld	a2, 32(s7)
8020398c: 05 04        	addi	s0, s0, 1
8020398e: 5a 85        	mv	a0, s6
80203990: a6 85        	mv	a1, s1
80203992: 02 96        	jalr	a2
80203994: 65 d9        	beqz	a0, 0x80203984 <_ZN4core3fmt9Formatter3pad17h4bb521065e6665e9E+0x21e>
80203996: 13 05 f4 ff  	addi	a0, s0, -1
8020399a: 11 a0        	j	0x8020399e <_ZN4core3fmt9Formatter3pad17h4bb521065e6665e9E+0x238>
8020399c: 56 85        	mv	a0, s5
8020399e: 33 3a 55 01  	sltu	s4, a0, s5
802039a2: 52 85        	mv	a0, s4
802039a4: a6 60        	ld	ra, 72(sp)
802039a6: 06 64        	ld	s0, 64(sp)
802039a8: e2 74        	ld	s1, 56(sp)
802039aa: 42 79        	ld	s2, 48(sp)
802039ac: a2 79        	ld	s3, 40(sp)
802039ae: 02 7a        	ld	s4, 32(sp)
802039b0: e2 6a        	ld	s5, 24(sp)
802039b2: 42 6b        	ld	s6, 16(sp)
802039b4: a2 6b        	ld	s7, 8(sp)
802039b6: 61 61        	addi	sp, sp, 80
802039b8: 82 80        	ret

00000000802039ba <_ZN57_$LT$core..fmt..Formatter$u20$as$u20$core..fmt..Write$GT$9write_str17h9ea88953b3da9726E>:
802039ba: 14 65        	ld	a3, 8(a0)
802039bc: 08 61        	ld	a0, 0(a0)
802039be: 9c 6e        	ld	a5, 24(a3)
802039c0: 82 87        	jr	a5

00000000802039c2 <_ZN4core3fmt9Formatter25debug_tuple_field1_finish17h0bb87442736b9178E>:
802039c2: 39 71        	addi	sp, sp, -64
802039c4: 06 fc        	sd	ra, 56(sp)
802039c6: 22 f8        	sd	s0, 48(sp)
802039c8: 26 f4        	sd	s1, 40(sp)
802039ca: 4a f0        	sd	s2, 32(sp)
802039cc: 4e ec        	sd	s3, 24(sp)
802039ce: 2a 84        	mv	s0, a0
802039d0: 1c 65        	ld	a5, 8(a0)
802039d2: 08 61        	ld	a0, 0(a0)
802039d4: 9c 6f        	ld	a5, 24(a5)
802039d6: 3a 89        	mv	s2, a4
802039d8: b6 89        	mv	s3, a3
802039da: b2 84        	mv	s1, a2
802039dc: 82 97        	jalr	a5
802039de: 93 b5 14 00  	seqz	a1, s1
802039e2: 22 e4        	sd	s0, 8(sp)
802039e4: 23 08 a1 00  	sb	a0, 16(sp)
802039e8: 02 e0        	sd	zero, 0(sp)
802039ea: a3 08 b1 00  	sb	a1, 17(sp)
802039ee: 0a 85        	mv	a0, sp
802039f0: ce 85        	mv	a1, s3
802039f2: 4a 86        	mv	a2, s2
802039f4: 97 f0 ff ff  	auipc	ra, 1048575
802039f8: e7 80 60 62  	jalr	1574(ra)
802039fc: 02 65        	ld	a0, 0(sp)
802039fe: 83 45 01 01  	lbu	a1, 16(sp)
80203a02: 39 c5        	beqz	a0, 0x80203a50 <.LBB245_9+0x10>
80203a04: 05 44        	li	s0, 1
80203a06: a1 e5        	bnez	a1, 0x80203a4e <.LBB245_9+0xe>
80203a08: 83 45 11 01  	lbu	a1, 17(sp)
80203a0c: 7d 15        	addi	a0, a0, -1
80203a0e: 13 35 15 00  	seqz	a0, a0
80203a12: a2 64        	ld	s1, 8(sp)
80203a14: b3 35 b0 00  	snez	a1, a1
80203a18: 6d 8d        	and	a0, a0, a1
80203a1a: 05 c1        	beqz	a0, 0x80203a3a <.LBB245_8+0x10>
80203a1c: 03 c5 04 03  	lbu	a0, 48(s1)
80203a20: 11 89        	andi	a0, a0, 4
80203a22: 01 ed        	bnez	a0, 0x80203a3a <.LBB245_8+0x10>
80203a24: 8c 64        	ld	a1, 8(s1)
80203a26: 88 60        	ld	a0, 0(s1)
80203a28: 94 6d        	ld	a3, 24(a1)

0000000080203a2a <.LBB245_8>:
80203a2a: 97 35 04 00  	auipc	a1, 67
80203a2e: 93 85 65 08  	addi	a1, a1, 134
80203a32: 05 46        	li	a2, 1
80203a34: 05 44        	li	s0, 1
80203a36: 82 96        	jalr	a3
80203a38: 19 e9        	bnez	a0, 0x80203a4e <.LBB245_9+0xe>
80203a3a: 8c 64        	ld	a1, 8(s1)
80203a3c: 88 60        	ld	a0, 0(s1)
80203a3e: 94 6d        	ld	a3, 24(a1)

0000000080203a40 <.LBB245_9>:
80203a40: 97 35 04 00  	auipc	a1, 67
80203a44: 93 85 05 f4  	addi	a1, a1, -192
80203a48: 05 46        	li	a2, 1
80203a4a: 82 96        	jalr	a3
80203a4c: 2a 84        	mv	s0, a0
80203a4e: a2 85        	mv	a1, s0
80203a50: 33 35 b0 00  	snez	a0, a1
80203a54: e2 70        	ld	ra, 56(sp)
80203a56: 42 74        	ld	s0, 48(sp)
80203a58: a2 74        	ld	s1, 40(sp)
80203a5a: 02 79        	ld	s2, 32(sp)
80203a5c: e2 69        	ld	s3, 24(sp)
80203a5e: 21 61        	addi	sp, sp, 64
80203a60: 82 80        	ret

0000000080203a62 <_ZN42_$LT$str$u20$as$u20$core..fmt..Display$GT$3fmt17h8884fddb1f24a834E>:
80203a62: ae 86        	mv	a3, a1
80203a64: aa 85        	mv	a1, a0
80203a66: 32 85        	mv	a0, a2
80203a68: 36 86        	mv	a2, a3
80203a6a: 17 03 00 00  	auipc	t1, 0
80203a6e: 67 00 c3 cf  	jr	-772(t1)

0000000080203a72 <_ZN4core5slice6memchr14memchr_aligned17hb7cb49aaa6ca698aE>:
80203a72: 41 11        	addi	sp, sp, -16
80203a74: 06 e4        	sd	ra, 8(sp)
80203a76: 93 86 75 00  	addi	a3, a1, 7
80203a7a: e1 9a        	andi	a3, a3, -8
80203a7c: 13 78 f5 0f  	andi	a6, a0, 255
80203a80: 63 87 b6 02  	beq	a3, a1, 0x80203aae <_ZN4core5slice6memchr14memchr_aligned17hb7cb49aaa6ca698aE+0x3c>
80203a84: 33 85 b6 40  	sub	a0, a3, a1
80203a88: 63 63 c5 00  	bltu	a0, a2, 0x80203a8e <_ZN4core5slice6memchr14memchr_aligned17hb7cb49aaa6ca698aE+0x1c>
80203a8c: 32 85        	mv	a0, a2
80203a8e: 05 c1        	beqz	a0, 0x80203aae <_ZN4core5slice6memchr14memchr_aligned17hb7cb49aaa6ca698aE+0x3c>
80203a90: 81 46        	li	a3, 0
80203a92: 33 87 d5 00  	add	a4, a1, a3
80203a96: 03 47 07 00  	lbu	a4, 0(a4)
80203a9a: 63 0c 07 09  	beq	a4, a6, 0x80203b32 <.LBB266_24+0x6a>
80203a9e: 85 06        	addi	a3, a3, 1
80203aa0: e3 19 d5 fe  	bne	a0, a3, 0x80203a92 <_ZN4core5slice6memchr14memchr_aligned17hb7cb49aaa6ca698aE+0x20>
80203aa4: 93 08 06 ff  	addi	a7, a2, -16
80203aa8: 63 f6 a8 00  	bgeu	a7, a0, 0x80203ab4 <.LBB266_22>
80203aac: 95 a0        	j	0x80203b10 <.LBB266_24+0x48>
80203aae: 01 45        	li	a0, 0
80203ab0: 93 08 06 ff  	addi	a7, a2, -16

0000000080203ab4 <.LBB266_22>:
80203ab4: 97 46 07 00  	auipc	a3, 116
80203ab8: 93 86 c6 11  	addi	a3, a3, 284
80203abc: 83 b2 06 00  	ld	t0, 0(a3)

0000000080203ac0 <.LBB266_23>:
80203ac0: 97 46 07 00  	auipc	a3, 116
80203ac4: 93 86 86 11  	addi	a3, a3, 280

0000000080203ac8 <.LBB266_24>:
80203ac8: 17 47 07 00  	auipc	a4, 116
80203acc: 13 07 87 11  	addi	a4, a4, 280
80203ad0: 1c 63        	ld	a5, 0(a4)
80203ad2: 03 b3 06 00  	ld	t1, 0(a3)
80203ad6: b3 03 f8 02  	mul	t2, a6, a5
80203ada: b3 87 a5 00  	add	a5, a1, a0
80203ade: 98 63        	ld	a4, 0(a5)
80203ae0: 33 47 77 00  	xor	a4, a4, t2
80203ae4: 93 46 f7 ff  	not	a3, a4
80203ae8: 16 97        	add	a4, a4, t0
80203aea: b3 f6 66 00  	and	a3, a3, t1
80203aee: f9 8e        	and	a3, a3, a4
80203af0: 91 ee        	bnez	a3, 0x80203b0c <.LBB266_24+0x44>
80203af2: 94 67        	ld	a3, 8(a5)
80203af4: b3 c6 76 00  	xor	a3, a3, t2
80203af8: 13 c7 f6 ff  	not	a4, a3
80203afc: 96 96        	add	a3, a3, t0
80203afe: 33 77 67 00  	and	a4, a4, t1
80203b02: f9 8e        	and	a3, a3, a4
80203b04: 81 e6        	bnez	a3, 0x80203b0c <.LBB266_24+0x44>
80203b06: 41 05        	addi	a0, a0, 16
80203b08: e3 f9 a8 fc  	bgeu	a7, a0, 0x80203ada <.LBB266_24+0x12>
80203b0c: 63 69 a6 02  	bltu	a2, a0, 0x80203b3e <.LBB266_25>
80203b10: 63 0b c5 00  	beq	a0, a2, 0x80203b26 <.LBB266_24+0x5e>
80203b14: b3 86 a5 00  	add	a3, a1, a0
80203b18: 83 c6 06 00  	lbu	a3, 0(a3)
80203b1c: 63 88 06 01  	beq	a3, a6, 0x80203b2c <.LBB266_24+0x64>
80203b20: 05 05        	addi	a0, a0, 1
80203b22: e3 19 a6 fe  	bne	a2, a0, 0x80203b14 <.LBB266_24+0x4c>
80203b26: 81 45        	li	a1, 0
80203b28: b2 86        	mv	a3, a2
80203b2a: 29 a0        	j	0x80203b34 <.LBB266_24+0x6c>
80203b2c: 85 45        	li	a1, 1
80203b2e: aa 86        	mv	a3, a0
80203b30: 11 a0        	j	0x80203b34 <.LBB266_24+0x6c>
80203b32: 85 45        	li	a1, 1
80203b34: 2e 85        	mv	a0, a1
80203b36: b6 85        	mv	a1, a3
80203b38: a2 60        	ld	ra, 8(sp)
80203b3a: 41 01        	addi	sp, sp, 16
80203b3c: 82 80        	ret

0000000080203b3e <.LBB266_25>:
80203b3e: 97 36 04 00  	auipc	a3, 67
80203b42: 93 86 26 0d  	addi	a3, a3, 210
80203b46: b2 85        	mv	a1, a2
80203b48: 36 86        	mv	a2, a3
80203b4a: 97 00 00 00  	auipc	ra, 0
80203b4e: e7 80 a0 00  	jalr	10(ra)
80203b52: 00 00        	unimp	

0000000080203b54 <_ZN4core5slice5index26slice_start_index_len_fail17hdcd879eec8619ea3E>:
80203b54: 41 11        	addi	sp, sp, -16
80203b56: 06 e4        	sd	ra, 8(sp)
80203b58: 97 00 00 00  	auipc	ra, 0
80203b5c: e7 80 a0 00  	jalr	10(ra)
80203b60: 00 00        	unimp	

0000000080203b62 <_ZN4core5slice5index29slice_start_index_len_fail_rt17h7ca29b4725b4aa4bE>:
80203b62: 59 71        	addi	sp, sp, -112
80203b64: 86 f4        	sd	ra, 104(sp)
80203b66: 2a e4        	sd	a0, 8(sp)
80203b68: 2e e8        	sd	a1, 16(sp)
80203b6a: 28 00        	addi	a0, sp, 8
80203b6c: aa e4        	sd	a0, 72(sp)

0000000080203b6e <.LBB276_1>:
80203b6e: 17 05 00 00  	auipc	a0, 0
80203b72: 13 05 a5 7d  	addi	a0, a0, 2010
80203b76: aa e8        	sd	a0, 80(sp)
80203b78: 0c 08        	addi	a1, sp, 16
80203b7a: ae ec        	sd	a1, 88(sp)
80203b7c: aa f0        	sd	a0, 96(sp)

0000000080203b7e <.LBB276_2>:
80203b7e: 17 35 04 00  	auipc	a0, 67
80203b82: 13 05 25 0e  	addi	a0, a0, 226
80203b86: 2a f4        	sd	a0, 40(sp)
80203b88: 09 45        	li	a0, 2
80203b8a: 2a f8        	sd	a0, 48(sp)
80203b8c: 02 ec        	sd	zero, 24(sp)
80203b8e: ac 00        	addi	a1, sp, 72
80203b90: 2e fc        	sd	a1, 56(sp)
80203b92: aa e0        	sd	a0, 64(sp)
80203b94: 28 08        	addi	a0, sp, 24
80203b96: b2 85        	mv	a1, a2
80203b98: 97 f0 ff ff  	auipc	ra, 1048575
80203b9c: e7 80 e0 0c  	jalr	206(ra)
80203ba0: 00 00        	unimp	

0000000080203ba2 <_ZN4core3str8converts9from_utf817h41c2ca4493b63f8bE>:
80203ba2: 5d 71        	addi	sp, sp, -80
80203ba4: a2 e4        	sd	s0, 72(sp)
80203ba6: a6 e0        	sd	s1, 64(sp)
80203ba8: 4a fc        	sd	s2, 56(sp)
80203baa: 4e f8        	sd	s3, 48(sp)
80203bac: 52 f4        	sd	s4, 40(sp)
80203bae: 56 f0        	sd	s5, 32(sp)
80203bb0: 5a ec        	sd	s6, 24(sp)
80203bb2: 5e e8        	sd	s7, 16(sp)
80203bb4: 62 e4        	sd	s8, 8(sp)
80203bb6: 66 e0        	sd	s9, 0(sp)
80203bb8: 93 06 16 ff  	addi	a3, a2, -15
80203bbc: 81 4c        	li	s9, 0
80203bbe: 63 63 d6 00  	bltu	a2, a3, 0x80203bc4 <_ZN4core3str8converts9from_utf817h41c2ca4493b63f8bE+0x22>
80203bc2: b6 8c        	mv	s9, a3
80203bc4: 63 0a 06 1a  	beqz	a2, 0x80203d78 <.LBB288_50+0x19a>
80203bc8: 81 46        	li	a3, 0
80203bca: 13 87 75 00  	addi	a4, a1, 7
80203bce: 61 9b        	andi	a4, a4, -8
80203bd0: 33 08 b7 40  	sub	a6, a4, a1

0000000080203bd4 <.LBB288_49>:
80203bd4: 17 47 07 00  	auipc	a4, 116
80203bd8: 13 07 c7 02  	addi	a4, a4, 44
80203bdc: 1c 63        	ld	a5, 0(a4)

0000000080203bde <.LBB288_50>:
80203bde: 97 38 04 00  	auipc	a7, 67
80203be2: 93 88 28 0a  	addi	a7, a7, 162
80203be6: 91 42        	li	t0, 4
80203be8: 13 03 00 0f  	li	t1, 240
80203bec: 93 03 00 03  	li	t2, 48
80203bf0: 13 0e f0 fb  	li	t3, -65
80203bf4: 93 0e 40 0f  	li	t4, 244
80203bf8: 13 0f f0 f8  	li	t5, -113
80203bfc: 8d 4f        	li	t6, 3
80203bfe: 93 0a 00 0e  	li	s5, 224
80203c02: 13 09 00 fa  	li	s2, -96
80203c06: 13 0a d0 0e  	li	s4, 237
80203c0a: b1 49        	li	s3, 12
80203c0c: 09 4b        	li	s6, 2
80203c0e: 85 4b        	li	s7, 1
80203c10: 21 a0        	j	0x80203c18 <.LBB288_50+0x3a>
80203c12: 85 06        	addi	a3, a3, 1
80203c14: 63 f2 c6 16  	bgeu	a3, a2, 0x80203d78 <.LBB288_50+0x19a>
80203c18: 33 87 d5 00  	add	a4, a1, a3
80203c1c: 03 44 07 00  	lbu	s0, 0(a4)
80203c20: 13 17 84 03  	slli	a4, s0, 56
80203c24: 93 54 87 43  	srai	s1, a4, 56
80203c28: 63 c6 04 04  	bltz	s1, 0x80203c74 <.LBB288_50+0x96>
80203c2c: 13 07 18 00  	addi	a4, a6, 1
80203c30: 33 37 e0 00  	snez	a4, a4
80203c34: 3b 04 d8 40  	subw	s0, a6, a3
80203c38: 1d 88        	andi	s0, s0, 7
80203c3a: 13 34 14 00  	seqz	s0, s0
80203c3e: 61 8f        	and	a4, a4, s0
80203c40: 69 db        	beqz	a4, 0x80203c12 <.LBB288_50+0x34>
80203c42: 63 fd 96 01  	bgeu	a3, s9, 0x80203c5c <.LBB288_50+0x7e>
80203c46: 33 87 d5 00  	add	a4, a1, a3
80203c4a: 00 63        	ld	s0, 0(a4)
80203c4c: 7d 8c        	and	s0, s0, a5
80203c4e: 19 e4        	bnez	s0, 0x80203c5c <.LBB288_50+0x7e>
80203c50: 18 67        	ld	a4, 8(a4)
80203c52: 7d 8f        	and	a4, a4, a5
80203c54: 01 e7        	bnez	a4, 0x80203c5c <.LBB288_50+0x7e>
80203c56: c1 06        	addi	a3, a3, 16
80203c58: e3 e7 96 ff  	bltu	a3, s9, 0x80203c46 <.LBB288_50+0x68>
80203c5c: 63 fc c6 10  	bgeu	a3, a2, 0x80203d74 <.LBB288_50+0x196>
80203c60: 33 87 d5 00  	add	a4, a1, a3
80203c64: 03 07 07 00  	lb	a4, 0(a4)
80203c68: 63 46 07 10  	bltz	a4, 0x80203d74 <.LBB288_50+0x196>
80203c6c: 85 06        	addi	a3, a3, 1
80203c6e: e3 19 d6 fe  	bne	a2, a3, 0x80203c60 <.LBB288_50+0x82>
80203c72: 19 a2        	j	0x80203d78 <.LBB288_50+0x19a>
80203c74: 33 87 88 00  	add	a4, a7, s0
80203c78: 03 47 07 00  	lbu	a4, 0(a4)
80203c7c: 63 02 57 02  	beq	a4, t0, 0x80203ca0 <.LBB288_50+0xc2>
80203c80: 63 0e f7 03  	beq	a4, t6, 0x80203cbc <.LBB288_50+0xde>
80203c84: 63 1d 67 11  	bne	a4, s6, 0x80203d9e <.LBB288_50+0x1c0>
80203c88: 13 84 16 00  	addi	s0, a3, 1
80203c8c: 63 76 c4 10  	bgeu	s0, a2, 0x80203d98 <.LBB288_50+0x1ba>
80203c90: 33 87 85 00  	add	a4, a1, s0
80203c94: 03 07 07 00  	lb	a4, 0(a4)
80203c98: 85 44        	li	s1, 1
80203c9a: 63 5b ee 0c  	bge	t3, a4, 0x80203d70 <.LBB288_50+0x192>
80203c9e: 29 a2        	j	0x80203da8 <.LBB288_50+0x1ca>
80203ca0: 13 87 16 00  	addi	a4, a3, 1
80203ca4: 63 7c c7 0e  	bgeu	a4, a2, 0x80203d9c <.LBB288_50+0x1be>
80203ca8: 2e 97        	add	a4, a4, a1
80203caa: 03 0c 07 00  	lb	s8, 0(a4)
80203cae: 63 05 64 02  	beq	s0, t1, 0x80203cd8 <.LBB288_50+0xfa>
80203cb2: 63 1a d4 03  	bne	s0, t4, 0x80203ce6 <.LBB288_50+0x108>
80203cb6: 63 55 8f 05  	bge	t5, s8, 0x80203d00 <.LBB288_50+0x122>
80203cba: d5 a0        	j	0x80203d9e <.LBB288_50+0x1c0>
80203cbc: 13 87 16 00  	addi	a4, a3, 1
80203cc0: 63 7e c7 0c  	bgeu	a4, a2, 0x80203d9c <.LBB288_50+0x1be>
80203cc4: 2e 97        	add	a4, a4, a1
80203cc6: 03 0c 07 00  	lb	s8, 0(a4)
80203cca: 63 0f 54 05  	beq	s0, s5, 0x80203d28 <.LBB288_50+0x14a>
80203cce: 63 12 44 07  	bne	s0, s4, 0x80203d32 <.LBB288_50+0x154>
80203cd2: 63 45 2c 09  	blt	s8, s2, 0x80203d5c <.LBB288_50+0x17e>
80203cd6: e1 a0        	j	0x80203d9e <.LBB288_50+0x1c0>
80203cd8: 1b 07 0c 07  	addiw	a4, s8, 112
80203cdc: 13 77 f7 0f  	andi	a4, a4, 255
80203ce0: 63 60 77 02  	bltu	a4, t2, 0x80203d00 <.LBB288_50+0x122>
80203ce4: 6d a8        	j	0x80203d9e <.LBB288_50+0x1c0>
80203ce6: 1b 87 f4 00  	addiw	a4, s1, 15
80203cea: 13 77 f7 0f  	andi	a4, a4, 255
80203cee: 13 37 37 00  	sltiu	a4, a4, 3
80203cf2: 13 24 0c 00  	slti	s0, s8, 0
80203cf6: 61 8f        	and	a4, a4, s0
80203cf8: 13 34 0c fc  	sltiu	s0, s8, -64
80203cfc: 61 8f        	and	a4, a4, s0
80203cfe: 45 c3        	beqz	a4, 0x80203d9e <.LBB288_50+0x1c0>
80203d00: 13 87 26 00  	addi	a4, a3, 2
80203d04: 63 7a c7 08  	bgeu	a4, a2, 0x80203d98 <.LBB288_50+0x1ba>
80203d08: 2e 97        	add	a4, a4, a1
80203d0a: 03 07 07 00  	lb	a4, 0(a4)
80203d0e: 63 4a ee 08  	blt	t3, a4, 0x80203da2 <.LBB288_50+0x1c4>
80203d12: 13 84 36 00  	addi	s0, a3, 3
80203d16: 63 71 c4 08  	bgeu	s0, a2, 0x80203d98 <.LBB288_50+0x1ba>
80203d1a: 33 87 85 00  	add	a4, a1, s0
80203d1e: 03 07 07 00  	lb	a4, 0(a4)
80203d22: 63 57 ee 04  	bge	t3, a4, 0x80203d70 <.LBB288_50+0x192>
80203d26: 41 a0        	j	0x80203da6 <.LBB288_50+0x1c8>
80203d28: 13 77 0c fe  	andi	a4, s8, -32
80203d2c: 63 08 27 03  	beq	a4, s2, 0x80203d5c <.LBB288_50+0x17e>
80203d30: bd a0        	j	0x80203d9e <.LBB288_50+0x1c0>
80203d32: 1b 87 f4 01  	addiw	a4, s1, 31
80203d36: 13 77 f7 0f  	andi	a4, a4, 255
80203d3a: 63 75 37 01  	bgeu	a4, s3, 0x80203d44 <.LBB288_50+0x166>
80203d3e: 63 5f 8e 01  	bge	t3, s8, 0x80203d5c <.LBB288_50+0x17e>
80203d42: b1 a8        	j	0x80203d9e <.LBB288_50+0x1c0>
80203d44: 13 f7 e4 ff  	andi	a4, s1, -2
80203d48: 49 07        	addi	a4, a4, 18
80203d4a: 13 37 17 00  	seqz	a4, a4
80203d4e: 13 24 0c 00  	slti	s0, s8, 0
80203d52: 61 8f        	and	a4, a4, s0
80203d54: 13 34 0c fc  	sltiu	s0, s8, -64
80203d58: 61 8f        	and	a4, a4, s0
80203d5a: 31 c3        	beqz	a4, 0x80203d9e <.LBB288_50+0x1c0>
80203d5c: 13 84 26 00  	addi	s0, a3, 2
80203d60: 63 7c c4 02  	bgeu	s0, a2, 0x80203d98 <.LBB288_50+0x1ba>
80203d64: 33 87 85 00  	add	a4, a1, s0
80203d68: 03 07 07 00  	lb	a4, 0(a4)
80203d6c: 63 4b ee 02  	blt	t3, a4, 0x80203da2 <.LBB288_50+0x1c4>
80203d70: 93 06 14 00  	addi	a3, s0, 1
80203d74: e3 e2 c6 ea  	bltu	a3, a2, 0x80203c18 <.LBB288_50+0x3a>
80203d78: 81 46        	li	a3, 0
80203d7a: 0c e5        	sd	a1, 8(a0)
80203d7c: 10 e9        	sd	a2, 16(a0)
80203d7e: 14 e1        	sd	a3, 0(a0)
80203d80: 26 64        	ld	s0, 72(sp)
80203d82: 86 64        	ld	s1, 64(sp)
80203d84: 62 79        	ld	s2, 56(sp)
80203d86: c2 79        	ld	s3, 48(sp)
80203d88: 22 7a        	ld	s4, 40(sp)
80203d8a: 82 7a        	ld	s5, 32(sp)
80203d8c: 62 6b        	ld	s6, 24(sp)
80203d8e: c2 6b        	ld	s7, 16(sp)
80203d90: 22 6c        	ld	s8, 8(sp)
80203d92: 82 6c        	ld	s9, 0(sp)
80203d94: 61 61        	addi	sp, sp, 80
80203d96: 82 80        	ret
80203d98: 81 4b        	li	s7, 0
80203d9a: 39 a0        	j	0x80203da8 <.LBB288_50+0x1ca>
80203d9c: 81 4b        	li	s7, 0
80203d9e: 85 44        	li	s1, 1
80203da0: 21 a0        	j	0x80203da8 <.LBB288_50+0x1ca>
80203da2: 89 44        	li	s1, 2
80203da4: 11 a0        	j	0x80203da8 <.LBB288_50+0x1ca>
80203da6: 8d 44        	li	s1, 3
80203da8: 14 e5        	sd	a3, 8(a0)
80203daa: 23 08 75 01  	sb	s7, 16(a0)
80203dae: a3 08 95 00  	sb	s1, 17(a0)
80203db2: 85 46        	li	a3, 1
80203db4: e9 b7        	j	0x80203d7e <.LBB288_50+0x1a0>

0000000080203db6 <_ZN4core3str5count14do_count_chars17h75bffc8ce7e643c7E>:
80203db6: 2a 86        	mv	a2, a0
80203db8: 1d 05        	addi	a0, a0, 7
80203dba: 13 77 85 ff  	andi	a4, a0, -8
80203dbe: b3 08 c7 40  	sub	a7, a4, a2
80203dc2: 63 ec 15 01  	bltu	a1, a7, 0x80203dda <_ZN4core3str5count14do_count_chars17h75bffc8ce7e643c7E+0x24>
80203dc6: 33 88 15 41  	sub	a6, a1, a7
80203dca: 13 35 88 00  	sltiu	a0, a6, 8
80203dce: 93 b7 98 00  	sltiu	a5, a7, 9
80203dd2: 93 c7 17 00  	xori	a5, a5, 1
80203dd6: 5d 8d        	or	a0, a0, a5
80203dd8: 11 cd        	beqz	a0, 0x80203df4 <_ZN4core3str5count14do_count_chars17h75bffc8ce7e643c7E+0x3e>
80203dda: 01 45        	li	a0, 0
80203ddc: 99 c9        	beqz	a1, 0x80203df2 <_ZN4core3str5count14do_count_chars17h75bffc8ce7e643c7E+0x3c>
80203dde: 83 06 06 00  	lb	a3, 0(a2)
80203de2: 05 06        	addi	a2, a2, 1
80203de4: 93 a6 06 fc  	slti	a3, a3, -64
80203de8: 93 c6 16 00  	xori	a3, a3, 1
80203dec: fd 15        	addi	a1, a1, -1
80203dee: 36 95        	add	a0, a0, a3
80203df0: fd f5        	bnez	a1, 0x80203dde <_ZN4core3str5count14do_count_chars17h75bffc8ce7e643c7E+0x28>
80203df2: 82 80        	ret
80203df4: 93 75 78 00  	andi	a1, a6, 7
80203df8: 81 47        	li	a5, 0
80203dfa: 63 0f c7 00  	beq	a4, a2, 0x80203e18 <_ZN4core3str5count14do_count_chars17h75bffc8ce7e643c7E+0x62>
80203dfe: 33 07 e6 40  	sub	a4, a2, a4
80203e02: 32 85        	mv	a0, a2
80203e04: 83 06 05 00  	lb	a3, 0(a0)
80203e08: 05 05        	addi	a0, a0, 1
80203e0a: 93 a6 06 fc  	slti	a3, a3, -64
80203e0e: 93 c6 16 00  	xori	a3, a3, 1
80203e12: 05 07        	addi	a4, a4, 1
80203e14: b6 97        	add	a5, a5, a3
80203e16: 7d f7        	bnez	a4, 0x80203e04 <_ZN4core3str5count14do_count_chars17h75bffc8ce7e643c7E+0x4e>
80203e18: b3 02 16 01  	add	t0, a2, a7
80203e1c: 01 46        	li	a2, 0
80203e1e: 99 cd        	beqz	a1, 0x80203e3c <_ZN4core3str5count14do_count_chars17h75bffc8ce7e643c7E+0x86>
80203e20: 13 75 88 ff  	andi	a0, a6, -8
80203e24: b3 86 a2 00  	add	a3, t0, a0
80203e28: 03 85 06 00  	lb	a0, 0(a3)
80203e2c: 85 06        	addi	a3, a3, 1
80203e2e: 13 25 05 fc  	slti	a0, a0, -64
80203e32: 13 45 15 00  	xori	a0, a0, 1
80203e36: fd 15        	addi	a1, a1, -1
80203e38: 2a 96        	add	a2, a2, a0
80203e3a: fd f5        	bnez	a1, 0x80203e28 <_ZN4core3str5count14do_count_chars17h75bffc8ce7e643c7E+0x72>
80203e3c: 13 57 38 00  	srli	a4, a6, 3

0000000080203e40 <.LBB290_27>:
80203e40: 17 45 07 00  	auipc	a0, 116
80203e44: 13 05 05 dd  	addi	a0, a0, -560
80203e48: 03 3f 05 00  	ld	t5, 0(a0)

0000000080203e4c <.LBB290_28>:
80203e4c: 17 45 07 00  	auipc	a0, 116
80203e50: 13 05 c5 dc  	addi	a0, a0, -564
80203e54: 83 38 05 00  	ld	a7, 0(a0)
80203e58: 37 15 00 10  	lui	a0, 65537
80203e5c: 12 05        	slli	a0, a0, 4
80203e5e: 05 05        	addi	a0, a0, 1
80203e60: 42 05        	slli	a0, a0, 16
80203e62: 13 08 15 00  	addi	a6, a0, 1
80203e66: 33 05 f6 00  	add	a0, a2, a5
80203e6a: 25 a0        	j	0x80203e92 <.LBB290_28+0x46>
80203e6c: 13 16 3e 00  	slli	a2, t3, 3
80203e70: b3 02 c3 00  	add	t0, t1, a2
80203e74: 33 87 c3 41  	sub	a4, t2, t3
80203e78: 13 76 3e 00  	andi	a2, t3, 3
80203e7c: b3 f6 15 01  	and	a3, a1, a7
80203e80: a1 81        	srli	a1, a1, 8
80203e82: b3 f5 15 01  	and	a1, a1, a7
80203e86: b6 95        	add	a1, a1, a3
80203e88: b3 85 05 03  	mul	a1, a1, a6
80203e8c: c1 91        	srli	a1, a1, 48
80203e8e: 2e 95        	add	a0, a0, a1
80203e90: 41 e2        	bnez	a2, 0x80203f10 <.LBB290_28+0xc4>
80203e92: 25 d3        	beqz	a4, 0x80203df2 <_ZN4core3str5count14do_count_chars17h75bffc8ce7e643c7E+0x3c>
80203e94: ba 83        	mv	t2, a4
80203e96: 16 83        	mv	t1, t0
80203e98: 93 05 00 0c  	li	a1, 192
80203e9c: 3a 8e        	mv	t3, a4
80203e9e: 63 64 b7 00  	bltu	a4, a1, 0x80203ea6 <.LBB290_28+0x5a>
80203ea2: 13 0e 00 0c  	li	t3, 192
80203ea6: 93 75 ce 0f  	andi	a1, t3, 252
80203eaa: 13 96 35 00  	slli	a2, a1, 3
80203eae: b3 0e c3 00  	add	t4, t1, a2
80203eb2: cd dd        	beqz	a1, 0x80203e6c <.LBB290_28+0x20>
80203eb4: 81 45        	li	a1, 0
80203eb6: 1a 86        	mv	a2, t1
80203eb8: 55 da        	beqz	a2, 0x80203e6c <.LBB290_28+0x20>
80203eba: 18 62        	ld	a4, 0(a2)
80203ebc: 93 47 f7 ff  	not	a5, a4
80203ec0: 9d 83        	srli	a5, a5, 7
80203ec2: 19 83        	srli	a4, a4, 6
80203ec4: 14 66        	ld	a3, 8(a2)
80203ec6: 5d 8f        	or	a4, a4, a5
80203ec8: 33 77 e7 01  	and	a4, a4, t5
80203ecc: ba 95        	add	a1, a1, a4
80203ece: 13 c7 f6 ff  	not	a4, a3
80203ed2: 1d 83        	srli	a4, a4, 7
80203ed4: 99 82        	srli	a3, a3, 6
80203ed6: 1c 6a        	ld	a5, 16(a2)
80203ed8: d9 8e        	or	a3, a3, a4
80203eda: b3 f6 e6 01  	and	a3, a3, t5
80203ede: b6 95        	add	a1, a1, a3
80203ee0: 93 c6 f7 ff  	not	a3, a5
80203ee4: 9d 82        	srli	a3, a3, 7
80203ee6: 13 d7 67 00  	srli	a4, a5, 6
80203eea: 1c 6e        	ld	a5, 24(a2)
80203eec: d9 8e        	or	a3, a3, a4
80203eee: b3 f6 e6 01  	and	a3, a3, t5
80203ef2: b6 95        	add	a1, a1, a3
80203ef4: 93 c6 f7 ff  	not	a3, a5
80203ef8: 9d 82        	srli	a3, a3, 7
80203efa: 13 d7 67 00  	srli	a4, a5, 6
80203efe: d9 8e        	or	a3, a3, a4
80203f00: b3 f6 e6 01  	and	a3, a3, t5
80203f04: 13 06 06 02  	addi	a2, a2, 32
80203f08: b6 95        	add	a1, a1, a3
80203f0a: e3 17 d6 fb  	bne	a2, t4, 0x80203eb8 <.LBB290_28+0x6c>
80203f0e: b9 bf        	j	0x80203e6c <.LBB290_28+0x20>
80203f10: 63 0a 03 02  	beqz	t1, 0x80203f44 <.LBB290_28+0xf8>
80203f14: 93 05 00 0c  	li	a1, 192
80203f18: 63 e4 b3 00  	bltu	t2, a1, 0x80203f20 <.LBB290_28+0xd4>
80203f1c: 93 03 00 0c  	li	t2, 192
80203f20: 81 45        	li	a1, 0
80203f22: 13 f6 33 00  	andi	a2, t2, 3
80203f26: 0e 06        	slli	a2, a2, 3
80203f28: 83 b6 0e 00  	ld	a3, 0(t4)
80203f2c: a1 0e        	addi	t4, t4, 8
80203f2e: 13 c7 f6 ff  	not	a4, a3
80203f32: 1d 83        	srli	a4, a4, 7
80203f34: 99 82        	srli	a3, a3, 6
80203f36: d9 8e        	or	a3, a3, a4
80203f38: b3 f6 e6 01  	and	a3, a3, t5
80203f3c: 61 16        	addi	a2, a2, -8
80203f3e: b6 95        	add	a1, a1, a3
80203f40: 65 f6        	bnez	a2, 0x80203f28 <.LBB290_28+0xdc>
80203f42: 11 a0        	j	0x80203f46 <.LBB290_28+0xfa>
80203f44: 81 45        	li	a1, 0
80203f46: 33 f6 15 01  	and	a2, a1, a7
80203f4a: a1 81        	srli	a1, a1, 8
80203f4c: b3 f5 15 01  	and	a1, a1, a7
80203f50: b2 95        	add	a1, a1, a2
80203f52: b3 85 05 03  	mul	a1, a1, a6
80203f56: c1 91        	srli	a1, a1, 48
80203f58: 2e 95        	add	a0, a0, a1
80203f5a: 82 80        	ret

0000000080203f5c <_ZN4core3fmt3num55_$LT$impl$u20$core..fmt..LowerHex$u20$for$u20$usize$GT$3fmt17h6e7d2eee31f3cd74E>:
80203f5c: 75 71        	addi	sp, sp, -144
80203f5e: 06 e5        	sd	ra, 136(sp)
80203f60: 2e 88        	mv	a6, a1
80203f62: 81 45        	li	a1, 0
80203f64: 18 61        	ld	a4, 0(a0)
80203f66: 93 08 81 00  	addi	a7, sp, 8
80203f6a: a9 42        	li	t0, 10
80203f6c: 3d 43        	li	t1, 15
80203f6e: 19 a8        	j	0x80203f84 <_ZN4core3fmt3num55_$LT$impl$u20$core..fmt..LowerHex$u20$for$u20$usize$GT$3fmt17h6e7d2eee31f3cd74E+0x28>
80203f70: b3 86 b8 00  	add	a3, a7, a1
80203f74: 13 57 45 00  	srli	a4, a0, 4
80203f78: 3d 9e        	addw	a2, a2, a5
80203f7a: a3 8f c6 06  	sb	a2, 127(a3)
80203f7e: fd 15        	addi	a1, a1, -1
80203f80: 63 7c a3 00  	bgeu	t1, a0, 0x80203f98 <_ZN4core3fmt3num55_$LT$impl$u20$core..fmt..LowerHex$u20$for$u20$usize$GT$3fmt17h6e7d2eee31f3cd74E+0x3c>
80203f84: 3a 85        	mv	a0, a4
80203f86: 93 77 f7 00  	andi	a5, a4, 15
80203f8a: 13 06 00 03  	li	a2, 48
80203f8e: e3 e1 57 fe  	bltu	a5, t0, 0x80203f70 <_ZN4core3fmt3num55_$LT$impl$u20$core..fmt..LowerHex$u20$for$u20$usize$GT$3fmt17h6e7d2eee31f3cd74E+0x14>
80203f92: 13 06 70 05  	li	a2, 87
80203f96: e9 bf        	j	0x80203f70 <_ZN4core3fmt3num55_$LT$impl$u20$core..fmt..LowerHex$u20$for$u20$usize$GT$3fmt17h6e7d2eee31f3cd74E+0x14>
80203f98: 13 85 05 08  	addi	a0, a1, 128
80203f9c: 13 06 10 08  	li	a2, 129
80203fa0: 63 76 c5 02  	bgeu	a0, a2, 0x80203fcc <.LBB555_8>
80203fa4: 28 00        	addi	a0, sp, 8
80203fa6: 2e 95        	add	a0, a0, a1
80203fa8: 13 07 05 08  	addi	a4, a0, 128
80203fac: b3 07 b0 40  	neg	a5, a1

0000000080203fb0 <.LBB555_7>:
80203fb0: 17 36 04 00  	auipc	a2, 67
80203fb4: 13 06 06 b6  	addi	a2, a2, -1184
80203fb8: 85 45        	li	a1, 1
80203fba: 89 46        	li	a3, 2
80203fbc: 42 85        	mv	a0, a6
80203fbe: 97 f0 ff ff  	auipc	ra, 1048575
80203fc2: e7 80 40 53  	jalr	1332(ra)
80203fc6: aa 60        	ld	ra, 136(sp)
80203fc8: 49 61        	addi	sp, sp, 144
80203fca: 82 80        	ret

0000000080203fcc <.LBB555_8>:
80203fcc: 17 36 04 00  	auipc	a2, 67
80203fd0: 13 06 c6 b2  	addi	a2, a2, -1236
80203fd4: 93 05 00 08  	li	a1, 128
80203fd8: 97 00 00 00  	auipc	ra, 0
80203fdc: e7 80 c0 b7  	jalr	-1156(ra)
80203fe0: 00 00        	unimp	

0000000080203fe2 <_ZN4core3fmt3num49_$LT$impl$u20$core..fmt..Debug$u20$for$u20$u8$GT$3fmt17hf059cf4dae679fc3E>:
80203fe2: 75 71        	addi	sp, sp, -144
80203fe4: 06 e5        	sd	ra, 136(sp)
80203fe6: 2e 88        	mv	a6, a1
80203fe8: 83 e5 05 03  	lwu	a1, 48(a1)
80203fec: 13 f6 05 01  	andi	a2, a1, 16
80203ff0: 11 ee        	bnez	a2, 0x8020400c <_ZN4core3fmt3num49_$LT$impl$u20$core..fmt..Debug$u20$for$u20$u8$GT$3fmt17hf059cf4dae679fc3E+0x2a>
80203ff2: 93 f5 05 02  	andi	a1, a1, 32
80203ff6: b1 e5        	bnez	a1, 0x80204042 <_ZN4core3fmt3num49_$LT$impl$u20$core..fmt..Debug$u20$for$u20$u8$GT$3fmt17hf059cf4dae679fc3E+0x60>
80203ff8: 13 75 f5 0f  	andi	a0, a0, 255
80203ffc: 85 45        	li	a1, 1
80203ffe: 42 86        	mv	a2, a6
80204000: aa 60        	ld	ra, 136(sp)
80204002: 49 61        	addi	sp, sp, 144
80204004: 17 03 00 00  	auipc	t1, 0
80204008: 67 00 c3 19  	jr	412(t1)
8020400c: 81 45        	li	a1, 0
8020400e: 93 08 81 00  	addi	a7, sp, 8
80204012: a9 42        	li	t0, 10
80204014: 3d 43        	li	t1, 15
80204016: 29 a8        	j	0x80204030 <_ZN4core3fmt3num49_$LT$impl$u20$core..fmt..Debug$u20$for$u20$u8$GT$3fmt17hf059cf4dae679fc3E+0x4e>
80204018: b3 86 b8 00  	add	a3, a7, a1
8020401c: 13 77 f5 0f  	andi	a4, a0, 255
80204020: 13 55 47 00  	srli	a0, a4, 4
80204024: 3d 9e        	addw	a2, a2, a5
80204026: a3 8f c6 06  	sb	a2, 127(a3)
8020402a: fd 15        	addi	a1, a1, -1
8020402c: 63 76 e3 04  	bgeu	t1, a4, 0x80204078 <_ZN4core3fmt3num49_$LT$impl$u20$core..fmt..Debug$u20$for$u20$u8$GT$3fmt17hf059cf4dae679fc3E+0x96>
80204030: 93 77 f5 00  	andi	a5, a0, 15
80204034: 13 06 00 03  	li	a2, 48
80204038: e3 e0 57 fe  	bltu	a5, t0, 0x80204018 <_ZN4core3fmt3num49_$LT$impl$u20$core..fmt..Debug$u20$for$u20$u8$GT$3fmt17hf059cf4dae679fc3E+0x36>
8020403c: 13 06 70 05  	li	a2, 87
80204040: e1 bf        	j	0x80204018 <_ZN4core3fmt3num49_$LT$impl$u20$core..fmt..Debug$u20$for$u20$u8$GT$3fmt17hf059cf4dae679fc3E+0x36>
80204042: 81 45        	li	a1, 0
80204044: 93 08 81 00  	addi	a7, sp, 8
80204048: a9 42        	li	t0, 10
8020404a: 3d 43        	li	t1, 15
8020404c: 29 a8        	j	0x80204066 <_ZN4core3fmt3num49_$LT$impl$u20$core..fmt..Debug$u20$for$u20$u8$GT$3fmt17hf059cf4dae679fc3E+0x84>
8020404e: b3 86 b8 00  	add	a3, a7, a1
80204052: 13 77 f5 0f  	andi	a4, a0, 255
80204056: 13 55 47 00  	srli	a0, a4, 4
8020405a: 3d 9e        	addw	a2, a2, a5
8020405c: a3 8f c6 06  	sb	a2, 127(a3)
80204060: fd 15        	addi	a1, a1, -1
80204062: 63 7b e3 00  	bgeu	t1, a4, 0x80204078 <_ZN4core3fmt3num49_$LT$impl$u20$core..fmt..Debug$u20$for$u20$u8$GT$3fmt17hf059cf4dae679fc3E+0x96>
80204066: 93 77 f5 00  	andi	a5, a0, 15
8020406a: 13 06 00 03  	li	a2, 48
8020406e: e3 e0 57 fe  	bltu	a5, t0, 0x8020404e <_ZN4core3fmt3num49_$LT$impl$u20$core..fmt..Debug$u20$for$u20$u8$GT$3fmt17hf059cf4dae679fc3E+0x6c>
80204072: 13 06 70 03  	li	a2, 55
80204076: e1 bf        	j	0x8020404e <_ZN4core3fmt3num49_$LT$impl$u20$core..fmt..Debug$u20$for$u20$u8$GT$3fmt17hf059cf4dae679fc3E+0x6c>
80204078: 13 85 05 08  	addi	a0, a1, 128
8020407c: 13 06 10 08  	li	a2, 129
80204080: 63 76 c5 02  	bgeu	a0, a2, 0x802040ac <.LBB565_15>
80204084: 28 00        	addi	a0, sp, 8
80204086: 2e 95        	add	a0, a0, a1
80204088: 13 07 05 08  	addi	a4, a0, 128
8020408c: b3 07 b0 40  	neg	a5, a1

0000000080204090 <.LBB565_14>:
80204090: 17 36 04 00  	auipc	a2, 67
80204094: 13 06 06 a8  	addi	a2, a2, -1408
80204098: 85 45        	li	a1, 1
8020409a: 89 46        	li	a3, 2
8020409c: 42 85        	mv	a0, a6
8020409e: 97 f0 ff ff  	auipc	ra, 1048575
802040a2: e7 80 40 45  	jalr	1108(ra)
802040a6: aa 60        	ld	ra, 136(sp)
802040a8: 49 61        	addi	sp, sp, 144
802040aa: 82 80        	ret

00000000802040ac <.LBB565_15>:
802040ac: 17 36 04 00  	auipc	a2, 67
802040b0: 13 06 c6 a4  	addi	a2, a2, -1460
802040b4: 93 05 00 08  	li	a1, 128
802040b8: 97 00 00 00  	auipc	ra, 0
802040bc: e7 80 c0 a9  	jalr	-1380(ra)
802040c0: 00 00        	unimp	

00000000802040c2 <_ZN4core3fmt3num52_$LT$impl$u20$core..fmt..Debug$u20$for$u20$usize$GT$3fmt17h7d8d90efa1f76e4dE>:
802040c2: 75 71        	addi	sp, sp, -144
802040c4: 06 e5        	sd	ra, 136(sp)
802040c6: 2e 88        	mv	a6, a1
802040c8: 83 e5 05 03  	lwu	a1, 48(a1)
802040cc: 13 f6 05 01  	andi	a2, a1, 16
802040d0: 09 ee        	bnez	a2, 0x802040ea <_ZN4core3fmt3num52_$LT$impl$u20$core..fmt..Debug$u20$for$u20$usize$GT$3fmt17h7d8d90efa1f76e4dE+0x28>
802040d2: 93 f5 05 02  	andi	a1, a1, 32
802040d6: a9 e5        	bnez	a1, 0x80204120 <_ZN4core3fmt3num52_$LT$impl$u20$core..fmt..Debug$u20$for$u20$usize$GT$3fmt17h7d8d90efa1f76e4dE+0x5e>
802040d8: 08 61        	ld	a0, 0(a0)
802040da: 85 45        	li	a1, 1
802040dc: 42 86        	mv	a2, a6
802040de: aa 60        	ld	ra, 136(sp)
802040e0: 49 61        	addi	sp, sp, 144
802040e2: 17 03 00 00  	auipc	t1, 0
802040e6: 67 00 e3 0b  	jr	190(t1)
802040ea: 81 45        	li	a1, 0
802040ec: 18 61        	ld	a4, 0(a0)
802040ee: 93 08 81 00  	addi	a7, sp, 8
802040f2: a9 42        	li	t0, 10
802040f4: 3d 43        	li	t1, 15
802040f6: 19 a8        	j	0x8020410c <_ZN4core3fmt3num52_$LT$impl$u20$core..fmt..Debug$u20$for$u20$usize$GT$3fmt17h7d8d90efa1f76e4dE+0x4a>
802040f8: b3 86 b8 00  	add	a3, a7, a1
802040fc: 13 57 45 00  	srli	a4, a0, 4
80204100: 3d 9e        	addw	a2, a2, a5
80204102: a3 8f c6 06  	sb	a2, 127(a3)
80204106: fd 15        	addi	a1, a1, -1
80204108: 63 77 a3 04  	bgeu	t1, a0, 0x80204156 <_ZN4core3fmt3num52_$LT$impl$u20$core..fmt..Debug$u20$for$u20$usize$GT$3fmt17h7d8d90efa1f76e4dE+0x94>
8020410c: 3a 85        	mv	a0, a4
8020410e: 93 77 f7 00  	andi	a5, a4, 15
80204112: 13 06 00 03  	li	a2, 48
80204116: e3 e1 57 fe  	bltu	a5, t0, 0x802040f8 <_ZN4core3fmt3num52_$LT$impl$u20$core..fmt..Debug$u20$for$u20$usize$GT$3fmt17h7d8d90efa1f76e4dE+0x36>
8020411a: 13 06 70 05  	li	a2, 87
8020411e: e9 bf        	j	0x802040f8 <_ZN4core3fmt3num52_$LT$impl$u20$core..fmt..Debug$u20$for$u20$usize$GT$3fmt17h7d8d90efa1f76e4dE+0x36>
80204120: 81 45        	li	a1, 0
80204122: 18 61        	ld	a4, 0(a0)
80204124: 93 08 81 00  	addi	a7, sp, 8
80204128: a9 42        	li	t0, 10
8020412a: 3d 43        	li	t1, 15
8020412c: 19 a8        	j	0x80204142 <_ZN4core3fmt3num52_$LT$impl$u20$core..fmt..Debug$u20$for$u20$usize$GT$3fmt17h7d8d90efa1f76e4dE+0x80>
8020412e: b3 86 b8 00  	add	a3, a7, a1
80204132: 13 57 45 00  	srli	a4, a0, 4
80204136: 3d 9e        	addw	a2, a2, a5
80204138: a3 8f c6 06  	sb	a2, 127(a3)
8020413c: fd 15        	addi	a1, a1, -1
8020413e: 63 7c a3 00  	bgeu	t1, a0, 0x80204156 <_ZN4core3fmt3num52_$LT$impl$u20$core..fmt..Debug$u20$for$u20$usize$GT$3fmt17h7d8d90efa1f76e4dE+0x94>
80204142: 3a 85        	mv	a0, a4
80204144: 93 77 f7 00  	andi	a5, a4, 15
80204148: 13 06 00 03  	li	a2, 48
8020414c: e3 e1 57 fe  	bltu	a5, t0, 0x8020412e <_ZN4core3fmt3num52_$LT$impl$u20$core..fmt..Debug$u20$for$u20$usize$GT$3fmt17h7d8d90efa1f76e4dE+0x6c>
80204150: 13 06 70 03  	li	a2, 55
80204154: e9 bf        	j	0x8020412e <_ZN4core3fmt3num52_$LT$impl$u20$core..fmt..Debug$u20$for$u20$usize$GT$3fmt17h7d8d90efa1f76e4dE+0x6c>
80204156: 13 85 05 08  	addi	a0, a1, 128
8020415a: 13 06 10 08  	li	a2, 129
8020415e: 63 76 c5 02  	bgeu	a0, a2, 0x8020418a <.LBB569_15>
80204162: 28 00        	addi	a0, sp, 8
80204164: 2e 95        	add	a0, a0, a1
80204166: 13 07 05 08  	addi	a4, a0, 128
8020416a: b3 07 b0 40  	neg	a5, a1

000000008020416e <.LBB569_14>:
8020416e: 17 36 04 00  	auipc	a2, 67
80204172: 13 06 26 9a  	addi	a2, a2, -1630
80204176: 85 45        	li	a1, 1
80204178: 89 46        	li	a3, 2
8020417a: 42 85        	mv	a0, a6
8020417c: 97 f0 ff ff  	auipc	ra, 1048575
80204180: e7 80 60 37  	jalr	886(ra)
80204184: aa 60        	ld	ra, 136(sp)
80204186: 49 61        	addi	sp, sp, 144
80204188: 82 80        	ret

000000008020418a <.LBB569_15>:
8020418a: 17 36 04 00  	auipc	a2, 67
8020418e: 13 06 e6 96  	addi	a2, a2, -1682
80204192: 93 05 00 08  	li	a1, 128
80204196: 97 00 00 00  	auipc	ra, 0
8020419a: e7 80 e0 9b  	jalr	-1602(ra)
8020419e: 00 00        	unimp	

00000000802041a0 <_ZN4core3fmt3num3imp7fmt_u6417h2bebad4dea13b624E>:
802041a0: 39 71        	addi	sp, sp, -64
802041a2: 06 fc        	sd	ra, 56(sp)
802041a4: 22 f8        	sd	s0, 48(sp)
802041a6: 26 f4        	sd	s1, 40(sp)
802041a8: 32 88        	mv	a6, a2
802041aa: 93 56 45 00  	srli	a3, a0, 4
802041ae: 13 07 70 02  	li	a4, 39
802041b2: 93 07 10 27  	li	a5, 625

00000000802041b6 <.LBB570_10>:
802041b6: 97 3e 04 00  	auipc	t4, 67
802041ba: 93 8e ce 95  	addi	t4, t4, -1700
802041be: 63 f3 f6 02  	bgeu	a3, a5, 0x802041e4 <.LBB570_10+0x2e>
802041c2: 93 06 30 06  	li	a3, 99
802041c6: 63 e9 a6 0a  	bltu	a3, a0, 0x80204278 <.LBB570_11+0x92>
802041ca: 29 46        	li	a2, 10
802041cc: 63 77 c5 0e  	bgeu	a0, a2, 0x802042ba <.LBB570_11+0xd4>
802041d0: 93 06 f7 ff  	addi	a3, a4, -1
802041d4: 13 06 11 00  	addi	a2, sp, 1
802041d8: 36 96        	add	a2, a2, a3
802041da: 1b 05 05 03  	addiw	a0, a0, 48
802041de: 23 00 a6 00  	sb	a0, 0(a2)
802041e2: dd a8        	j	0x802042d8 <.LBB570_11+0xf2>
802041e4: 01 47        	li	a4, 0

00000000802041e6 <.LBB570_11>:
802041e6: 97 46 07 00  	auipc	a3, 116
802041ea: 93 86 a6 a9  	addi	a3, a3, -1382
802041ee: 83 b8 06 00  	ld	a7, 0(a3)
802041f2: 89 66        	lui	a3, 2
802041f4: 9b 83 06 71  	addiw	t2, a3, 1808
802041f8: 85 66        	lui	a3, 1
802041fa: 1b 8e b6 47  	addiw	t3, a3, 1147
802041fe: 93 02 40 06  	li	t0, 100
80204202: 13 03 11 00  	addi	t1, sp, 1
80204206: b7 e6 f5 05  	lui	a3, 24414
8020420a: 1b 8f f6 0f  	addiw	t5, a3, 255
8020420e: aa 87        	mv	a5, a0
80204210: 33 35 15 03  	mulhu	a0, a0, a7
80204214: 2d 81        	srli	a0, a0, 11
80204216: 3b 06 75 02  	mulw	a2, a0, t2
8020421a: 3b 86 c7 40  	subw	a2, a5, a2
8020421e: 93 16 06 03  	slli	a3, a2, 48
80204222: c9 92        	srli	a3, a3, 50
80204224: b3 86 c6 03  	mul	a3, a3, t3
80204228: 93 df 16 01  	srli	t6, a3, 17
8020422c: c1 82        	srli	a3, a3, 16
8020422e: 13 f4 e6 7f  	andi	s0, a3, 2046
80204232: bb 86 5f 02  	mulw	a3, t6, t0
80204236: 15 9e        	subw	a2, a2, a3
80204238: 46 16        	slli	a2, a2, 49
8020423a: 41 92        	srli	a2, a2, 48
8020423c: b3 86 8e 00  	add	a3, t4, s0
80204240: 33 04 e3 00  	add	s0, t1, a4
80204244: 83 cf 06 00  	lbu	t6, 0(a3)
80204248: 83 86 16 00  	lb	a3, 1(a3)
8020424c: 76 96        	add	a2, a2, t4
8020424e: 83 04 16 00  	lb	s1, 1(a2)
80204252: 03 46 06 00  	lbu	a2, 0(a2)
80204256: 23 02 d4 02  	sb	a3, 36(s0)
8020425a: a3 01 f4 03  	sb	t6, 35(s0)
8020425e: 23 03 94 02  	sb	s1, 38(s0)
80204262: a3 02 c4 02  	sb	a2, 37(s0)
80204266: 71 17        	addi	a4, a4, -4
80204268: e3 63 ff fa  	bltu	t5, a5, 0x8020420e <.LBB570_11+0x28>
8020426c: 13 07 77 02  	addi	a4, a4, 39
80204270: 93 06 30 06  	li	a3, 99
80204274: e3 fb a6 f4  	bgeu	a3, a0, 0x802041ca <.LBB570_10+0x14>
80204278: 13 16 05 03  	slli	a2, a0, 48
8020427c: 49 92        	srli	a2, a2, 50
8020427e: 85 66        	lui	a3, 1
80204280: 9b 86 b6 47  	addiw	a3, a3, 1147
80204284: 33 06 d6 02  	mul	a2, a2, a3
80204288: 45 82        	srli	a2, a2, 17
8020428a: 93 06 40 06  	li	a3, 100
8020428e: bb 06 d6 02  	mulw	a3, a2, a3
80204292: 15 9d        	subw	a0, a0, a3
80204294: 46 15        	slli	a0, a0, 49
80204296: 41 91        	srli	a0, a0, 48
80204298: 79 17        	addi	a4, a4, -2
8020429a: 76 95        	add	a0, a0, t4
8020429c: 83 06 15 00  	lb	a3, 1(a0)
802042a0: 03 45 05 00  	lbu	a0, 0(a0)
802042a4: 93 07 11 00  	addi	a5, sp, 1
802042a8: ba 97        	add	a5, a5, a4
802042aa: a3 80 d7 00  	sb	a3, 1(a5)
802042ae: 23 80 a7 00  	sb	a0, 0(a5)
802042b2: 32 85        	mv	a0, a2
802042b4: 29 46        	li	a2, 10
802042b6: e3 6d c5 f0  	bltu	a0, a2, 0x802041d0 <.LBB570_10+0x1a>
802042ba: 06 05        	slli	a0, a0, 1
802042bc: 93 06 e7 ff  	addi	a3, a4, -2
802042c0: 76 95        	add	a0, a0, t4
802042c2: 03 06 15 00  	lb	a2, 1(a0)
802042c6: 03 45 05 00  	lbu	a0, 0(a0)
802042ca: 13 07 11 00  	addi	a4, sp, 1
802042ce: 36 97        	add	a4, a4, a3
802042d0: a3 00 c7 00  	sb	a2, 1(a4)
802042d4: 23 00 a7 00  	sb	a0, 0(a4)
802042d8: 13 05 11 00  	addi	a0, sp, 1
802042dc: 33 07 d5 00  	add	a4, a0, a3
802042e0: 13 05 70 02  	li	a0, 39
802042e4: b3 07 d5 40  	sub	a5, a0, a3

00000000802042e8 <.LBB570_12>:
802042e8: 17 26 04 00  	auipc	a2, 66
802042ec: 13 06 86 69  	addi	a2, a2, 1688
802042f0: 42 85        	mv	a0, a6
802042f2: 81 46        	li	a3, 0
802042f4: 97 f0 ff ff  	auipc	ra, 1048575
802042f8: e7 80 e0 1f  	jalr	510(ra)
802042fc: e2 70        	ld	ra, 56(sp)
802042fe: 42 74        	ld	s0, 48(sp)
80204300: a2 74        	ld	s1, 40(sp)
80204302: 21 61        	addi	sp, sp, 64
80204304: 82 80        	ret

0000000080204306 <_ZN4core3fmt3num3imp51_$LT$impl$u20$core..fmt..Display$u20$for$u20$u8$GT$3fmt17h93332490606bba67E>:
80204306: 03 45 05 00  	lbu	a0, 0(a0)
8020430a: 2e 86        	mv	a2, a1
8020430c: 85 45        	li	a1, 1
8020430e: 17 03 00 00  	auipc	t1, 0
80204312: 67 00 23 e9  	jr	-366(t1)

0000000080204316 <_ZN4core3fmt3num3imp52_$LT$impl$u20$core..fmt..Display$u20$for$u20$i32$GT$3fmt17hf957be9b21bfb453E>:
80204316: 03 65 05 00  	lwu	a0, 0(a0)
8020431a: 2e 86        	mv	a2, a1
8020431c: 9b 06 05 00  	sext.w	a3, a0
80204320: 93 a5 06 00  	slti	a1, a3, 0
80204324: 93 c5 15 00  	xori	a1, a1, 1
80204328: 63 d4 06 00  	bgez	a3, 0x80204330 <_ZN4core3fmt3num3imp52_$LT$impl$u20$core..fmt..Display$u20$for$u20$i32$GT$3fmt17hf957be9b21bfb453E+0x1a>
8020432c: 33 05 d0 40  	neg	a0, a3
80204330: 17 03 00 00  	auipc	t1, 0
80204334: 67 00 03 e7  	jr	-400(t1)

0000000080204338 <_ZN4core3fmt3num3imp52_$LT$impl$u20$core..fmt..Display$u20$for$u20$u32$GT$3fmt17h518678af98a1949fE>:
80204338: 03 65 05 00  	lwu	a0, 0(a0)
8020433c: 2e 86        	mv	a2, a1
8020433e: 85 45        	li	a1, 1
80204340: 17 03 00 00  	auipc	t1, 0
80204344: 67 00 03 e6  	jr	-416(t1)

0000000080204348 <_ZN4core3fmt3num3imp54_$LT$impl$u20$core..fmt..Display$u20$for$u20$usize$GT$3fmt17hadb5d59c0aa64a0cE>:
80204348: 08 61        	ld	a0, 0(a0)
8020434a: 2e 86        	mv	a2, a1
8020434c: 85 45        	li	a1, 1
8020434e: 17 03 00 00  	auipc	t1, 0
80204352: 67 00 23 e5  	jr	-430(t1)

0000000080204356 <_ZN53_$LT$core..fmt..Error$u20$as$u20$core..fmt..Debug$GT$3fmt17h036960996838d966E>:
80204356: 90 65        	ld	a2, 8(a1)
80204358: 88 61        	ld	a0, 0(a1)
8020435a: 1c 6e        	ld	a5, 24(a2)

000000008020435c <.LBB602_1>:
8020435c: 97 35 04 00  	auipc	a1, 67
80204360: 93 85 45 a2  	addi	a1, a1, -1500
80204364: 15 46        	li	a2, 5
80204366: 82 87        	jr	a5

0000000080204368 <_ZN42_$LT$$RF$T$u20$as$u20$core..fmt..Debug$GT$3fmt17h080b833ce0f5925fE>:
80204368: 08 61        	ld	a0, 0(a0)
8020436a: 03 05 05 00  	lb	a0, 0(a0)
8020436e: 17 03 00 00  	auipc	t1, 0
80204372: 67 00 43 c7  	jr	-908(t1)

0000000080204376 <_ZN42_$LT$$RF$T$u20$as$u20$core..fmt..Debug$GT$3fmt17h2dd2fbac7a8df1f0E>:
80204376: 39 71        	addi	sp, sp, -64
80204378: 06 fc        	sd	ra, 56(sp)
8020437a: 22 f8        	sd	s0, 48(sp)
8020437c: 26 f4        	sd	s1, 40(sp)
8020437e: 08 61        	ld	a0, 0(a0)
80204380: 03 46 05 00  	lbu	a2, 0(a0)
80204384: 2e 84        	mv	s0, a1
80204386: 49 ce        	beqz	a2, 0x80204420 <.LBB621_13+0x1e>
80204388: 0c 64        	ld	a1, 8(s0)
8020438a: 05 05        	addi	a0, a0, 1
8020438c: 2a e4        	sd	a0, 8(sp)
8020438e: 08 60        	ld	a0, 0(s0)
80204390: 94 6d        	ld	a3, 24(a1)

0000000080204392 <.LBB621_10>:
80204392: 97 25 04 00  	auipc	a1, 66
80204396: 93 85 05 d6  	addi	a1, a1, -672
8020439a: 11 46        	li	a2, 4
8020439c: 82 96        	jalr	a3
8020439e: 22 ec        	sd	s0, 24(sp)
802043a0: 23 00 a1 02  	sb	a0, 32(sp)
802043a4: 02 e8        	sd	zero, 16(sp)
802043a6: a3 00 01 02  	sb	zero, 33(sp)

00000000802043aa <.LBB621_11>:
802043aa: 17 26 04 00  	auipc	a2, 66
802043ae: 13 06 e6 70  	addi	a2, a2, 1806
802043b2: 08 08        	addi	a0, sp, 16
802043b4: 2c 00        	addi	a1, sp, 8
802043b6: 97 f0 ff ff  	auipc	ra, 1048575
802043ba: e7 80 40 c6  	jalr	-924(ra)
802043be: 42 65        	ld	a0, 16(sp)
802043c0: 83 45 01 02  	lbu	a1, 32(sp)
802043c4: 39 c5        	beqz	a0, 0x80204412 <.LBB621_13+0x10>
802043c6: 05 44        	li	s0, 1
802043c8: a1 e5        	bnez	a1, 0x80204410 <.LBB621_13+0xe>
802043ca: 83 45 11 02  	lbu	a1, 33(sp)
802043ce: 7d 15        	addi	a0, a0, -1
802043d0: 13 35 15 00  	seqz	a0, a0
802043d4: e2 64        	ld	s1, 24(sp)
802043d6: b3 35 b0 00  	snez	a1, a1
802043da: 6d 8d        	and	a0, a0, a1
802043dc: 05 c1        	beqz	a0, 0x802043fc <.LBB621_12+0x10>
802043de: 03 c5 04 03  	lbu	a0, 48(s1)
802043e2: 11 89        	andi	a0, a0, 4
802043e4: 01 ed        	bnez	a0, 0x802043fc <.LBB621_12+0x10>
802043e6: 8c 64        	ld	a1, 8(s1)
802043e8: 88 60        	ld	a0, 0(s1)
802043ea: 94 6d        	ld	a3, 24(a1)

00000000802043ec <.LBB621_12>:
802043ec: 97 25 04 00  	auipc	a1, 66
802043f0: 93 85 45 6c  	addi	a1, a1, 1732
802043f4: 05 46        	li	a2, 1
802043f6: 05 44        	li	s0, 1
802043f8: 82 96        	jalr	a3
802043fa: 19 e9        	bnez	a0, 0x80204410 <.LBB621_13+0xe>
802043fc: 8c 64        	ld	a1, 8(s1)
802043fe: 88 60        	ld	a0, 0(s1)
80204400: 94 6d        	ld	a3, 24(a1)

0000000080204402 <.LBB621_13>:
80204402: 97 25 04 00  	auipc	a1, 66
80204406: 93 85 e5 57  	addi	a1, a1, 1406
8020440a: 05 46        	li	a2, 1
8020440c: 82 96        	jalr	a3
8020440e: 2a 84        	mv	s0, a0
80204410: a2 85        	mv	a1, s0
80204412: 33 35 b0 00  	snez	a0, a1
80204416: e2 70        	ld	ra, 56(sp)
80204418: 42 74        	ld	s0, 48(sp)
8020441a: a2 74        	ld	s1, 40(sp)
8020441c: 21 61        	addi	sp, sp, 64
8020441e: 82 80        	ret
80204420: 0c 64        	ld	a1, 8(s0)
80204422: 08 60        	ld	a0, 0(s0)
80204424: 9c 6d        	ld	a5, 24(a1)

0000000080204426 <.LBB621_14>:
80204426: 97 25 04 00  	auipc	a1, 66
8020442a: 93 85 45 cd  	addi	a1, a1, -812
8020442e: 11 46        	li	a2, 4
80204430: e2 70        	ld	ra, 56(sp)
80204432: 42 74        	ld	s0, 48(sp)
80204434: a2 74        	ld	s1, 40(sp)
80204436: 21 61        	addi	sp, sp, 64
80204438: 82 87        	jr	a5

000000008020443a <_ZN42_$LT$$RF$T$u20$as$u20$core..fmt..Debug$GT$3fmt17hcb8bce5ca6b6d1baE>:
8020443a: 10 65        	ld	a2, 8(a0)
8020443c: 08 61        	ld	a0, 0(a0)
8020443e: 1c 6e        	ld	a5, 24(a2)
80204440: 82 87        	jr	a5

0000000080204442 <_ZN42_$LT$$RF$T$u20$as$u20$core..fmt..Debug$GT$3fmt17hce9151d49674d170E>:
80204442: 08 61        	ld	a0, 0(a0)
80204444: 17 03 00 00  	auipc	t1, 0
80204448: 67 00 e3 c7  	jr	-898(t1)

000000008020444c <_ZN44_$LT$$RF$T$u20$as$u20$core..fmt..Display$GT$3fmt17hcf3c30afa59af89fE>:
8020444c: 14 61        	ld	a3, 0(a0)
8020444e: 10 65        	ld	a2, 8(a0)
80204450: 2e 85        	mv	a0, a1
80204452: b6 85        	mv	a1, a3
80204454: 17 f3 ff ff  	auipc	t1, 1048575
80204458: 67 00 23 31  	jr	786(t1)

000000008020445c <_ZN64_$LT$core..str..error..Utf8Error$u20$as$u20$core..fmt..Debug$GT$3fmt17h1dbc314162ce6afeE>:
8020445c: 79 71        	addi	sp, sp, -48
8020445e: 06 f4        	sd	ra, 40(sp)
80204460: 22 f0        	sd	s0, 32(sp)
80204462: 2e 84        	mv	s0, a1
80204464: 2a e0        	sd	a0, 0(sp)
80204466: 8c 65        	ld	a1, 8(a1)
80204468: 21 05        	addi	a0, a0, 8
8020446a: 2a e4        	sd	a0, 8(sp)
8020446c: 08 60        	ld	a0, 0(s0)
8020446e: 94 6d        	ld	a3, 24(a1)

0000000080204470 <.LBB699_8>:
80204470: 97 35 04 00  	auipc	a1, 67
80204474: 93 85 55 91  	addi	a1, a1, -1771
80204478: 25 46        	li	a2, 9
8020447a: 82 96        	jalr	a3
8020447c: 22 e8        	sd	s0, 16(sp)
8020447e: 23 0c a1 00  	sb	a0, 24(sp)
80204482: a3 0c 01 00  	sb	zero, 25(sp)

0000000080204486 <.LBB699_9>:
80204486: 97 35 04 00  	auipc	a1, 67
8020448a: 93 85 85 90  	addi	a1, a1, -1784

000000008020448e <.LBB699_10>:
8020448e: 17 27 04 00  	auipc	a4, 66
80204492: 13 07 a7 59  	addi	a4, a4, 1434
80204496: 08 08        	addi	a0, sp, 16
80204498: 2d 46        	li	a2, 11
8020449a: 8a 86        	mv	a3, sp
8020449c: 97 f0 ff ff  	auipc	ra, 1048575
802044a0: e7 80 20 a0  	jalr	-1534(ra)

00000000802044a4 <.LBB699_11>:
802044a4: 97 35 04 00  	auipc	a1, 67
802044a8: 93 85 55 8f  	addi	a1, a1, -1803

00000000802044ac <.LBB699_12>:
802044ac: 17 37 04 00  	auipc	a4, 67
802044b0: 13 07 c7 8f  	addi	a4, a4, -1796
802044b4: 08 08        	addi	a0, sp, 16
802044b6: 25 46        	li	a2, 9
802044b8: 34 00        	addi	a3, sp, 8
802044ba: 97 f0 ff ff  	auipc	ra, 1048575
802044be: e7 80 40 9e  	jalr	-1564(ra)
802044c2: 03 45 91 01  	lbu	a0, 25(sp)
802044c6: 83 45 81 01  	lbu	a1, 24(sp)
802044ca: 1d c9        	beqz	a0, 0x80204500 <.LBB699_14+0xe>
802044cc: 05 45        	li	a0, 1
802044ce: 85 e9        	bnez	a1, 0x802044fe <.LBB699_14+0xc>
802044d0: 42 65        	ld	a0, 16(sp)
802044d2: 83 45 05 03  	lbu	a1, 48(a0)
802044d6: 91 89        	andi	a1, a1, 4
802044d8: 91 e9        	bnez	a1, 0x802044ec <.LBB699_13+0xc>
802044da: 0c 65        	ld	a1, 8(a0)
802044dc: 08 61        	ld	a0, 0(a0)
802044de: 94 6d        	ld	a3, 24(a1)

00000000802044e0 <.LBB699_13>:
802044e0: 97 25 04 00  	auipc	a1, 66
802044e4: 93 85 b5 5c  	addi	a1, a1, 1483
802044e8: 09 46        	li	a2, 2
802044ea: 09 a8        	j	0x802044fc <.LBB699_14+0xa>
802044ec: 0c 65        	ld	a1, 8(a0)
802044ee: 08 61        	ld	a0, 0(a0)
802044f0: 94 6d        	ld	a3, 24(a1)

00000000802044f2 <.LBB699_14>:
802044f2: 97 25 04 00  	auipc	a1, 66
802044f6: 93 85 85 5b  	addi	a1, a1, 1464
802044fa: 05 46        	li	a2, 1
802044fc: 82 96        	jalr	a3
802044fe: aa 85        	mv	a1, a0
80204500: 33 35 b0 00  	snez	a0, a1
80204504: a2 70        	ld	ra, 40(sp)
80204506: 02 74        	ld	s0, 32(sp)
80204508: 45 61        	addi	sp, sp, 48
8020450a: 82 80        	ret

000000008020450c <memset>:
8020450c: 17 03 00 00  	auipc	t1, 0
80204510: 67 00 63 0b  	jr	182(t1)

0000000080204514 <_ZN17compiler_builtins3mem6memcpy17h1cdac96a74bbfcebE>:
80204514: bd 46        	li	a3, 15
80204516: 63 fa c6 06  	bgeu	a3, a2, 0x8020458a <_ZN17compiler_builtins3mem6memcpy17h1cdac96a74bbfcebE+0x76>
8020451a: bb 06 a0 40  	negw	a3, a0
8020451e: 13 f8 76 00  	andi	a6, a3, 7
80204522: b3 03 05 01  	add	t2, a0, a6
80204526: 63 0c 08 00  	beqz	a6, 0x8020453e <_ZN17compiler_builtins3mem6memcpy17h1cdac96a74bbfcebE+0x2a>
8020452a: aa 87        	mv	a5, a0
8020452c: ae 86        	mv	a3, a1
8020452e: 03 87 06 00  	lb	a4, 0(a3)
80204532: 23 80 e7 00  	sb	a4, 0(a5)
80204536: 85 07        	addi	a5, a5, 1
80204538: 85 06        	addi	a3, a3, 1
8020453a: e3 ea 77 fe  	bltu	a5, t2, 0x8020452e <_ZN17compiler_builtins3mem6memcpy17h1cdac96a74bbfcebE+0x1a>
8020453e: b3 88 05 01  	add	a7, a1, a6
80204542: 33 08 06 41  	sub	a6, a2, a6
80204546: 93 72 88 ff  	andi	t0, a6, -8
8020454a: 93 f5 78 00  	andi	a1, a7, 7
8020454e: b3 86 53 00  	add	a3, t2, t0
80204552: 9d cd        	beqz	a1, 0x80204590 <_ZN17compiler_builtins3mem6memcpy17h1cdac96a74bbfcebE+0x7c>
80204554: 63 58 50 04  	blez	t0, 0x802045a4 <_ZN17compiler_builtins3mem6memcpy17h1cdac96a74bbfcebE+0x90>
80204558: 13 93 35 00  	slli	t1, a1, 3
8020455c: 13 f7 88 ff  	andi	a4, a7, -8
80204560: 10 63        	ld	a2, 0(a4)
80204562: bb 05 60 40  	negw	a1, t1
80204566: 13 fe 85 03  	andi	t3, a1, 56
8020456a: 93 07 87 00  	addi	a5, a4, 8
8020456e: 98 63        	ld	a4, 0(a5)
80204570: 33 56 66 00  	srl	a2, a2, t1
80204574: b3 15 c7 01  	sll	a1, a4, t3
80204578: d1 8d        	or	a1, a1, a2
8020457a: 23 b0 b3 00  	sd	a1, 0(t2)
8020457e: a1 03        	addi	t2, t2, 8
80204580: a1 07        	addi	a5, a5, 8
80204582: 3a 86        	mv	a2, a4
80204584: e3 e5 d3 fe  	bltu	t2, a3, 0x8020456e <_ZN17compiler_builtins3mem6memcpy17h1cdac96a74bbfcebE+0x5a>
80204588: 31 a8        	j	0x802045a4 <_ZN17compiler_builtins3mem6memcpy17h1cdac96a74bbfcebE+0x90>
8020458a: aa 86        	mv	a3, a0
8020458c: 0d e2        	bnez	a2, 0x802045ae <_ZN17compiler_builtins3mem6memcpy17h1cdac96a74bbfcebE+0x9a>
8020458e: 0d a8        	j	0x802045c0 <_ZN17compiler_builtins3mem6memcpy17h1cdac96a74bbfcebE+0xac>
80204590: 63 5a 50 00  	blez	t0, 0x802045a4 <_ZN17compiler_builtins3mem6memcpy17h1cdac96a74bbfcebE+0x90>
80204594: c6 85        	mv	a1, a7
80204596: 90 61        	ld	a2, 0(a1)
80204598: 23 b0 c3 00  	sd	a2, 0(t2)
8020459c: a1 03        	addi	t2, t2, 8
8020459e: a1 05        	addi	a1, a1, 8
802045a0: e3 eb d3 fe  	bltu	t2, a3, 0x80204596 <_ZN17compiler_builtins3mem6memcpy17h1cdac96a74bbfcebE+0x82>
802045a4: b3 85 58 00  	add	a1, a7, t0
802045a8: 13 76 78 00  	andi	a2, a6, 7
802045ac: 11 ca        	beqz	a2, 0x802045c0 <_ZN17compiler_builtins3mem6memcpy17h1cdac96a74bbfcebE+0xac>
802045ae: 36 96        	add	a2, a2, a3
802045b0: 03 87 05 00  	lb	a4, 0(a1)
802045b4: 23 80 e6 00  	sb	a4, 0(a3)
802045b8: 85 06        	addi	a3, a3, 1
802045ba: 85 05        	addi	a1, a1, 1
802045bc: e3 ea c6 fe  	bltu	a3, a2, 0x802045b0 <_ZN17compiler_builtins3mem6memcpy17h1cdac96a74bbfcebE+0x9c>
802045c0: 82 80        	ret

00000000802045c2 <_ZN17compiler_builtins3mem6memset17h145cb91cb23ad912E>:
802045c2: bd 46        	li	a3, 15
802045c4: 63 fa c6 04  	bgeu	a3, a2, 0x80204618 <_ZN17compiler_builtins3mem6memset17h145cb91cb23ad912E+0x56>
802045c8: bb 06 a0 40  	negw	a3, a0
802045cc: 9d 8a        	andi	a3, a3, 7
802045ce: 33 07 d5 00  	add	a4, a0, a3
802045d2: 99 c6        	beqz	a3, 0x802045e0 <_ZN17compiler_builtins3mem6memset17h145cb91cb23ad912E+0x1e>
802045d4: aa 87        	mv	a5, a0
802045d6: 23 80 b7 00  	sb	a1, 0(a5)
802045da: 85 07        	addi	a5, a5, 1
802045dc: e3 ed e7 fe  	bltu	a5, a4, 0x802045d6 <_ZN17compiler_builtins3mem6memset17h145cb91cb23ad912E+0x14>
802045e0: b3 08 d6 40  	sub	a7, a2, a3
802045e4: 93 f7 88 ff  	andi	a5, a7, -8
802045e8: b3 06 f7 00  	add	a3, a4, a5
802045ec: 63 52 f0 02  	blez	a5, 0x80204610 <_ZN17compiler_builtins3mem6memset17h145cb91cb23ad912E+0x4e>
802045f0: 13 98 85 03  	slli	a6, a1, 56
802045f4: b7 17 10 10  	lui	a5, 65793
802045f8: 92 07        	slli	a5, a5, 4
802045fa: 93 87 07 10  	addi	a5, a5, 256
802045fe: b3 37 f8 02  	mulhu	a5, a6, a5
80204602: 13 96 07 02  	slli	a2, a5, 32
80204606: d1 8f        	or	a5, a5, a2
80204608: 1c e3        	sd	a5, 0(a4)
8020460a: 21 07        	addi	a4, a4, 8
8020460c: e3 6e d7 fe  	bltu	a4, a3, 0x80204608 <_ZN17compiler_builtins3mem6memset17h145cb91cb23ad912E+0x46>
80204610: 13 f6 78 00  	andi	a2, a7, 7
80204614: 01 e6        	bnez	a2, 0x8020461c <_ZN17compiler_builtins3mem6memset17h145cb91cb23ad912E+0x5a>
80204616: 09 a8        	j	0x80204628 <_ZN17compiler_builtins3mem6memset17h145cb91cb23ad912E+0x66>
80204618: aa 86        	mv	a3, a0
8020461a: 19 c6        	beqz	a2, 0x80204628 <_ZN17compiler_builtins3mem6memset17h145cb91cb23ad912E+0x66>
8020461c: 36 96        	add	a2, a2, a3
8020461e: 23 80 b6 00  	sb	a1, 0(a3)
80204622: 85 06        	addi	a3, a3, 1
80204624: e3 ed c6 fe  	bltu	a3, a2, 0x8020461e <_ZN17compiler_builtins3mem6memset17h145cb91cb23ad912E+0x5c>
80204628: 82 80        	ret

000000008020462a <memcpy>:
8020462a: 17 03 00 00  	auipc	t1, 0
8020462e: 67 00 a3 ee  	jr	-278(t1)
